ccopy_reg
_reconstructor
p0
(cpygtrie
StringTrie
p1
c__builtin__
object
p2
Ntp3
Rp4
(dp5
S'_root'
p6
g0
(cpygtrie
_Node
p7
g2
Ntp8
Rp9
(lp10
I1
aS'DGAPChanges'
p11
a(lp12
I452
aI456
aaI1
aS'Product'
p13
a(lp14
I454
aI454
aaI-1
aI1
aS'Version'
p15
a(lp16
I456
aI456
aaI-1
aI1
aS'Vendor'
p17
a(lp18
I455
aI455
aaI-1
aI1
aS'ModDate'
p19
a(lp20
I453
aI453
aaI-2
aI1
aS'Lang'
p21
a(lp22
I496
aI496
aaI-1
aI1
aS'FICL:Enfocus'
p23
a(lp24
I469
aI472
aaI1
aS'PitStop'
p25
a(lp26
I470
aI472
aaI1
aS'CC'
p27
a(lp28
I471
aI472
aaI1
aS'P'
p29
a(lp30
I472
aI472
aaI-4
aI1
aS'JT'
p31
a(lp32
I474
aI494
aaI1
aS'A'
p33
a(lp34
I475
aI477
aaI1
aS'JTM'
p35
a(lp36
I477
aI477
aaI-1
aI1
aS'Dt'
p37
a(lp38
I476
aI476
aaI-2
aI1
aS'Cn'
p39
a(lp40
I478
aI493
aaI1
aS'Type'
p41
a(lp42
I493
aI493
aaI-1
aI1
aS'D'
p43
a(lp44
I479
aI489
aaI1
aS'Fi'
p45
a(lp46
I480
aI482
aaI1
aS'Fi'
p47
a(lp48
I482
aI482
aaI-1
aI1
aS'CP'
p49
a(lp50
I481
aI481
aaI-2
aI1
ag29
a(lp51
I483
aI489
aaI1
aS'R'
p52
a(lp53
I486
aI488
aaI1
ag52
a(lp54
I488
aI488
aaI-1
aI1
aS'Po'
p55
a(lp56
I487
aI487
aaI-2
aI1
aS'JTF'
p57
a(lp58
I484
aI484
aaI-1
aI1
aS'W'
p59
a(lp60
I489
aI489
aaI-1
aI1
aS'MB'
p61
a(lp62
I485
aI485
aaI-3
aI1
aS'MS'
p63
a(lp64
I490
aI492
aaI1
aS'Me'
p65
a(lp66
I491
aI492
aaI1
aS'Dm'
p67
a(lp68
I492
aI492
aaI-4
aI1
aS'V'
p69
a(lp70
I494
aI494
aaI-2
aI1
aS'LastModified'
p71
a(lp72
I497
aI497
aaI-1
aI1
aS'MarkInfo'
p73
a(lp74
I499
aI501
aaI1
aS'LetterspaceFlags'
p75
a(lp76
I500
aI500
aaI-1
aI1
aS'Marked'
p77
a(lp78
I501
aI501
aaI-2
aI1
aS'OpenAction'
p79
a(lp80
I672
aI1263
aaI1
aS'Count'
p81
a(lp82
I767
aI767
aaI-1
aI1
aS'B'
p83
a(lp84
I758
aI763
aaI1
ag29
a(lp85
I760
aI760
aaI-1
aI1
ag69
a(lp86
I763
aI763
aaI-1
aI1
ag52
a(lp87
I761
aI761
aaI-1
aI1
aS'T'
p88
a(lp89
I762
aI762
aaI-1
aI1
aS'N'
p90
a(lp91
I759
aI759
aaI-2
aI2
aS'Group'
p92
aS'CS'
p93
a(lp94
I1147
aI1147
aaI-1
aI1
aS'I'
p95
a(lp96
I1148
aI1148
aaI-1
aI1
aS'S'
p97
a(lp98
I1149
aI1149
aaI-2
aI1
ag43
a(lp99
I769
aI1145
aaI2
aS'AA'
p100
aS'O'
p101
a(lp102
I770
aI774
aaI1
ag97
a(lp103
I774
aI774
aaI-1
aI1
aS'JS'
p104
a(lp105
I771
aI773
aaI1
aS'Filter'
p106
a(lp107
I772
aI772
aaI-1
aI1
aS'Length'
p108
a(lp109
I773
aI773
aaI-4
aI1
aS'ArtBox'
p110
a(lp111
I844
aI844
aaI-1
aI1
aS'BleedBox'
p112
a(lp113
I845
aI845
aaI-1
aI1
aS'Group'
p114
a(lp115
I850
aI857
aaI1
aS'CS'
p116
a(lp117
I851
aI854
aaI1
aS'Filter'
p118
a(lp119
I852
aI852
aaI-1
aI1
aS'Length'
p120
a(lp121
I853
aI853
aaI-1
aI1
ag90
a(lp122
I854
aI854
aaI-2
aI1
ag95
a(lp123
I855
aI855
aaI-1
aI1
ag97
a(lp124
I856
aI856
aaI-1
aI1
aS'Type'
p125
a(lp126
I857
aI857
aaI-2
aI1
aS'MediaBox'
p127
a(lp128
I861
aI861
aaI-1
aI1
aS'Tabs'
p129
a(lp130
I1133
aI1133
aaI-1
aI1
aS'LastModified'
p131
a(lp132
I859
aI859
aaI-1
aI1
aS'Resources'
p133
a(lp134
I862
aI1130
aaI1
aS'XObject'
p135
a(lp136
I1046
aI1130
aaI1
aS'Name'
p137
a(lp138
I1047
aI1130
aaI1
aS'Matrix'
p139
a(lp140
I1065
aI1065
aaI-1
aI1
aS'Decode'
p141
a(lp142
I1052
aI1052
aaI-1
aI1
aS'Width'
p143
a(lp144
I1128
aI1128
aaI-1
aI1
aS'ImageMask'
p145
a(lp146
I1062
aI1062
aaI-1
aI1
aS'BBox'
p147
a(lp148
I1048
aI1048
aaI-1
aI1
aS'Type'
p149
a(lp150
I1127
aI1127
aaI-1
aI1
aS'Resources'
p151
a(lp152
I1072
aI1107
aaI2
aS'ExtGState'
p153
aS'Name'
p154
a(lp155
I1078
aI1081
aaI1
aS'OPM'
p156
a(lp157
I1079
aI1079
aaI-1
aI1
aS'Type'
p158
a(lp159
I1081
aI1081
aaI-1
aI1
aS'SM'
p160
a(lp161
I1080
aI1080
aaI-3
aI2
aS'ColorSpace'
p162
aS'Name'
p163
a(lp164
I1073
aI1077
aaI1
aS'Filter'
p165
a(lp166
I1075
aI1075
aaI-1
aI1
aS'Length'
p167
a(lp168
I1076
aI1076
aaI-1
aI1
aS'Alternate'
p169
a(lp170
I1074
aI1074
aaI-1
aI1
ag90
a(lp171
I1077
aI1077
aaI-3
aI2
aS'Font'
p172
aS'Name'
p173
a(lp174
I1082
aI1106
aaI1
aS'Encoding'
p175
a(lp176
I1084
aI1084
aaI-1
aI1
aS'BaseFont'
p177
a(lp178
I1083
aI1083
aaI-1
aI1
aS'Type'
p179
a(lp180
I1105
aI1105
aaI-1
aI1
aS'Subtype'
p181
a(lp182
I1104
aI1104
aaI-1
aI1
aS'FontDescriptor'
p183
a(lp184
I1086
aI1102
aaI1
aS'FontFile2'
p185
a(lp186
I1092
aI1095
aaI1
aS'Filter'
p187
a(lp188
I1093
aI1093
aaI-1
aI1
aS'Length'
p189
a(lp190
I1094
aI1094
aaI-1
aI1
aS'Length1'
p191
a(lp192
I1095
aI1095
aaI-2
aI1
aS'FontName'
p193
a(lp194
I1096
aI1096
aaI-1
aI1
aS'Descent'
p195
a(lp196
I1089
aI1089
aaI-1
aI1
aS'FontBBox'
p197
a(lp198
I1091
aI1091
aaI-1
aI1
aS'CapHeight'
p199
a(lp200
I1088
aI1088
aaI-1
aI1
aS'Leading'
p201
a(lp202
I1098
aI1098
aaI-1
aI1
aS'MaxWidth'
p203
a(lp204
I1099
aI1099
aaI-1
aI1
aS'StemV'
p205
a(lp206
I1100
aI1100
aaI-1
aI1
aS'Type'
p207
a(lp208
I1101
aI1101
aaI-1
aI1
aS'Flags'
p209
a(lp210
I1090
aI1090
aaI-1
aI1
aS'XHeight'
p211
a(lp212
I1102
aI1102
aaI-1
aI1
aS'ItalicAngle'
p213
a(lp214
I1097
aI1097
aaI-1
aI1
aS'Ascent'
p215
a(lp216
I1087
aI1087
aaI-2
aI1
aS'Widths'
p217
a(lp218
I1106
aI1106
aaI-1
aI1
aS'LastChar'
p219
a(lp220
I1103
aI1103
aaI-1
aI1
aS'FirstChar'
p221
a(lp222
I1085
aI1085
aaI-3
aI1
aS'ProcSet'
p223
a(lp224
I1107
aI1107
aaI-2
aI1
aS'Metadata'
p225
a(lp226
I1066
aI1069
aaI1
aS'Subtype'
p227
a(lp228
I1068
aI1068
aaI-1
aI1
aS'Length'
p229
a(lp230
I1067
aI1067
aaI-1
aI1
aS'Type'
p231
a(lp232
I1069
aI1069
aaI-2
aI1
aS'ColorSpace'
p233
a(lp234
I1050
aI1051
aaI1
aS'Length'
p235
a(lp236
I1051
aI1051
aaI-2
aI1
aS'Intent'
p237
a(lp238
I1063
aI1063
aaI-1
aI1
aS'eCpyDPIX'
p239
a(lp240
I1129
aI1129
aaI-1
aI1
aS'eCpyDPIY'
p241
a(lp242
I1130
aI1130
aaI-1
aI1
aS'Name'
p243
a(lp244
I1070
aI1070
aaI-1
aI1
aS'Filter'
p245
a(lp246
I1059
aI1059
aaI-1
aI1
aS'Subtype'
p247
a(lp248
I1126
aI1126
aaI-1
aI1
aS'Length'
p249
a(lp250
I1064
aI1064
aaI-1
aI1
aS'FormType'
p251
a(lp252
I1060
aI1060
aaI-1
aI2
aS'DecodeParms'
p253
aS'Rows'
p254
a(lp255
I1058
aI1058
aaI-1
aI1
aS'K'
p256
a(lp257
I1057
aI1057
aaI-1
aI1
aS'BlackIs1'
p258
a(lp259
I1053
aI1053
aaI-1
aI1
aS'EncodedByteAlign'
p260
a(lp261
I1055
aI1055
aaI-1
aI1
aS'Columns'
p262
a(lp263
I1054
aI1054
aaI-1
aI1
aS'EndOfLine'
p264
a(lp265
I1056
aI1056
aaI-2
aI1
aS'SMask'
p266
a(lp267
I1108
aI1125
aaI2
aS'DecodeParms'
p268
aS'Colors'
p269
a(lp270
I1112
aI1112
aaI-1
aI1
aS'Columns'
p271
a(lp272
I1113
aI1113
aaI-1
aI1
aS'BitsPerComponent'
p273
a(lp274
I1111
aI1111
aaI-2
aI1
aS'Name'
p275
a(lp276
I1122
aI1122
aaI-1
aI1
aS'Width'
p277
a(lp278
I1125
aI1125
aaI-1
aI1
aS'ColorSpace'
p279
a(lp280
I1110
aI1110
aaI-1
aI1
aS'Height'
p281
a(lp282
I1115
aI1115
aaI-1
aI1
aS'Filter'
p283
a(lp284
I1114
aI1114
aaI-1
aI1
aS'Subtype'
p285
a(lp286
I1123
aI1123
aaI-1
aI1
aS'Length'
p287
a(lp288
I1117
aI1117
aaI-1
aI1
aS'Intent'
p289
a(lp290
I1116
aI1116
aaI-1
aI1
aS'Type'
p291
a(lp292
I1124
aI1124
aaI-1
aI1
aS'BitsPerComponent'
p293
a(lp294
I1109
aI1109
aaI-1
aI1
aS'Metadata'
p295
a(lp296
I1118
aI1121
aaI1
aS'Subtype'
p297
a(lp298
I1120
aI1120
aaI-1
aI1
aS'Length'
p299
a(lp300
I1119
aI1119
aaI-1
aI1
aS'Type'
p301
a(lp302
I1121
aI1121
aaI-3
aI1
aS'OC'
p303
a(lp304
I1071
aI1071
aaI-1
aI1
aS'Height'
p305
a(lp306
I1061
aI1061
aaI-1
aI1
aS'BitsPerComponent'
p307
a(lp308
I1049
aI1049
aaI-3
aI2
aS'ColorSpace'
p309
aS'Name'
p310
a(lp311
I863
aI877
aaI1
aS'BitsPerSample'
p312
a(lp313
I865
aI865
aaI-1
aI1
aS'Matrix'
p314
a(lp315
I873
aI873
aaI-1
aI1
aS'WhitePoint'
p316
a(lp317
I877
aI877
aaI-1
aI1
aS'Alternate'
p318
a(lp319
I864
aI864
aaI-1
aI1
aS'Domain'
p320
a(lp321
I868
aI868
aaI-1
aI1
ag90
a(lp322
I874
aI874
aaI-1
aI1
aS'Filter'
p323
a(lp324
I869
aI869
aaI-1
aI1
aS'Length'
p325
a(lp326
I872
aI872
aaI-1
aI1
aS'Range'
p327
a(lp328
I875
aI875
aaI-1
aI1
aS'C1'
p329
a(lp330
I867
aI867
aaI-1
aI1
aS'C0'
p331
a(lp332
I866
aI866
aaI-1
aI1
aS'FunctionType'
p333
a(lp334
I870
aI870
aaI-1
aI1
aS'Gamma'
p335
a(lp336
I871
aI871
aaI-1
aI1
aS'Size'
p337
a(lp338
I876
aI876
aaI-3
aI1
aS'ProcSet'
p339
a(lp340
I1015
aI1015
aaI-1
aI2
aS'ExtGState'
p341
aS'Name'
p342
a(lp343
I878
aI926
aaI1
aS'SMask'
p344
a(lp345
I919
aI919
aaI-1
aI1
aS'UCR2'
p346
a(lp347
I924
aI924
aaI-1
aI1
aS'BM'
p348
a(lp349
I881
aI881
aaI-1
aI1
aS'CA'
p350
a(lp351
I882
aI882
aaI-1
aI1
aS'TK'
p352
a(lp353
I920
aI920
aaI-1
aI1
aS'TR'
p354
a(lp355
I921
aI921
aaI-1
aI1
aS'HT'
p356
a(lp357
I883
aI914
aaI1
aS'Blue'
p358
a(lp359
I890
aI895
aaI1
aS'Type'
p360
a(lp361
I895
aI895
aaI-1
aI1
aS'SpotFunction'
p362
a(lp363
I894
aI894
aaI-1
aI1
aS'HalftoneType'
p364
a(lp365
I893
aI893
aaI-1
aI1
aS'Frequency'
p366
a(lp367
I892
aI892
aaI-1
aI1
aS'Angle'
p368
a(lp369
I891
aI891
aaI-2
aI1
aS'Gray'
p370
a(lp371
I903
aI903
aaI-1
aI1
aS'Green'
p372
a(lp373
I904
aI909
aaI1
aS'Type'
p374
a(lp375
I909
aI909
aaI-1
aI1
aS'SpotFunction'
p376
a(lp377
I908
aI908
aaI-1
aI1
aS'HalftoneType'
p378
a(lp379
I907
aI907
aaI-1
aI1
aS'Frequency'
p380
a(lp381
I906
aI906
aaI-1
aI1
aS'Angle'
p382
a(lp383
I905
aI905
aaI-2
aI1
aS'Default'
p384
a(lp385
I902
aI902
aaI-1
aI1
aS'Yellow'
p386
a(lp387
I914
aI914
aaI-1
aI1
aS'HalftoneType'
p388
a(lp389
I910
aI910
aaI-1
aI1
aS'Black'
p390
a(lp391
I884
aI889
aaI1
aS'Type'
p392
a(lp393
I889
aI889
aaI-1
aI1
aS'SpotFunction'
p394
a(lp395
I888
aI888
aaI-1
aI1
aS'HalftoneType'
p396
a(lp397
I887
aI887
aaI-1
aI1
aS'Frequency'
p398
a(lp399
I886
aI886
aaI-1
aI1
aS'Angle'
p400
a(lp401
I885
aI885
aaI-2
aI1
aS'Cyan'
p402
a(lp403
I896
aI901
aaI1
aS'Type'
p404
a(lp405
I901
aI901
aaI-1
aI1
aS'SpotFunction'
p406
a(lp407
I900
aI900
aaI-1
aI1
aS'HalftoneType'
p408
a(lp409
I899
aI899
aaI-1
aI1
aS'Frequency'
p410
a(lp411
I898
aI898
aaI-1
aI1
aS'Angle'
p412
a(lp413
I897
aI897
aaI-2
aI1
aS'Magenta'
p414
a(lp415
I911
aI911
aaI-1
aI1
aS'Type'
p416
a(lp417
I913
aI913
aaI-1
aI1
aS'Red'
p418
a(lp419
I912
aI912
aaI-2
aI1
aS'BG2'
p420
a(lp421
I880
aI880
aaI-1
aI1
aS'AIS'
p422
a(lp423
I879
aI879
aaI-1
aI1
aS'SM'
p424
a(lp425
I918
aI918
aaI-1
aI1
aS'op'
p426
a(lp427
I926
aI926
aaI-1
aI1
aS'OPM'
p428
a(lp429
I916
aI916
aaI-1
aI1
aS'SA'
p430
a(lp431
I917
aI917
aaI-1
aI1
aS'TR2'
p432
a(lp433
I922
aI922
aaI-1
aI1
aS'Type'
p434
a(lp435
I923
aI923
aaI-1
aI1
aS'ca'
p436
a(lp437
I925
aI925
aaI-1
aI1
aS'OP'
p438
a(lp439
I915
aI915
aaI-3
aI2
aS'Shading'
p440
aS'Name'
p441
a(lp442
I1023
aI1045
aaI1
aS'Function'
p443
a(lp444
I1029
aI1044
aaI1
aS'Encode'
p445
a(lp446
I1032
aI1032
aaI-1
aI1
aS'Domain'
p447
a(lp448
I1031
aI1031
aaI-1
aI1
aS'FunctionType'
p449
a(lp450
I1033
aI1033
aaI-1
aI1
aS'Bounds'
p451
a(lp452
I1030
aI1030
aaI-1
aI1
aS'Functions'
p453
a(lp454
I1034
aI1044
aaI1
aS'Filter'
p455
a(lp456
I1039
aI1039
aaI-1
aI1
aS'BitsPerSample'
p457
a(lp458
I1035
aI1035
aaI-1
aI1
aS'Domain'
p459
a(lp460
I1037
aI1037
aaI-1
aI1
aS'Decode'
p461
a(lp462
I1036
aI1036
aaI-1
aI1
aS'Length'
p463
a(lp464
I1041
aI1041
aaI-1
aI1
aS'Encode'
p465
a(lp466
I1038
aI1038
aaI-1
aI1
aS'Range'
p467
a(lp468
I1043
aI1043
aaI-1
aI1
aS'FunctionType'
p469
a(lp470
I1040
aI1040
aaI-1
aI1
aS'Order'
p471
a(lp472
I1042
aI1042
aaI-1
aI1
aS'Size'
p473
a(lp474
I1044
aI1044
aaI-3
aI1
aS'Domain'
p475
a(lp476
I1027
aI1027
aaI-1
aI1
aS'Extend'
p477
a(lp478
I1028
aI1028
aaI-1
aI1
aS'ColorSpace'
p479
a(lp480
I1025
aI1025
aaI-1
aI1
aS'AntiAlias'
p481
a(lp482
I1024
aI1024
aaI-1
aI1
aS'Coords'
p483
a(lp484
I1026
aI1026
aaI-1
aI1
aS'ShadingType'
p485
a(lp486
I1045
aI1045
aaI-3
aI1
aS'Font'
p487
a(lp488
I927
aI1014
aaI1
aS'Name'
p489
a(lp490
I928
aI1014
aaI1
aS'Name'
p491
a(lp492
I1008
aI1008
aaI-1
aI1
aS'Encoding'
p493
a(lp494
I967
aI970
aaI1
aS'Type'
p495
a(lp496
I970
aI970
aaI-1
aI1
aS'Differences'
p497
a(lp498
I969
aI969
aaI-1
aI1
aS'BaseEncoding'
p499
a(lp500
I968
aI968
aaI-2
aI1
aS'BaseFont'
p501
a(lp502
I929
aI929
aaI-1
aI1
aS'Type'
p503
a(lp504
I1013
aI1013
aaI-1
aI1
aS'DescendantFonts'
p505
a(lp506
I930
aI966
aaI1
aS'DW2'
p507
a(lp508
I938
aI938
aaI-1
aI1
aS'CIDToGIDMap'
p509
a(lp510
I936
aI936
aaI-1
aI1
ag59
a(lp511
I966
aI966
aaI-1
aI1
aS'BaseFont'
p512
a(lp513
I931
aI931
aaI-1
aI1
aS'CIDSystemInfo'
p514
a(lp515
I932
aI935
aaI1
aS'Ordering'
p516
a(lp517
I933
aI933
aaI-1
aI1
aS'Supplement'
p518
a(lp519
I935
aI935
aaI-1
aI1
aS'Registry'
p520
a(lp521
I934
aI934
aaI-2
aI1
aS'Subtype'
p522
a(lp523
I964
aI964
aaI-1
aI1
aS'FontDescriptor'
p524
a(lp525
I939
aI963
aaI1
aS'FontFile2'
p526
a(lp527
I949
aI952
aaI1
aS'Filter'
p528
a(lp529
I950
aI950
aaI-1
aI1
aS'Length'
p530
a(lp531
I951
aI951
aaI-1
aI1
aS'Length1'
p532
a(lp533
I952
aI952
aaI-2
aI1
aS'FontFile3'
p534
a(lp535
I953
aI956
aaI1
aS'Filter'
p536
a(lp537
I954
aI954
aaI-1
aI1
aS'Subtype'
p538
a(lp539
I956
aI956
aaI-1
aI1
aS'Length'
p540
a(lp541
I955
aI955
aaI-2
aI1
aS'FontName'
p542
a(lp543
I957
aI957
aaI-1
aI1
aS'Descent'
p544
a(lp545
I945
aI945
aaI-1
aI1
aS'FontBBox'
p546
a(lp547
I947
aI947
aaI-1
aI1
aS'FontWeight'
p548
a(lp549
I959
aI959
aaI-1
aI1
aS'CapHeight'
p550
a(lp551
I944
aI944
aaI-1
aI1
aS'Type'
p552
a(lp553
I962
aI962
aaI-1
aI1
aS'FontFamily'
p554
a(lp555
I948
aI948
aaI-1
aI1
aS'StemV'
p556
a(lp557
I961
aI961
aaI-1
aI1
aS'Flags'
p558
a(lp559
I946
aI946
aaI-1
aI1
aS'XHeight'
p560
a(lp561
I963
aI963
aaI-1
aI1
aS'CIDSet'
p562
a(lp563
I941
aI943
aaI1
aS'Filter'
p564
a(lp565
I942
aI942
aaI-1
aI1
aS'Length'
p566
a(lp567
I943
aI943
aaI-2
aI1
aS'ItalicAngle'
p568
a(lp569
I960
aI960
aaI-1
aI1
aS'Ascent'
p570
a(lp571
I940
aI940
aaI-1
aI1
aS'FontStretch'
p572
a(lp573
I958
aI958
aaI-2
aI1
aS'DW'
p574
a(lp575
I937
aI937
aaI-1
aI1
aS'Type'
p576
a(lp577
I965
aI965
aaI-2
aI1
aS'Subtype'
p578
a(lp579
I1009
aI1009
aaI-1
aI1
aS'ToUnicode'
p580
a(lp581
I1010
aI1012
aaI1
aS'Filter'
p582
a(lp583
I1011
aI1011
aaI-1
aI1
aS'Length'
p584
a(lp585
I1012
aI1012
aaI-2
aI1
aS'FontDescriptor'
p586
a(lp587
I972
aI1006
aaI1
aS'Descent'
p588
a(lp589
I977
aI977
aaI-1
aI1
aS'FontBBox'
p590
a(lp591
I979
aI979
aaI-1
aI1
aS'Leading'
p592
a(lp593
I1000
aI1000
aaI-1
aI1
aS'StemH'
p594
a(lp595
I1003
aI1003
aaI-1
aI1
aS'StemV'
p596
a(lp597
I1004
aI1004
aaI-1
aI1
aS'AvgWidth'
p598
a(lp599
I974
aI974
aaI-1
aI1
aS'XHeight'
p600
a(lp601
I1006
aI1006
aaI-1
aI1
aS'Type'
p602
a(lp603
I1005
aI1005
aaI-1
aI1
aS'FontStretch'
p604
a(lp605
I997
aI997
aaI-1
aI1
aS'FontFile2'
p606
a(lp607
I987
aI990
aaI1
aS'Filter'
p608
a(lp609
I988
aI988
aaI-1
aI1
aS'Length'
p610
a(lp611
I989
aI989
aaI-1
aI1
aS'Length1'
p612
a(lp613
I990
aI990
aaI-2
aI1
aS'FontFile3'
p614
a(lp615
I991
aI995
aaI1
aS'Filter'
p616
a(lp617
I992
aI992
aaI-1
aI1
aS'Subtype'
p618
a(lp619
I995
aI995
aaI-1
aI1
aS'Length'
p620
a(lp621
I993
aI993
aaI-1
aI1
aS'Length1'
p622
a(lp623
I994
aI994
aaI-2
aI1
aS'FontName'
p624
a(lp625
I996
aI996
aaI-1
aI1
aS'MaxWidth'
p626
a(lp627
I1001
aI1001
aaI-1
aI1
aS'CapHeight'
p628
a(lp629
I975
aI975
aaI-1
aI1
aS'FontFamily'
p630
a(lp631
I980
aI980
aaI-1
aI1
aS'ItalicAngle'
p632
a(lp633
I999
aI999
aaI-1
aI1
aS'FontFile'
p634
a(lp635
I981
aI986
aaI1
aS'Filter'
p636
a(lp637
I982
aI982
aaI-1
aI1
aS'Length2'
p638
a(lp639
I985
aI985
aaI-1
aI1
aS'Length'
p640
a(lp641
I983
aI983
aaI-1
aI1
aS'Length3'
p642
a(lp643
I986
aI986
aaI-1
aI1
aS'Length1'
p644
a(lp645
I984
aI984
aaI-2
aI1
aS'Flags'
p646
a(lp647
I978
aI978
aaI-1
aI1
aS'CharSet'
p648
a(lp649
I976
aI976
aaI-1
aI1
aS'FontWeight'
p650
a(lp651
I998
aI998
aaI-1
aI1
aS'MissingWidth'
p652
a(lp653
I1002
aI1002
aaI-1
aI1
aS'Ascent'
p654
a(lp655
I973
aI973
aaI-2
aI1
aS'Widths'
p656
a(lp657
I1014
aI1014
aaI-1
aI1
aS'LastChar'
p658
a(lp659
I1007
aI1007
aaI-1
aI1
aS'FirstChar'
p660
a(lp661
I971
aI971
aaI-3
aI2
aS'Properties'
p662
aS'Name'
p663
a(lp664
I1016
aI1022
aaI1
aS'OCGs'
p665
a(lp666
I1021
aI1021
aaI-1
aI1
aS'Type'
p667
a(lp668
I1022
aI1022
aaI-1
aI1
aS'Metadata'
p669
a(lp670
I1017
aI1020
aaI1
aS'Subtype'
p671
a(lp672
I1019
aI1019
aaI-1
aI1
aS'Length'
p673
a(lp674
I1018
aI1018
aaI-1
aI1
aS'Type'
p675
a(lp676
I1020
aI1020
aaI-5
aI1
aS'StructParents'
p677
a(lp678
I1132
aI1132
aaI-1
aI1
aS'Annots'
p679
a(lp680
I775
aI843
aaI2
aS'AA'
p681
aS'F'
p682
a(lp683
I804
aI806
aaI1
ag97
a(lp684
I806
aI806
aaI-1
aI1
aS'JS'
p685
a(lp686
I805
aI805
aaI-3
aI1
aS'FT'
p687
a(lp688
I824
aI824
aaI-1
aI1
aS'C'
p689
a(lp690
I818
aI818
aaI-1
aI1
aS'Subtype'
p691
a(lp692
I841
aI841
aaI-1
aI1
aS'DA'
p693
a(lp694
I821
aI821
aaI-1
aI2
aS'BS'
p695
ag97
a(lp696
I814
aI814
aaI-1
aI1
aS'Type'
p697
a(lp698
I815
aI815
aaI-1
aI1
ag59
a(lp699
I816
aI816
aaI-2
aI1
aS'Type'
p700
a(lp701
I843
aI843
aaI-1
aI1
aS'Popup'
p702
a(lp703
I834
aI834
aaI-1
aI1
aS'NM'
p704
a(lp705
I831
aI831
aaI-1
aI1
aS'Dest'
p706
a(lp707
I822
aI822
aaI-1
aI1
aS'RD'
p708
a(lp709
I836
aI836
aaI-1
aI1
aS'Ff'
p710
a(lp711
I825
aI825
aaI-1
aI1
aS'Rect'
p712
a(lp713
I837
aI837
aaI-1
aI1
aS'StructParent'
p714
a(lp715
I839
aI839
aaI-1
aI1
ag33
a(lp716
I799
aI803
aaI1
ag97
a(lp717
I801
aI801
aaI-1
aI1
aS'Type'
p718
a(lp719
I802
aI802
aaI-1
aI1
ag43
a(lp720
I800
aI800
aaI-1
aI1
aS'URI'
p721
a(lp722
I803
aI803
aaI-2
aI1
aS'3DV'
p723
a(lp724
I789
aI798
aaI1
aS'XN'
p725
a(lp726
I798
aI798
aaI-1
aI1
aS'C2W'
p727
a(lp728
I790
aI790
aaI-1
aI1
ag29
a(lp729
I794
aI797
aaI1
aS'PS'
p730
a(lp731
I796
aI796
aaI-1
aI1
aS'FOV'
p732
a(lp733
I795
aI795
aaI-1
aI1
aS'Subtype'
p734
a(lp735
I797
aI797
aaI-2
aI2
aS'LS'
p736
aS'Subtype'
p737
a(lp738
I792
aI792
aaI-2
aI1
aS'MS'
p739
a(lp740
I793
aI793
aaI-1
aI1
aS'CO'
p741
a(lp742
I791
aI791
aaI-2
aI1
aS'Rotate'
p743
a(lp744
I838
aI838
aaI-1
aI1
ag682
a(lp745
I823
aI823
aaI-1
aI1
aS'H'
p746
a(lp747
I826
aI826
aaI-1
aI1
aS'M'
p748
a(lp749
I828
aI828
aaI-1
aI1
aS'3DD'
p750
a(lp751
I781
aI788
aaI1
aS'VA'
p752
a(lp753
I788
aI788
aaI-1
aI2
aS'AN'
p754
aS'PC'
p755
a(lp756
I782
aI782
aaI-1
aI1
aS'Subtype'
p757
a(lp758
I783
aI783
aaI-2
aI1
aS'Filter'
p759
a(lp760
I785
aI785
aaI-1
aI1
aS'Subtype'
p761
a(lp762
I787
aI787
aaI-1
aI1
aS'Length'
p763
a(lp764
I786
aI786
aaI-1
aI1
aS'DV'
p765
a(lp766
I784
aI784
aaI-2
aI2
aS'AP'
p767
ag90
a(lp768
I807
aI813
aaI1
aS'Name'
p769
a(lp770
I808
aI813
aaI3
aS'ExtGState'
p771
aS'Name'
p772
aS'CA'
p773
a(lp774
I810
aI810
aaI-1
aI1
aS'Type'
p775
a(lp776
I811
aI811
aaI-1
aI1
aS'ca'
p777
a(lp778
I812
aI812
aaI-1
aI1
aS'AIS'
p779
a(lp780
I809
aI809
aaI-3
aI1
aS'ProcSet'
p781
a(lp782
I813
aI813
aaI-4
aI2
aS'3DA'
p783
ag33
a(lp784
I776
aI776
aaI-1
aI1
aS'TB'
p785
a(lp786
I780
aI780
aaI-1
aI1
ag43
a(lp787
I778
aI778
aaI-1
aI1
aS'AIS'
p788
a(lp789
I777
aI777
aaI-1
aI1
aS'DIS'
p790
a(lp791
I779
aI779
aaI-2
aI1
aS'Subj'
p792
a(lp793
I840
aI840
aaI-1
aI1
aS'IC'
p794
a(lp795
I827
aI827
aaI-1
aI1
aS'Q'
p796
a(lp797
I835
aI835
aaI-1
aI1
ag29
a(lp798
I833
aI833
aaI-1
aI1
aS'Open'
p799
a(lp800
I832
aI832
aaI-1
aI1
aS'MK'
p801
a(lp802
I829
aI829
aaI-1
aI1
aS'MaxLen'
p803
a(lp804
I830
aI830
aaI-1
aI1
aS'CreationDate'
p805
a(lp806
I820
aI820
aaI-1
aI1
aS'Border'
p807
a(lp808
I817
aI817
aaI-1
aI1
aS'Contents'
p809
a(lp810
I819
aI819
aaI-1
aI1
ag88
a(lp811
I842
aI842
aaI-2
aI1
aS'CropBox'
p812
a(lp813
I849
aI849
aaI-1
aI1
aS'TrimBox'
p814
a(lp815
I1134
aI1134
aaI-1
aI1
aS'eCpyResolution'
p816
a(lp817
I1145
aI1145
aaI-1
aI1
aS'Rotate'
p818
a(lp819
I1131
aI1131
aaI-1
aI2
aS'VP'
p820
aS'BBox'
p821
a(lp822
I1136
aI1136
aaI-1
aI3
aS'Measure'
p823
ag33
ag689
a(lp824
I1137
aI1137
aaI-1
aI1
aS'U'
p825
a(lp826
I1138
aI1138
aaI-2
aI1
aS'Subtype'
p827
a(lp828
I1142
aI1142
aaI-1
aI1
ag52
a(lp829
I1141
aI1141
aaI-1
aI2
ag43
ag689
a(lp830
I1139
aI1139
aaI-1
aI1
ag825
a(lp831
I1140
aI1140
aaI-2
aI2
aS'X'
p832
ag689
a(lp833
I1143
aI1143
aaI-1
aI1
ag825
a(lp834
I1144
aI1144
aaI-4
aI1
aS'Marked'
p835
a(lp836
I860
aI860
aaI-1
aI1
aS'Type'
p837
a(lp838
I1135
aI1135
aaI-1
aI1
aS'ID'
p839
a(lp840
I858
aI858
aaI-1
aI1
aS'Contents'
p841
a(lp842
I846
aI848
aaI1
aS'Filter'
p843
a(lp844
I847
aI847
aaI-1
aI1
aS'Length'
p845
a(lp846
I848
aI848
aaI-3
aI1
aS'MediaBox'
p847
a(lp848
I1153
aI1153
aaI-1
aI1
aS'Tabs'
p849
a(lp850
I1259
aI1259
aaI-1
aI1
aS'Typp'
p851
a(lp852
I1261
aI1261
aaI-1
aI1
aS'Dssd'
p853
a(lp854
I1146
aI1146
aaI-1
aI1
aS'StructParents'
p855
a(lp856
I1258
aI1258
aaI-1
aI1
aS'Annots'
p857
a(lp858
I674
aI757
aaI1
aS'AA'
p859
a(lp860
I692
aI697
aaI1
aS'PV'
p861
a(lp862
I693
aI697
aaI1
ag97
a(lp863
I696
aI696
aaI-1
aI1
aS'NewWindow'
p864
a(lp865
I695
aI695
aaI-1
aI1
aS'Type'
p866
a(lp867
I697
aI697
aaI-1
aI2
ag682
ag682
a(lp868
I694
aI694
aaI-4
aI2
aS'BE'
p869
ag97
a(lp870
I708
aI708
aaI-2
aI1
aS'Subtype'
p871
a(lp872
I755
aI755
aaI-1
aI1
aS'DA'
p873
a(lp874
I716
aI716
aaI-1
aI1
aS'State'
p875
a(lp876
I751
aI751
aaI-1
aI1
aS'StateModel'
p877
a(lp878
I752
aI752
aaI-1
aI2
aS'BS'
p879
ag97
a(lp880
I710
aI710
aaI-1
aI1
ag59
a(lp881
I711
aI711
aaI-2
aI1
aS'Type'
p882
a(lp883
I757
aI757
aaI-1
aI1
aS'FN'
p884
a(lp885
I719
aI719
aaI-1
aI1
aS'Popup'
p886
a(lp887
I748
aI748
aaI-1
aI1
aS'NM'
p888
a(lp889
I744
aI744
aaI-1
aI1
aS'BKC'
p890
a(lp891
I709
aI709
aaI-1
aI1
aS'Dest'
p892
a(lp893
I717
aI717
aaI-1
aI1
aS'Rect'
p894
a(lp895
I750
aI750
aaI-1
aI1
aS'StructParent'
p896
a(lp897
I753
aI753
aaI-1
aI1
ag33
a(lp898
I675
aI691
aaI1
aS'URI'
p899
a(lp900
I691
aI691
aaI-1
aI1
aS'AN'
p901
a(lp902
I676
aI676
aaI-1
aI1
ag97
a(lp903
I689
aI689
aaI-1
aI1
ag52
a(lp904
I678
aI688
aaI1
ag689
a(lp905
I679
aI686
aaI2
ag29
aS'TF'
p906
a(lp907
I685
aI685
aaI-2
aI1
ag97
a(lp908
I686
aI686
aaI-1
aI1
ag43
a(lp909
I681
aI684
aaI1
aS'FS'
p910
a(lp911
I683
aI683
aaI-1
aI1
aS'Type'
p912
a(lp913
I684
aI684
aaI-1
aI1
ag682
a(lp914
I682
aI682
aaI-2
aI1
aS'CT'
p915
a(lp916
I680
aI680
aaI-2
aI1
ag97
a(lp917
I688
aI688
aaI-1
aI1
ag90
a(lp918
I687
aI687
aaI-2
aI1
aS'Type'
p919
a(lp920
I690
aI690
aaI-1
aI1
aS'OP'
p921
a(lp922
I677
aI677
aaI-2
aI1
ag689
a(lp923
I713
aI713
aaI-1
aI1
aS'Name'
p924
a(lp925
I745
aI745
aaI-1
aI1
ag682
a(lp926
I718
aI718
aaI-1
aI1
ag746
a(lp927
I735
aI735
aaI-1
aI1
ag748
a(lp928
I737
aI737
aaI-1
aI1
aS'IT'
p929
a(lp930
I736
aI736
aaI-1
aI1
aS'FoxitTag'
p931
a(lp932
I720
aI734
aaI1
aS'FontName'
p933
a(lp934
I724
aI724
aaI-1
aI1
aS'TextMatrix'
p935
a(lp936
I733
aI733
aaI-1
aI1
aS'License'
p937
a(lp938
I727
aI727
aaI-1
aI1
aS'BoxWidth'
p939
a(lp940
I721
aI721
aaI-1
aI1
aS'HorzScale'
p941
a(lp942
I726
aI726
aaI-1
aI1
aS'OriginY'
p943
a(lp944
I731
aI731
aaI-1
aI1
aS'OriginX'
p945
a(lp946
I730
aI730
aaI-1
aI1
aS'LineFeed'
p947
a(lp948
I728
aI728
aaI-1
aI1
aS'CharSpace'
p949
a(lp950
I723
aI723
aaI-1
aI1
aS'FontSize'
p951
a(lp952
I725
aI725
aaI-1
aI1
aS'MenderFlag'
p953
a(lp954
I729
aI729
aaI-1
aI1
aS'Text'
p955
a(lp956
I732
aI732
aaI-1
aI1
aS'CharColor'
p957
a(lp958
I722
aI722
aaI-1
aI1
aS'bChangeBox'
p959
a(lp960
I734
aI734
aaI-2
aI1
aS'AP'
p961
a(lp962
I698
aI707
aaI1
ag90
a(lp963
I699
aI707
aaI1
aS'Name'
p964
a(lp965
I700
aI707
aaI2
aS'ExtGState'
p966
aS'Name'
p967
a(lp968
I701
aI705
aaI1
aS'CA'
p969
a(lp970
I703
aI703
aaI-1
aI1
aS'Type'
p971
a(lp972
I704
aI704
aaI-1
aI1
aS'ca'
p973
a(lp974
I705
aI705
aaI-1
aI1
aS'AIS'
p975
a(lp976
I702
aI702
aaI-3
aI1
aS'Font'
p977
a(lp978
I706
aI707
aaI1
aS'Name'
p979
a(lp980
I707
aI707
aaI-5
aI1
ag88
a(lp981
I756
aI756
aaI-1
aI1
aS'Subj'
p982
a(lp983
I754
aI754
aaI-1
aI1
ag796
a(lp984
I749
aI749
aaI-1
aI1
ag29
a(lp985
I747
aI747
aaI-1
aI1
aS'Border'
p986
a(lp987
I712
aI712
aaI-1
aI2
aS'MK'
p988
ag52
a(lp989
I743
aI743
aaI-1
aI2
aS'IF'
p990
ag33
a(lp991
I739
aI739
aaI-1
aI1
aS'FB'
p992
a(lp993
I740
aI740
aaI-1
aI1
aS'SW'
p994
a(lp995
I742
aI742
aaI-1
aI1
ag97
a(lp996
I741
aI741
aaI-2
aI1
aS'BC'
p997
a(lp998
I738
aI738
aaI-2
aI1
aS'CreationDate'
p999
a(lp1000
I715
aI715
aaI-1
aI1
aS'Open'
p1001
a(lp1002
I746
aI746
aaI-1
aI1
aS'Contents'
p1003
a(lp1004
I714
aI714
aaI-2
aI1
aS'CropBox'
p1005
a(lp1006
I768
aI768
aaI-1
aI1
aS'JS'
p1007
a(lp1008
I1150
aI1152
aaI1
aS'Filter'
p1009
a(lp1010
I1151
aI1151
aaI-1
aI1
aS'Length'
p1011
a(lp1012
I1152
aI1152
aaI-2
aI1
ag97
a(lp1013
I1257
aI1257
aaI-1
aI1
aS'Rotate'
p1014
a(lp1015
I1256
aI1256
aaI-1
aI1
aS'Resources'
p1016
a(lp1017
I1154
aI1255
aaI1
aS'XObject'
p1018
a(lp1019
I1243
aI1255
aaI1
aS'Name'
p1020
a(lp1021
I1244
aI1255
aaI2
aS'DecodeParms'
p1022
ag256
a(lp1023
I1248
aI1248
aaI-1
aI1
aS'Columns'
p1024
a(lp1025
I1247
aI1247
aaI-2
aI1
aS'Width'
p1026
a(lp1027
I1255
aI1255
aaI-1
aI1
aS'ColorSpace'
p1028
a(lp1029
I1246
aI1246
aaI-1
aI1
aS'Length'
p1030
a(lp1031
I1252
aI1252
aaI-1
aI1
aS'Height'
p1032
a(lp1033
I1250
aI1250
aaI-1
aI1
aS'Filter'
p1034
a(lp1035
I1249
aI1249
aaI-1
aI1
aS'Subtype'
p1036
a(lp1037
I1253
aI1253
aaI-1
aI1
aS'ImageMask'
p1038
a(lp1039
I1251
aI1251
aaI-1
aI1
aS'Type'
p1040
a(lp1041
I1254
aI1254
aaI-1
aI1
aS'BitsPerComponent'
p1042
a(lp1043
I1245
aI1245
aaI-3
aI2
aS'ColorSpace'
p1044
aS'Name'
p1045
a(lp1046
I1155
aI1162
aaI1
aS'Matrix'
p1047
a(lp1048
I1160
aI1160
aaI-1
aI1
aS'WhitePoint'
p1049
a(lp1050
I1162
aI1162
aaI-1
aI1
aS'Alternate'
p1051
a(lp1052
I1156
aI1156
aaI-1
aI1
ag90
a(lp1053
I1161
aI1161
aaI-1
aI1
aS'Filter'
p1054
a(lp1055
I1157
aI1157
aaI-1
aI1
aS'Length'
p1056
a(lp1057
I1159
aI1159
aaI-1
aI1
aS'Gamma'
p1058
a(lp1059
I1158
aI1158
aaI-3
aI1
aS'ProcSet'
p1060
a(lp1061
I1241
aI1241
aaI-1
aI1
aS'ExtGState'
p1062
a(lp1063
I1163
aI1181
aaI1
aS'Name'
p1064
a(lp1065
I1164
aI1181
aaI1
aS'SMask'
p1066
a(lp1067
I1174
aI1174
aaI-1
aI1
aS'UCR2'
p1068
a(lp1069
I1179
aI1179
aaI-1
aI1
aS'BM'
p1070
a(lp1071
I1167
aI1167
aaI-1
aI1
aS'CA'
p1072
a(lp1073
I1168
aI1168
aaI-1
aI1
aS'TK'
p1074
a(lp1075
I1175
aI1175
aaI-1
aI1
aS'TR'
p1076
a(lp1077
I1176
aI1176
aaI-1
aI1
aS'HT'
p1078
a(lp1079
I1169
aI1169
aaI-1
aI1
aS'BG2'
p1080
a(lp1081
I1166
aI1166
aaI-1
aI1
aS'AIS'
p1082
a(lp1083
I1165
aI1165
aaI-1
aI1
aS'SM'
p1084
a(lp1085
I1173
aI1173
aaI-1
aI1
aS'op'
p1086
a(lp1087
I1181
aI1181
aaI-1
aI1
aS'OPM'
p1088
a(lp1089
I1171
aI1171
aaI-1
aI1
aS'SA'
p1090
a(lp1091
I1172
aI1172
aaI-1
aI1
aS'TR2'
p1092
a(lp1093
I1177
aI1177
aaI-1
aI1
aS'Type'
p1094
a(lp1095
I1178
aI1178
aaI-1
aI1
aS'ca'
p1096
a(lp1097
I1180
aI1180
aaI-1
aI1
aS'OP'
p1098
a(lp1099
I1170
aI1170
aaI-3
aI1
aS'Font'
p1100
a(lp1101
I1182
aI1240
aaI1
aS'Name'
p1102
a(lp1103
I1183
aI1240
aaI1
aS'Name'
p1104
a(lp1105
I1234
aI1234
aaI-1
aI1
aS'Encoding'
p1106
a(lp1107
I1208
aI1211
aaI1
aS'Type'
p1108
a(lp1109
I1211
aI1211
aaI-1
aI1
aS'Differences'
p1110
a(lp1111
I1210
aI1210
aaI-1
aI1
aS'BaseEncoding'
p1112
a(lp1113
I1209
aI1209
aaI-2
aI1
aS'BaseFont'
p1114
a(lp1115
I1184
aI1184
aaI-1
aI1
aS'Type'
p1116
a(lp1117
I1239
aI1239
aaI-1
aI1
aS'DescendantFonts'
p1118
a(lp1119
I1185
aI1207
aaI1
ag59
a(lp1120
I1207
aI1207
aaI-1
aI1
aS'BaseFont'
p1121
a(lp1122
I1186
aI1186
aaI-1
aI2
aS'CIDSystemInfo'
p1123
aS'Ordering'
p1124
a(lp1125
I1187
aI1187
aaI-1
aI1
aS'Supplement'
p1126
a(lp1127
I1189
aI1189
aaI-1
aI1
aS'Registry'
p1128
a(lp1129
I1188
aI1188
aaI-2
aI1
aS'Subtype'
p1130
a(lp1131
I1205
aI1205
aaI-1
aI1
aS'FontDescriptor'
p1132
a(lp1133
I1191
aI1204
aaI1
aS'FontFile2'
p1134
a(lp1135
I1197
aI1200
aaI1
aS'Filter'
p1136
a(lp1137
I1198
aI1198
aaI-1
aI1
aS'Length'
p1138
a(lp1139
I1199
aI1199
aaI-1
aI1
aS'Length1'
p1140
a(lp1141
I1200
aI1200
aaI-2
aI1
aS'FontName'
p1142
a(lp1143
I1201
aI1201
aaI-1
aI1
aS'Descent'
p1144
a(lp1145
I1194
aI1194
aaI-1
aI1
aS'FontBBox'
p1146
a(lp1147
I1196
aI1196
aaI-1
aI1
aS'CapHeight'
p1148
a(lp1149
I1193
aI1193
aaI-1
aI1
aS'Type'
p1150
a(lp1151
I1204
aI1204
aaI-1
aI1
aS'StemV'
p1152
a(lp1153
I1203
aI1203
aaI-1
aI1
aS'Flags'
p1154
a(lp1155
I1195
aI1195
aaI-1
aI1
aS'ItalicAngle'
p1156
a(lp1157
I1202
aI1202
aaI-1
aI1
aS'Ascent'
p1158
a(lp1159
I1192
aI1192
aaI-2
aI1
aS'DW'
p1160
a(lp1161
I1190
aI1190
aaI-1
aI1
aS'Type'
p1162
a(lp1163
I1206
aI1206
aaI-2
aI1
aS'Subtype'
p1164
a(lp1165
I1235
aI1235
aaI-1
aI1
aS'ToUnicode'
p1166
a(lp1167
I1236
aI1238
aaI1
aS'Filter'
p1168
a(lp1169
I1237
aI1237
aaI-1
aI1
aS'Length'
p1170
a(lp1171
I1238
aI1238
aaI-2
aI1
aS'FontDescriptor'
p1172
a(lp1173
I1213
aI1232
aaI1
aS'FontFile2'
p1174
a(lp1175
I1220
aI1223
aaI1
aS'Filter'
p1176
a(lp1177
I1221
aI1221
aaI-1
aI1
aS'Length'
p1178
a(lp1179
I1222
aI1222
aaI-1
aI1
aS'Length1'
p1180
a(lp1181
I1223
aI1223
aaI-2
aI1
aS'FontFile3'
p1182
a(lp1183
I1224
aI1227
aaI1
aS'Filter'
p1184
a(lp1185
I1225
aI1225
aaI-1
aI1
aS'Subtype'
p1186
a(lp1187
I1227
aI1227
aaI-1
aI1
aS'Length'
p1188
a(lp1189
I1226
aI1226
aaI-2
aI1
aS'FontName'
p1190
a(lp1191
I1228
aI1228
aaI-1
aI1
aS'Descent'
p1192
a(lp1193
I1217
aI1217
aaI-1
aI1
aS'FontBBox'
p1194
a(lp1195
I1219
aI1219
aaI-1
aI1
aS'CapHeight'
p1196
a(lp1197
I1215
aI1215
aaI-1
aI1
aS'Type'
p1198
a(lp1199
I1231
aI1231
aaI-1
aI1
aS'CharSet'
p1200
a(lp1201
I1216
aI1216
aaI-1
aI1
aS'StemV'
p1202
a(lp1203
I1230
aI1230
aaI-1
aI1
aS'Flags'
p1204
a(lp1205
I1218
aI1218
aaI-1
aI1
aS'XHeight'
p1206
a(lp1207
I1232
aI1232
aaI-1
aI1
aS'ItalicAngle'
p1208
a(lp1209
I1229
aI1229
aaI-1
aI1
aS'Ascent'
p1210
a(lp1211
I1214
aI1214
aaI-2
aI1
aS'Widths'
p1212
a(lp1213
I1240
aI1240
aaI-1
aI1
aS'LastChar'
p1214
a(lp1215
I1233
aI1233
aaI-1
aI1
aS'FirstChar'
p1216
a(lp1217
I1212
aI1212
aaI-3
aI2
aS'Properties'
p1218
aS'Name'
p1219
a(lp1220
I1242
aI1242
aaI-3
aI2
aS'Win'
p1221
ag29
a(lp1222
I1263
aI1263
aaI-1
aI1
ag682
a(lp1223
I1262
aI1262
aaI-2
aI1
aS'<nn>'
p1224
a(lp1225
I673
aI673
aaI-1
aI1
aS'Type'
p1226
a(lp1227
I1260
aI1260
aaI-1
aI1
aS'Contents'
p1228
a(lp1229
I764
aI766
aaI1
aS'Filter'
p1230
a(lp1231
I765
aI765
aaI-1
aI1
aS'Length'
p1232
a(lp1233
I766
aI766
aaI-3
aI1
aS'Version'
p1234
a(lp1235
I3495
aI3495
aaI-1
aI1
aS'<nn>'
p1236
a(lp1237
I1
aI1
aaI-1
aI1
aS'AcroForm'
p1238
a(lp1239
I3
aI451
aaI1
aS'NeedAppearances'
p1240
a(lp1241
I444
aI444
aaI-1
aI1
aS'CO'
p1242
a(lp1243
I4
aI37
aaI2
aS'AA'
p1244
ag689
a(lp1245
I5
aI9
aaI1
ag97
a(lp1246
I9
aI9
aaI-1
aI1
aS'JS'
p1247
a(lp1248
I6
aI8
aaI1
aS'Filter'
p1249
a(lp1250
I7
aI7
aaI-1
aI1
aS'Length'
p1251
a(lp1252
I8
aI8
aaI-3
aI1
ag69
a(lp1253
I16
aI18
aaI1
ag97
a(lp1254
I18
aI18
aaI-1
aI1
aS'JS'
p1255
a(lp1256
I17
aI17
aaI-2
aI1
ag256
a(lp1257
I13
aI15
aaI1
ag97
a(lp1258
I15
aI15
aaI-1
aI1
aS'JS'
p1259
a(lp1260
I14
aI14
aaI-2
aI1
ag682
a(lp1261
I10
aI12
aaI1
ag97
a(lp1262
I12
aI12
aaI-1
aI1
aS'JS'
p1263
a(lp1264
I11
aI11
aaI-3
aI1
aS'FT'
p1265
a(lp1266
I25
aI25
aaI-1
aI1
ag29
a(lp1267
I29
aI29
aaI-1
aI1
ag682
a(lp1268
I24
aI24
aaI-1
aI1
aS'TU'
p1269
a(lp1270
I35
aI35
aaI-1
aI1
aS'MK'
p1271
a(lp1272
I27
aI27
aaI-1
aI1
aS'DA'
p1273
a(lp1274
I23
aI23
aaI-1
aI1
ag796
a(lp1275
I30
aI30
aaI-1
aI2
aS'AP'
p1276
ag90
a(lp1277
I19
aI22
aaI1
aS'Name'
p1278
a(lp1279
I20
aI22
aaI2
aS'Font'
p1280
aS'Name'
p1281
a(lp1282
I21
aI21
aaI-2
aI1
aS'ProcSet'
p1283
a(lp1284
I22
aI22
aaI-4
aI1
aS'Maxlen'
p1285
a(lp1286
I28
aI28
aaI-1
aI1
ag88
a(lp1287
I34
aI34
aaI-1
aI1
aS'Ff'
p1288
a(lp1289
I26
aI26
aaI-1
aI1
ag69
a(lp1290
I37
aI37
aaI-1
aI1
aS'Subtype'
p1291
a(lp1292
I33
aI33
aaI-1
aI1
aS'Type'
p1293
a(lp1294
I36
aI36
aaI-1
aI1
aS'Rect'
p1295
a(lp1296
I31
aI31
aaI-1
aI1
aS'StructParent'
p1297
a(lp1298
I32
aI32
aaI-2
aI1
aS'XFA'
p1299
a(lp1300
I446
aI451
aaI1
aS'Filter'
p1301
a(lp1302
I447
aI447
aaI-1
aI1
aS'Length'
p1303
a(lp1304
I448
aI448
aaI-1
aI1
aS'Type'
p1305
a(lp1306
I449
aI449
aaI-1
aI1
aS'Xilter'
p1307
a(lp1308
I451
aI451
aaI-1
aI1
aS'Xength'
p1309
a(lp1310
I450
aI450
aaI-2
aI1
aS'Fields'
p1311
a(lp1312
I129
aI443
aaI1
aS'AA'
p1313
a(lp1314
I142
aI157
aaI1
aS'Bl'
p1315
a(lp1316
I143
aI145
aaI1
ag97
a(lp1317
I145
aI145
aaI-1
aI1
aS'JS'
p1318
a(lp1319
I144
aI144
aaI-2
aI1
ag256
a(lp1320
I152
aI154
aaI1
ag97
a(lp1321
I154
aI154
aaI-1
aI1
aS'JS'
p1322
a(lp1323
I153
aI153
aaI-2
aI1
aS'Fo'
p1324
a(lp1325
I149
aI151
aaI1
ag97
a(lp1326
I151
aI151
aaI-1
aI1
aS'JS'
p1327
a(lp1328
I150
aI150
aaI-2
aI1
ag69
a(lp1329
I155
aI157
aaI1
ag97
a(lp1330
I157
aI157
aaI-1
aI1
aS'JS'
p1331
a(lp1332
I156
aI156
aaI-2
aI1
ag682
a(lp1333
I146
aI148
aaI1
ag97
a(lp1334
I148
aI148
aaI-1
aI1
aS'JS'
p1335
a(lp1336
I147
aI147
aaI-3
aI1
aS'FT'
p1337
a(lp1338
I314
aI314
aaI-1
aI1
aS'Subtype'
p1339
a(lp1340
I421
aI421
aaI-1
aI1
aS'DA'
p1341
a(lp1342
I299
aI299
aaI-1
aI2
aS'BS'
p1343
ag97
a(lp1344
I296
aI296
aaI-1
aI1
ag59
a(lp1345
I297
aI297
aaI-2
aI1
aS'DV'
p1346
a(lp1347
I312
aI312
aaI-1
aI1
aS'DR'
p1348
a(lp1349
I300
aI311
aaI1
aS'Font'
p1350
a(lp1351
I305
aI311
aaI1
aS'Name'
p1352
a(lp1353
I306
aI311
aaI1
aS'BaseFont'
p1354
a(lp1355
I307
aI307
aaI-1
aI1
aS'Subtype'
p1356
a(lp1357
I310
aI310
aaI-1
aI1
aS'Type'
p1358
a(lp1359
I311
aI311
aaI-1
aI1
aS'Name'
p1360
a(lp1361
I309
aI309
aaI-1
aI1
aS'Encoding'
p1362
a(lp1363
I308
aI308
aaI-3
aI1
aS'Encoding'
p1364
a(lp1365
I301
aI304
aaI1
aS'PDFDocEncoding'
p1366
a(lp1367
I302
aI304
aaI1
aS'Differences'
p1368
a(lp1369
I303
aI303
aaI-1
aI1
aS'Type'
p1370
a(lp1371
I304
aI304
aaI-4
aI1
aS'Opt'
p1372
a(lp1373
I336
aI336
aaI-1
aI1
aS'NM'
p1374
a(lp1375
I335
aI335
aaI-1
aI1
aS'Type'
p1376
a(lp1377
I424
aI424
aaI-1
aI1
aS'TU'
p1378
a(lp1379
I423
aI423
aaI-1
aI1
aS'Ff'
p1380
a(lp1381
I315
aI315
aaI-1
aI1
aS'Rect'
p1382
a(lp1383
I419
aI419
aaI-1
aI1
aS'StructParent'
p1384
a(lp1385
I420
aI420
aaI-1
aI1
ag33
a(lp1386
I130
aI141
aaI1
aS'Fields'
p1387
a(lp1388
I131
aI131
aaI-1
aI1
aS'State'
p1389
a(lp1390
I138
aI138
aaI-1
aI1
ag90
a(lp1391
I135
aI135
aaI-1
aI1
ag97
a(lp1392
I137
aI137
aaI-1
aI1
aS'Flags'
p1393
a(lp1394
I132
aI132
aaI-1
aI1
ag88
a(lp1395
I139
aI139
aaI-1
aI1
aS'PreserveRB'
p1396
a(lp1397
I136
aI136
aaI-1
aI1
ag746
a(lp1398
I133
aI133
aaI-1
aI1
aS'JS'
p1399
a(lp1400
I134
aI134
aaI-1
aI1
aS'Type'
p1401
a(lp1402
I140
aI140
aaI-1
aI1
aS'URI'
p1403
a(lp1404
I141
aI141
aaI-2
aI1
ag29
a(lp1405
I337
aI417
aaI1
aS'Rotate'
p1406
a(lp1407
I414
aI414
aaI-1
aI1
aS'MediaBox'
p1408
a(lp1409
I356
aI356
aaI-1
aI1
aS'Tabs'
p1410
a(lp1411
I416
aI416
aaI-1
aI1
aS'StructParents'
p1412
a(lp1413
I415
aI415
aaI-1
aI1
aS'Annots'
p1414
a(lp1415
I338
aI351
aaI1
ag33
a(lp1416
I339
aI341
aaI1
ag97
a(lp1417
I340
aI340
aaI-1
aI1
aS'URI'
p1418
a(lp1419
I341
aI341
aaI-2
aI1
ag689
a(lp1420
I346
aI346
aaI-1
aI1
ag746
a(lp1421
I347
aI347
aaI-1
aI1
ag748
a(lp1422
I348
aI348
aaI-1
aI1
aS'Subtype'
p1423
a(lp1424
I350
aI350
aaI-1
aI1
aS'Type'
p1425
a(lp1426
I351
aI351
aaI-1
aI2
aS'BS'
p1427
ag97
a(lp1428
I342
aI342
aaI-1
aI1
aS'Type'
p1429
a(lp1430
I343
aI343
aaI-1
aI1
ag59
a(lp1431
I344
aI344
aaI-2
aI1
aS'Border'
p1432
a(lp1433
I345
aI345
aaI-1
aI1
aS'Rect'
p1434
a(lp1435
I349
aI349
aaI-2
aI1
aS'CropBox'
p1436
a(lp1437
I355
aI355
aaI-1
aI1
aS'Contents'
p1438
a(lp1439
I352
aI354
aaI1
aS'Filter'
p1440
a(lp1441
I353
aI353
aaI-1
aI1
aS'Length'
p1442
a(lp1443
I354
aI354
aaI-2
aI1
aS'Type'
p1444
a(lp1445
I417
aI417
aaI-1
aI1
aS'Resources'
p1446
a(lp1447
I357
aI413
aaI2
aS'ExtGState'
p1448
aS'Name'
p1449
a(lp1450
I362
aI371
aaI1
aS'UCR2'
p1451
a(lp1452
I370
aI370
aaI-1
aI1
aS'HT'
p1453
a(lp1454
I364
aI364
aaI-1
aI1
aS'BG2'
p1455
a(lp1456
I363
aI363
aaI-1
aI1
aS'SM'
p1457
a(lp1458
I368
aI368
aaI-1
aI1
aS'OPM'
p1459
a(lp1460
I366
aI366
aaI-1
aI1
aS'SA'
p1461
a(lp1462
I367
aI367
aaI-1
aI1
aS'op'
p1463
a(lp1464
I371
aI371
aaI-1
aI1
aS'Type'
p1465
a(lp1466
I369
aI369
aaI-1
aI1
aS'OP'
p1467
a(lp1468
I365
aI365
aaI-3
aI2
aS'ColorSpace'
p1469
aS'Name'
p1470
a(lp1471
I358
aI361
aaI1
aS'WhitePoint'
p1472
a(lp1473
I361
aI361
aaI-1
aI1
aS'Matrix'
p1474
a(lp1475
I360
aI360
aaI-1
aI1
aS'Gamma'
p1476
a(lp1477
I359
aI359
aaI-3
aI2
aS'Font'
p1478
aS'Name'
p1479
a(lp1480
I372
aI412
aaI1
aS'Name'
p1481
a(lp1482
I406
aI406
aaI-1
aI1
aS'Encoding'
p1483
a(lp1484
I374
aI377
aaI1
aS'Type'
p1485
a(lp1486
I377
aI377
aaI-1
aI1
aS'Differences'
p1487
a(lp1488
I376
aI376
aaI-1
aI1
aS'BaseEncoding'
p1489
a(lp1490
I375
aI375
aaI-2
aI1
aS'BaseFont'
p1491
a(lp1492
I373
aI373
aaI-1
aI1
aS'Type'
p1493
a(lp1494
I411
aI411
aaI-1
aI1
aS'Subtype'
p1495
a(lp1496
I407
aI407
aaI-1
aI1
aS'ToUnicode'
p1497
a(lp1498
I408
aI410
aaI1
aS'Filter'
p1499
a(lp1500
I409
aI409
aaI-1
aI1
aS'Length'
p1501
a(lp1502
I410
aI410
aaI-2
aI1
aS'FontDescriptor'
p1503
a(lp1504
I379
aI404
aaI1
aS'FontFile'
p1505
a(lp1506
I387
aI391
aaI1
aS'Length3'
p1507
a(lp1508
I391
aI391
aaI-1
aI1
aS'Length2'
p1509
a(lp1510
I390
aI390
aaI-1
aI1
aS'Length'
p1511
a(lp1512
I388
aI388
aaI-1
aI1
aS'Length1'
p1513
a(lp1514
I389
aI389
aaI-2
aI1
aS'FontName'
p1515
a(lp1516
I396
aI396
aaI-1
aI1
aS'Descent'
p1517
a(lp1518
I384
aI384
aaI-1
aI1
aS'FontBBox'
p1519
a(lp1520
I386
aI386
aaI-1
aI1
aS'FontFile3'
p1521
a(lp1522
I392
aI395
aaI1
aS'Filter'
p1523
a(lp1524
I393
aI393
aaI-1
aI1
aS'Subtype'
p1525
a(lp1526
I395
aI395
aaI-1
aI1
aS'Length'
p1527
a(lp1528
I394
aI394
aaI-2
aI1
aS'CapHeight'
p1529
a(lp1530
I382
aI382
aaI-1
aI1
aS'Leading'
p1531
a(lp1532
I398
aI398
aaI-1
aI1
aS'CharSet'
p1533
a(lp1534
I383
aI383
aaI-1
aI1
aS'StemH'
p1535
a(lp1536
I401
aI401
aaI-1
aI1
aS'MaxWidth'
p1537
a(lp1538
I399
aI399
aaI-1
aI1
aS'StemV'
p1539
a(lp1540
I402
aI402
aaI-1
aI1
aS'Type'
p1541
a(lp1542
I403
aI403
aaI-1
aI1
aS'AvgWidth'
p1543
a(lp1544
I381
aI381
aaI-1
aI1
aS'XHeight'
p1545
a(lp1546
I404
aI404
aaI-1
aI1
aS'MissingWidth'
p1547
a(lp1548
I400
aI400
aaI-1
aI1
aS'Flags'
p1549
a(lp1550
I385
aI385
aaI-1
aI1
aS'ItalicAngle'
p1551
a(lp1552
I397
aI397
aaI-1
aI1
aS'Ascent'
p1553
a(lp1554
I380
aI380
aaI-2
aI1
aS'Widths'
p1555
a(lp1556
I412
aI412
aaI-1
aI1
aS'LastChar'
p1557
a(lp1558
I405
aI405
aaI-1
aI1
aS'FirstChar'
p1559
a(lp1560
I378
aI378
aaI-3
aI1
aS'ProcSet'
p1561
a(lp1562
I413
aI413
aaI-3
aI1
ag682
a(lp1563
I313
aI313
aaI-1
aI1
ag95
a(lp1564
I317
aI317
aaI-1
aI1
ag746
a(lp1565
I316
aI316
aaI-1
aI1
ag748
a(lp1566
I322
aI322
aaI-1
aI1
ag796
a(lp1567
I418
aI418
aaI-1
aI1
aS'Maxlen'
p1568
a(lp1569
I334
aI334
aaI-1
aI1
aS'AS'
p1570
a(lp1571
I295
aI295
aaI-1
aI1
ag88
a(lp1572
I422
aI422
aaI-1
aI1
ag69
a(lp1573
I425
aI443
aaI1
aS'Name'
p1574
a(lp1575
I430
aI430
aaI-1
aI3
aS'Prop_Build'
p1576
aS'Filter'
p1577
aS'Date'
p1578
a(lp1579
I436
aI436
aaI-1
aI1
ag52
a(lp1580
I438
aI438
aaI-1
aI1
aS'Name'
p1581
a(lp1582
I437
aI437
aaI-2
aI2
aS'App'
p1583
aS'REx'
p1584
a(lp1585
I434
aI434
aaI-1
aI1
ag52
a(lp1586
I433
aI433
aaI-1
aI1
aS'OS'
p1587
a(lp1588
I432
aI432
aaI-1
aI1
aS'Name'
p1589
a(lp1590
I431
aI431
aaI-1
aI1
aS'TrustedMode'
p1591
a(lp1592
I435
aI435
aaI-2
aI2
aS'PubSec'
p1593
aS'Date'
p1594
a(lp1595
I439
aI439
aaI-1
aI1
aS'NonEFontNoWarn'
p1596
a(lp1597
I440
aI440
aaI-1
aI1
ag52
a(lp1598
I441
aI441
aaI-3
aI1
ag748
a(lp1599
I429
aI429
aaI-1
aI1
aS'Filter'
p1600
a(lp1601
I428
aI428
aaI-1
aI1
aS'ByteRange'
p1602
a(lp1603
I426
aI426
aaI-1
aI1
aS'Type'
p1604
a(lp1605
I443
aI443
aaI-1
aI1
aS'SubFilter'
p1606
a(lp1607
I442
aI442
aaI-1
aI1
aS'Contents'
p1608
a(lp1609
I427
aI427
aaI-2
aI2
aS'AP'
p1610
ag52
a(lp1611
I288
aI294
aaI1
aS'Subtype'
p1612
a(lp1613
I294
aI294
aaI-1
aI1
aS'Length'
p1614
a(lp1615
I290
aI290
aaI-1
aI1
aS'BBox'
p1616
a(lp1617
I289
aI289
aaI-1
aI3
aS'Resources'
p1618
aS'Font'
p1619
aS'Name'
p1620
a(lp1621
I293
aI293
aaI-2
aI2
aS'Encoding'
p1622
aS'PDFDocEncoding'
p1623
a(lp1624
I292
aI292
aaI-3
aI1
aS'Matrix'
p1625
a(lp1626
I291
aI291
aaI-2
aI1
ag43
a(lp1627
I158
aI177
aaI1
aS'Name'
p1628
a(lp1629
I159
aI177
aaI1
aS'Matrix'
p1630
a(lp1631
I167
aI167
aaI-1
aI2
aS'Encoding'
p1632
aS'PDFDocEncoding'
p1633
a(lp1634
I161
aI161
aaI-2
aI2
aS'MK'
p1635
aS'CA'
p1636
a(lp1637
I166
aI166
aaI-2
aI1
aS'Filter'
p1638
a(lp1639
I162
aI162
aaI-1
aI1
aS'Subtype'
p1640
a(lp1641
I176
aI176
aaI-1
aI1
aS'Length'
p1642
a(lp1643
I165
aI165
aaI-1
aI1
aS'BBox'
p1644
a(lp1645
I160
aI160
aaI-1
aI1
aS'FormType'
p1646
a(lp1647
I164
aI164
aaI-1
aI2
aS'Font'
p1648
aS'Name'
p1649
a(lp1650
I163
aI163
aaI-2
aI1
aS'Type'
p1651
a(lp1652
I177
aI177
aaI-1
aI3
aS'Resources'
p1653
aS'Font'
p1654
aS'Name'
p1655
a(lp1656
I168
aI174
aaI1
aS'Name'
p1657
a(lp1658
I172
aI172
aaI-1
aI1
aS'BaseFont'
p1659
a(lp1660
I169
aI169
aaI-1
aI1
aS'LastChar'
p1661
a(lp1662
I171
aI171
aaI-1
aI1
aS'Subtype'
p1663
a(lp1664
I173
aI173
aaI-1
aI1
aS'Type'
p1665
a(lp1666
I174
aI174
aaI-1
aI1
aS'FirstChar'
p1667
a(lp1668
I170
aI170
aaI-3
aI1
aS'ProcSet'
p1669
a(lp1670
I175
aI175
aaI-4
aI1
ag90
a(lp1671
I178
aI287
aaI1
aS'Name'
p1672
a(lp1673
I179
aI287
aaI1
aS'XObject'
p1674
a(lp1675
I222
aI287
aaI1
aS'Name'
p1676
a(lp1677
I223
aI287
aaI1
aS'Matrix'
p1678
a(lp1679
I228
aI228
aaI-1
aI1
aS'Filter'
p1680
a(lp1681
I225
aI225
aaI-1
aI1
aS'Subtype'
p1682
a(lp1683
I286
aI286
aaI-1
aI1
aS'Length'
p1684
a(lp1685
I227
aI227
aaI-1
aI1
aS'BBox'
p1686
a(lp1687
I224
aI224
aaI-1
aI1
aS'FormType'
p1688
a(lp1689
I226
aI226
aaI-1
aI1
aS'Type'
p1690
a(lp1691
I287
aI287
aaI-1
aI1
aS'Resources'
p1692
a(lp1693
I229
aI285
aaI1
aS'XObject'
p1694
a(lp1695
I231
aI285
aaI1
aS'Name'
p1696
a(lp1697
I232
aI285
aaI1
aS'Matrix'
p1698
a(lp1699
I237
aI237
aaI-1
aI1
aS'Filter'
p1700
a(lp1701
I234
aI234
aaI-1
aI1
aS'Subtype'
p1702
a(lp1703
I284
aI284
aaI-1
aI1
aS'Length'
p1704
a(lp1705
I236
aI236
aaI-1
aI1
aS'BBox'
p1706
a(lp1707
I233
aI233
aaI-1
aI1
aS'FormType'
p1708
a(lp1709
I235
aI235
aaI-1
aI1
aS'Type'
p1710
a(lp1711
I285
aI285
aaI-1
aI1
aS'Resources'
p1712
a(lp1713
I238
aI283
aaI1
aS'ExtGState'
p1714
a(lp1715
I239
aI243
aaI1
aS'Name'
p1716
a(lp1717
I240
aI243
aaI1
aS'CA'
p1718
a(lp1719
I241
aI241
aaI-1
aI1
aS'Type'
p1720
a(lp1721
I242
aI242
aaI-1
aI1
aS'ca'
p1722
a(lp1723
I243
aI243
aaI-3
aI2
aS'Font'
p1724
aS'Name'
p1725
a(lp1726
I244
aI244
aaI-2
aI1
aS'XObject'
p1727
a(lp1728
I246
aI283
aaI1
aS'Name'
p1729
a(lp1730
I247
aI283
aaI1
aS'Group'
p1731
a(lp1732
I252
aI254
aaI1
ag256
a(lp1733
I253
aI253
aaI-1
aI1
ag97
a(lp1734
I254
aI254
aaI-2
aI1
aS'Matrix'
p1735
a(lp1736
I257
aI257
aaI-1
aI1
aS'Width'
p1737
a(lp1738
I283
aI283
aaI-1
aI1
aS'Resources'
p1739
a(lp1740
I259
aI280
aaI1
aS'ExtGState'
p1741
a(lp1742
I260
aI271
aaI1
aS'Name'
p1743
a(lp1744
I261
aI271
aaI1
aS'SMask'
p1745
a(lp1746
I268
aI268
aaI-1
aI1
aS'BM'
p1747
a(lp1748
I263
aI263
aaI-1
aI1
aS'CA'
p1749
a(lp1750
I264
aI264
aaI-1
aI1
aS'AIS'
p1751
a(lp1752
I262
aI262
aaI-1
aI1
aS'OPM'
p1753
a(lp1754
I266
aI266
aaI-1
aI1
aS'SA'
p1755
a(lp1756
I267
aI267
aaI-1
aI1
aS'op'
p1757
a(lp1758
I271
aI271
aaI-1
aI1
aS'Type'
p1759
a(lp1760
I269
aI269
aaI-1
aI1
aS'ca'
p1761
a(lp1762
I270
aI270
aaI-1
aI1
aS'OP'
p1763
a(lp1764
I265
aI265
aaI-3
aI1
aS'Properties'
p1765
a(lp1766
I272
aI280
aaI1
aS'Name'
p1767
a(lp1768
I273
aI280
aaI1
aS'Title'
p1769
a(lp1770
I279
aI279
aaI-1
aI1
aS'Color'
p1771
a(lp1772
I274
aI274
aaI-1
aI1
aS'Editable'
p1773
a(lp1774
I276
aI276
aaI-1
aI1
aS'Dimmed'
p1775
a(lp1776
I275
aI275
aaI-1
aI1
aS'Visible'
p1777
a(lp1778
I280
aI280
aaI-1
aI1
aS'Printed'
p1779
a(lp1780
I278
aI278
aaI-1
aI1
aS'Preview'
p1781
a(lp1782
I277
aI277
aaI-4
aI1
aS'ColorSpace'
p1783
a(lp1784
I250
aI250
aaI-1
aI1
aS'Height'
p1785
a(lp1786
I255
aI255
aaI-1
aI1
aS'Filter'
p1787
a(lp1788
I251
aI251
aaI-1
aI1
aS'Subtype'
p1789
a(lp1790
I281
aI281
aaI-1
aI1
aS'Length'
p1791
a(lp1792
I256
aI256
aaI-1
aI1
aS'BBox'
p1793
a(lp1794
I248
aI248
aaI-1
aI1
aS'Type'
p1795
a(lp1796
I282
aI282
aaI-1
aI1
aS'BitsPerComponent'
p1797
a(lp1798
I249
aI249
aaI-1
aI1
aS'Name'
p1799
a(lp1800
I258
aI258
aaI-3
aI1
aS'ProcSet'
p1801
a(lp1802
I245
aI245
aaI-4
aI1
aS'ProcSet'
p1803
a(lp1804
I230
aI230
aaI-4
aI1
aS'Matrix'
p1805
a(lp1806
I216
aI216
aaI-1
aI2
aS'Encoding'
p1807
aS'PDFDocEncoding'
p1808
a(lp1809
I181
aI181
aaI-2
aI2
aS'MK'
p1810
aS'CA'
p1811
a(lp1812
I215
aI215
aaI-2
aI1
aS'ProcSet'
p1813
a(lp1814
I217
aI217
aaI-1
aI1
aS'Filter'
p1815
a(lp1816
I182
aI182
aaI-1
aI1
aS'Subtype'
p1817
a(lp1818
I220
aI220
aaI-1
aI1
aS'Length'
p1819
a(lp1820
I214
aI214
aaI-1
aI1
aS'BBox'
p1821
a(lp1822
I180
aI180
aaI-1
aI1
aS'FormType'
p1823
a(lp1824
I213
aI213
aaI-1
aI2
aS'Font'
p1825
aS'Name'
p1826
a(lp1827
I183
aI212
aaI1
aS'Name'
p1828
a(lp1829
I206
aI206
aaI-1
aI1
aS'Encoding'
p1830
a(lp1831
I185
aI188
aaI1
aS'Type'
p1832
a(lp1833
I188
aI188
aaI-1
aI1
aS'Differences'
p1834
a(lp1835
I187
aI187
aaI-1
aI1
aS'BaseEncoding'
p1836
a(lp1837
I186
aI186
aaI-2
aI1
aS'BaseFont'
p1838
a(lp1839
I184
aI184
aaI-1
aI1
aS'Type'
p1840
a(lp1841
I211
aI211
aaI-1
aI1
aS'Subtype'
p1842
a(lp1843
I207
aI207
aaI-1
aI1
aS'ToUnicode'
p1844
a(lp1845
I208
aI210
aaI1
aS'Filter'
p1846
a(lp1847
I209
aI209
aaI-1
aI1
aS'Length'
p1848
a(lp1849
I210
aI210
aaI-2
aI1
aS'FontDescriptor'
p1850
a(lp1851
I190
aI204
aaI1
aS'FontName'
p1852
a(lp1853
I197
aI197
aaI-1
aI1
aS'Descent'
p1854
a(lp1855
I193
aI193
aaI-1
aI1
aS'FontBBox'
p1856
a(lp1857
I195
aI195
aaI-1
aI1
aS'FontWeight'
p1858
a(lp1859
I199
aI199
aaI-1
aI1
aS'CapHeight'
p1860
a(lp1861
I192
aI192
aaI-1
aI1
aS'Type'
p1862
a(lp1863
I203
aI203
aaI-1
aI1
aS'StemH'
p1864
a(lp1865
I201
aI201
aaI-1
aI1
aS'FontFamily'
p1866
a(lp1867
I196
aI196
aaI-1
aI1
aS'StemV'
p1868
a(lp1869
I202
aI202
aaI-1
aI1
aS'Flags'
p1870
a(lp1871
I194
aI194
aaI-1
aI1
aS'XHeight'
p1872
a(lp1873
I204
aI204
aaI-1
aI1
aS'ItalicAngle'
p1874
a(lp1875
I200
aI200
aaI-1
aI1
aS'Ascent'
p1876
a(lp1877
I191
aI191
aaI-1
aI1
aS'FontStretch'
p1878
a(lp1879
I198
aI198
aaI-2
aI1
aS'Widths'
p1880
a(lp1881
I212
aI212
aaI-1
aI1
aS'LastChar'
p1882
a(lp1883
I205
aI205
aaI-1
aI1
aS'FirstChar'
p1884
a(lp1885
I189
aI189
aaI-3
aI1
aS'Type'
p1886
a(lp1887
I221
aI221
aaI-1
aI3
aS'Resources'
p1888
aS'Font'
p1889
aS'Name'
p1890
a(lp1891
I218
aI218
aaI-2
aI1
aS'ProcSet'
p1892
a(lp1893
I219
aI219
aaI-5
aI1
aS'Lock'
p1894
a(lp1895
I318
aI321
aaI1
aS'Action'
p1896
a(lp1897
I319
aI319
aaI-1
aI1
aS'Fields'
p1898
a(lp1899
I320
aI320
aaI-1
aI1
aS'Type'
p1900
a(lp1901
I321
aI321
aaI-2
aI1
aS'MK'
p1902
a(lp1903
I323
aI332
aaI1
aS'AC'
p1904
a(lp1905
I324
aI324
aaI-1
aI1
aS'BG'
p1906
a(lp1907
I326
aI326
aaI-1
aI1
aS'BC'
p1908
a(lp1909
I325
aI325
aaI-1
aI1
aS'CA'
p1910
a(lp1911
I327
aI327
aaI-1
aI1
aS'TP'
p1912
a(lp1913
I332
aI332
aaI-1
aI1
ag52
a(lp1914
I330
aI330
aaI-1
aI1
aS'RC'
p1915
a(lp1916
I331
aI331
aaI-1
aI1
aS'IF'
p1917
a(lp1918
I328
aI329
aaI1
ag33
a(lp1919
I329
aI329
aaI-3
aI1
aS'MaxLen'
p1920
a(lp1921
I333
aI333
aaI-1
aI1
aS'Border'
p1922
a(lp1923
I298
aI298
aaI-2
aI1
aS'SigFlags'
p1924
a(lp1925
I445
aI445
aaI-1
aI1
aS'DA'
p1926
a(lp1927
I38
aI38
aaI-1
aI1
aS'DR'
p1928
a(lp1929
I39
aI128
aaI1
aS'ProcSet'
p1930
a(lp1931
I120
aI120
aaI-1
aI2
aS'XObject'
p1932
aS'Name'
p1933
a(lp1934
I121
aI128
aaI1
aS'Matrix'
p1935
a(lp1936
I125
aI125
aaI-1
aI1
aS'Subtype'
p1937
a(lp1938
I127
aI127
aaI-1
aI1
aS'Length'
p1939
a(lp1940
I124
aI124
aaI-1
aI1
aS'BBox'
p1941
a(lp1942
I122
aI122
aaI-1
aI1
aS'FormType'
p1943
a(lp1944
I123
aI123
aaI-1
aI1
aS'Type'
p1945
a(lp1946
I128
aI128
aaI-1
aI2
aS'Resources'
p1947
aS'ProcSet'
p1948
a(lp1949
I126
aI126
aaI-4
aI1
aS'Font'
p1950
a(lp1951
I44
aI119
aaI1
aS'Name'
p1952
a(lp1953
I45
aI119
aaI1
aS'Name'
p1954
a(lp1955
I113
aI113
aaI-1
aI1
aS'Encoding'
p1956
a(lp1957
I77
aI80
aaI1
aS'Type'
p1958
a(lp1959
I80
aI80
aaI-1
aI1
aS'Differences'
p1960
a(lp1961
I79
aI79
aaI-1
aI1
aS'BaseEncoding'
p1962
a(lp1963
I78
aI78
aaI-2
aI1
aS'BaseFont'
p1964
a(lp1965
I46
aI46
aaI-1
aI1
aS'Type'
p1966
a(lp1967
I118
aI118
aaI-1
aI1
aS'DescendantFonts'
p1968
a(lp1969
I47
aI76
aaI1
aS'CIDToGIDMap'
p1970
a(lp1971
I52
aI52
aaI-1
aI1
ag59
a(lp1972
I76
aI76
aaI-1
aI1
aS'BaseFont'
p1973
a(lp1974
I48
aI48
aaI-1
aI2
aS'CIDSystemInfo'
p1975
aS'Ordering'
p1976
a(lp1977
I49
aI49
aaI-1
aI1
aS'Supplement'
p1978
a(lp1979
I51
aI51
aaI-1
aI1
aS'Registry'
p1980
a(lp1981
I50
aI50
aaI-2
aI1
aS'Subtype'
p1982
a(lp1983
I74
aI74
aaI-1
aI1
aS'FontDescriptor'
p1984
a(lp1985
I54
aI73
aaI1
aS'FontFile2'
p1986
a(lp1987
I61
aI64
aaI1
aS'Filter'
p1988
a(lp1989
I62
aI62
aaI-1
aI1
aS'Length'
p1990
a(lp1991
I63
aI63
aaI-1
aI1
aS'Length1'
p1992
a(lp1993
I64
aI64
aaI-2
aI1
aS'FontName'
p1994
a(lp1995
I65
aI65
aaI-1
aI1
aS'Descent'
p1996
a(lp1997
I58
aI58
aaI-1
aI1
aS'FontBBox'
p1998
a(lp1999
I60
aI60
aaI-1
aI1
aS'CapHeight'
p2000
a(lp2001
I57
aI57
aaI-1
aI1
aS'Leading'
p2002
a(lp2003
I67
aI67
aaI-1
aI1
aS'MaxWidth'
p2004
a(lp2005
I68
aI68
aaI-1
aI1
aS'StemH'
p2006
a(lp2007
I70
aI70
aaI-1
aI1
aS'StemV'
p2008
a(lp2009
I71
aI71
aaI-1
aI1
aS'Type'
p2010
a(lp2011
I72
aI72
aaI-1
aI1
aS'AvgWidth'
p2012
a(lp2013
I56
aI56
aaI-1
aI1
aS'XHeight'
p2014
a(lp2015
I73
aI73
aaI-1
aI1
aS'MissingWidth'
p2016
a(lp2017
I69
aI69
aaI-1
aI1
aS'Flags'
p2018
a(lp2019
I59
aI59
aaI-1
aI1
aS'ItalicAngle'
p2020
a(lp2021
I66
aI66
aaI-1
aI1
aS'Ascent'
p2022
a(lp2023
I55
aI55
aaI-2
aI1
aS'DW'
p2024
a(lp2025
I53
aI53
aaI-1
aI1
aS'Type'
p2026
a(lp2027
I75
aI75
aaI-2
aI1
aS'Subtype'
p2028
a(lp2029
I114
aI114
aaI-1
aI1
aS'ToUnicode'
p2030
a(lp2031
I115
aI117
aaI1
aS'Filter'
p2032
a(lp2033
I116
aI116
aaI-1
aI1
aS'Length'
p2034
a(lp2035
I117
aI117
aaI-2
aI1
aS'FontDescriptor'
p2036
a(lp2037
I82
aI111
aaI1
aS'FontFile2'
p2038
a(lp2039
I96
aI99
aaI1
aS'Filter'
p2040
a(lp2041
I97
aI97
aaI-1
aI1
aS'Length'
p2042
a(lp2043
I98
aI98
aaI-1
aI1
aS'Length1'
p2044
a(lp2045
I99
aI99
aaI-2
aI1
aS'FontFile'
p2046
a(lp2047
I90
aI95
aaI1
aS'Filter'
p2048
a(lp2049
I91
aI91
aaI-1
aI1
aS'Length2'
p2050
a(lp2051
I94
aI94
aaI-1
aI1
aS'Length'
p2052
a(lp2053
I92
aI92
aaI-1
aI1
aS'Length3'
p2054
a(lp2055
I95
aI95
aaI-1
aI1
aS'Length1'
p2056
a(lp2057
I93
aI93
aaI-2
aI1
aS'FontName'
p2058
a(lp2059
I104
aI104
aaI-1
aI1
aS'Descent'
p2060
a(lp2061
I86
aI86
aaI-1
aI1
aS'FontBBox'
p2062
a(lp2063
I88
aI88
aaI-1
aI1
aS'FontFile3'
p2064
a(lp2065
I100
aI103
aaI1
aS'Filter'
p2066
a(lp2067
I101
aI101
aaI-1
aI1
aS'Subtype'
p2068
a(lp2069
I103
aI103
aaI-1
aI1
aS'Length'
p2070
a(lp2071
I102
aI102
aaI-2
aI1
aS'CapHeight'
p2072
a(lp2073
I84
aI84
aaI-1
aI1
aS'Type'
p2074
a(lp2075
I110
aI110
aaI-1
aI1
aS'CharSet'
p2076
a(lp2077
I85
aI85
aaI-1
aI1
aS'StemH'
p2078
a(lp2079
I108
aI108
aaI-1
aI1
aS'FontWeight'
p2080
a(lp2081
I106
aI106
aaI-1
aI1
aS'FontFamily'
p2082
a(lp2083
I89
aI89
aaI-1
aI1
aS'StemV'
p2084
a(lp2085
I109
aI109
aaI-1
aI1
aS'Flags'
p2086
a(lp2087
I87
aI87
aaI-1
aI1
aS'XHeight'
p2088
a(lp2089
I111
aI111
aaI-1
aI1
aS'ItalicAngle'
p2090
a(lp2091
I107
aI107
aaI-1
aI1
aS'Ascent'
p2092
a(lp2093
I83
aI83
aaI-1
aI1
aS'FontStretch'
p2094
a(lp2095
I105
aI105
aaI-2
aI1
aS'Widths'
p2096
a(lp2097
I119
aI119
aaI-1
aI1
aS'LastChar'
p2098
a(lp2099
I112
aI112
aaI-1
aI1
aS'FirstChar'
p2100
a(lp2101
I81
aI81
aaI-3
aI1
aS'Encoding'
p2102
a(lp2103
I40
aI43
aaI1
aS'PDFDocEncoding'
p2104
a(lp2105
I41
aI43
aaI1
aS'Differences'
p2106
a(lp2107
I42
aI42
aaI-1
aI1
aS'Type'
p2108
a(lp2109
I43
aI43
aaI-5
aI1
aS'Type'
p2110
a(lp2111
I3492
aI3492
aaI-1
aI1
aS'URI'
p2112
a(lp2113
I3493
aI3494
aaI1
aS'Base'
p2114
a(lp2115
I3494
aI3494
aaI-2
aI1
aS'Metadata'
p2116
a(lp2117
I502
aI505
aaI1
aS'Subtype'
p2118
a(lp2119
I504
aI504
aaI-1
aI1
aS'Length'
p2120
a(lp2121
I503
aI503
aaI-1
aI1
aS'Type'
p2122
a(lp2123
I505
aI505
aaI-2
aI1
aS'DefaultRGB'
p2124
a(lp2125
I460
aI463
aaI1
aS'WhitePoint'
p2126
a(lp2127
I463
aI463
aaI-1
aI1
aS'Matrix'
p2128
a(lp2129
I462
aI462
aaI-1
aI1
aS'Gamma'
p2130
a(lp2131
I461
aI461
aaI-2
aI1
aS'SpiderInfo'
p2132
a(lp2133
I2904
aI2920
aaI1
ag689
a(lp2134
I2905
aI2919
aaI1
aS'URL'
p2135
a(lp2136
I2919
aI2919
aaI-1
aI1
ag746
a(lp2137
I2906
aI2906
aaI-1
aI1
ag97
a(lp2138
I2907
aI2918
aaI1
aS'G'
p2139
a(lp2140
I2908
aI2918
aaI1
aS'PS'
p2141
a(lp2142
I2916
aI2916
aaI-1
aI1
ag97
a(lp2143
I2917
aI2917
aaI-1
aI1
aS'AH'
p2144
a(lp2145
I2909
aI2909
aaI-1
aI1
ag748
a(lp2146
I2914
aI2914
aaI-1
aI1
aS'AL'
p2147
a(lp2148
I2910
aI2910
aaI-1
aI1
aS'SU'
p2149
a(lp2150
I2918
aI2918
aaI-1
aI1
aS'AS'
p2151
a(lp2152
I2911
aI2911
aaI-1
aI1
aS'AT'
p2153
a(lp2154
I2912
aI2912
aaI-1
aI1
aS'CB'
p2155
a(lp2156
I2913
aI2913
aaI-1
aI1
aS'PO'
p2157
a(lp2158
I2915
aI2915
aaI-4
aI1
ag69
a(lp2159
I2920
aI2920
aaI-2
aI1
aS'outlines'
p2160
a(lp2161
I3512
aI3514
aaI1
aS'Count'
p2162
a(lp2163
I3513
aI3513
aaI-1
aI1
aS'Type'
p2164
a(lp2165
I3514
aI3514
aaI-2
aI1
aS'ViewerPreferences'
p2166
a(lp2167
I3496
aI3509
aaI1
aS'Direction'
p2168
a(lp2169
I3498
aI3498
aaI-1
aI2
aS'Rights'
p2170
aS'TimeOfUbiquitization'
p2171
a(lp2172
I3508
aI3508
aaI-1
aI1
aS'Form'
p2173
a(lp2174
I3505
aI3505
aaI-1
aI1
aS'RightsID'
p2175
a(lp2176
I3507
aI3507
aaI-1
aI1
aS'Version'
p2177
a(lp2178
I3509
aI3509
aaI-1
aI1
aS'Msg'
p2179
a(lp2180
I3506
aI3506
aaI-1
aI1
aS'Document'
p2181
a(lp2182
I3504
aI3504
aaI-2
aI1
aS'FitWindow'
p2183
a(lp2184
I3499
aI3499
aaI-1
aI1
aS'PageDirection'
p2185
a(lp2186
I3503
aI3503
aaI-1
aI1
aS'HideToolbar'
p2187
a(lp2188
I3501
aI3501
aaI-1
aI1
aS'HideMenubar'
p2189
a(lp2190
I3500
aI3500
aaI-1
aI1
aS'<nn>'
p2191
a(lp2192
I3497
aI3497
aaI-1
aI1
aS'HideWindowUI'
p2193
a(lp2194
I3502
aI3502
aaI-2
aI1
aS'Threads'
p2195
a(lp2196
I3484
aI3491
aaI1
aS'FP'
p2197
a(lp2198
I3486
aI3486
aaI-1
aI2
ag95
aS'Title'
p2199
a(lp2200
I3491
aI3491
aaI-2
aI1
aS'FR'
p2201
a(lp2202
I3489
aI3489
aaI-1
aI1
aS'FT'
p2203
a(lp2204
I3490
aI3490
aaI-1
aI2
ag682
aS' 1'
p2205
a(lp2206
I3487
aI3487
aaI-3
aI1
aS'StructTreeRoot'
p2207
a(lp2208
I2921
aI3482
aaI1
aS'Info'
p2209
a(lp2210
I3077
aI3084
aaI1
aS'Name'
p2211
a(lp2212
I3078
aI3084
aaI1
ag796
a(lp2213
I3079
aI3081
aaI1
aS'Filter'
p2214
a(lp2215
I3080
aI3080
aaI-1
aI1
aS'Length'
p2216
a(lp2217
I3081
aI3081
aaI-2
aI1
aS'q'
p2218
a(lp2219
I3082
aI3084
aaI1
aS'Filter'
p2220
a(lp2221
I3083
aI3083
aaI-1
aI1
aS'Length'
p2222
a(lp2223
I3084
aI3084
aaI-4
aI1
ag97
a(lp2224
I3479
aI3479
aaI-1
aI1
aS'JS'
p2225
a(lp2226
I3085
aI3088
aaI1
aS'Filter'
p2227
a(lp2228
I3087
aI3087
aaI-1
aI1
aS'<nn>'
p2229
a(lp2230
I3086
aI3086
aaI-1
aI1
aS'Length'
p2231
a(lp2232
I3088
aI3088
aaI-2
aI1
aS'ParentTreeNextKey'
p2233
a(lp2234
I3267
aI3267
aaI-1
aI1
aS'Pg'
p2235
a(lp2236
I3268
aI3443
aaI1
aS'BleedBox'
p2237
a(lp2238
I3286
aI3286
aaI-1
aI1
aS'MediaBox'
p2239
a(lp2240
I3291
aI3291
aaI-1
aI1
aS'Tabs'
p2241
a(lp2242
I3441
aI3441
aaI-1
aI1
aS'StructParents'
p2243
a(lp2244
I3440
aI3440
aaI-1
aI1
aS'Annots'
p2245
a(lp2246
I3269
aI3285
aaI1
ag33
a(lp2247
I3270
aI3273
aaI1
ag97
a(lp2248
I3272
aI3272
aaI-1
aI1
ag43
a(lp2249
I3271
aI3271
aaI-1
aI1
aS'URI'
p2250
a(lp2251
I3273
aI3273
aaI-2
aI1
ag689
a(lp2252
I3278
aI3278
aaI-1
aI1
aS'Subtype'
p2253
a(lp2254
I3284
aI3284
aaI-1
aI1
ag746
a(lp2255
I3279
aI3279
aaI-1
aI1
ag748
a(lp2256
I3280
aI3280
aaI-1
aI1
ag29
a(lp2257
I3281
aI3281
aaI-1
aI1
aS'Type'
p2258
a(lp2259
I3285
aI3285
aaI-1
aI2
aS'BS'
p2260
ag97
a(lp2261
I3274
aI3274
aaI-1
aI1
aS'Type'
p2262
a(lp2263
I3275
aI3275
aaI-1
aI1
ag59
a(lp2264
I3276
aI3276
aaI-2
aI1
aS'Border'
p2265
a(lp2266
I3277
aI3277
aaI-1
aI1
aS'Rect'
p2267
a(lp2268
I3282
aI3282
aaI-1
aI1
aS'StructParent'
p2269
a(lp2270
I3283
aI3283
aaI-2
aI1
aS'CropBox'
p2271
a(lp2272
I3290
aI3290
aaI-1
aI1
aS'Rotate'
p2273
a(lp2274
I3439
aI3439
aaI-1
aI1
aS'Contents'
p2275
a(lp2276
I3287
aI3289
aaI1
aS'Filter'
p2277
a(lp2278
I3288
aI3288
aaI-1
aI1
aS'Length'
p2279
a(lp2280
I3289
aI3289
aaI-2
aI1
aS'Trans'
p2281
a(lp2282
I3442
aI3442
aaI-1
aI1
aS'Type'
p2283
a(lp2284
I3443
aI3443
aaI-1
aI3
aS'Resources'
p2285
aS'XObject'
p2286
aS'Name'
p2287
a(lp2288
I3393
aI3438
aaI1
aS'Width'
p2289
a(lp2290
I3438
aI3438
aaI-1
aI3
aS'Resources'
p2291
aS'ExtGState'
p2292
aS'Name'
p2293
a(lp2294
I3401
aI3409
aaI1
aS'UCR2'
p2295
a(lp2296
I3408
aI3408
aaI-1
aI1
aS'BG2'
p2297
a(lp2298
I3402
aI3402
aaI-1
aI1
aS'SM'
p2299
a(lp2300
I3406
aI3406
aaI-1
aI1
aS'OPM'
p2301
a(lp2302
I3404
aI3404
aaI-1
aI1
aS'SA'
p2303
a(lp2304
I3405
aI3405
aaI-1
aI1
aS'op'
p2305
a(lp2306
I3409
aI3409
aaI-1
aI1
aS'Type'
p2307
a(lp2308
I3407
aI3407
aaI-1
aI1
aS'OP'
p2309
a(lp2310
I3403
aI3403
aaI-3
aI2
aS'Font'
p2311
aS'Name'
p2312
a(lp2313
I3410
aI3434
aaI1
aS'Encoding'
p2314
a(lp2315
I3412
aI3412
aaI-1
aI1
aS'BaseFont'
p2316
a(lp2317
I3411
aI3411
aaI-1
aI1
aS'Type'
p2318
a(lp2319
I3433
aI3433
aaI-1
aI1
aS'Subtype'
p2320
a(lp2321
I3432
aI3432
aaI-1
aI1
aS'FontDescriptor'
p2322
a(lp2323
I3414
aI3430
aaI1
aS'FontFile3'
p2324
a(lp2325
I3421
aI3424
aaI1
aS'Filter'
p2326
a(lp2327
I3422
aI3422
aaI-1
aI1
aS'Subtype'
p2328
a(lp2329
I3424
aI3424
aaI-1
aI1
aS'Length'
p2330
a(lp2331
I3423
aI3423
aaI-2
aI1
aS'FontName'
p2332
a(lp2333
I3425
aI3425
aaI-1
aI1
aS'Descent'
p2334
a(lp2335
I3418
aI3418
aaI-1
aI1
aS'FontBBox'
p2336
a(lp2337
I3420
aI3420
aaI-1
aI1
aS'CapHeight'
p2338
a(lp2339
I3416
aI3416
aaI-1
aI1
aS'Type'
p2340
a(lp2341
I3429
aI3429
aaI-1
aI1
aS'CharSet'
p2342
a(lp2343
I3417
aI3417
aaI-1
aI1
aS'StemH'
p2344
a(lp2345
I3427
aI3427
aaI-1
aI1
aS'StemV'
p2346
a(lp2347
I3428
aI3428
aaI-1
aI1
aS'Flags'
p2348
a(lp2349
I3419
aI3419
aaI-1
aI1
aS'XHeight'
p2350
a(lp2351
I3430
aI3430
aaI-1
aI1
aS'ItalicAngle'
p2352
a(lp2353
I3426
aI3426
aaI-1
aI1
aS'Ascent'
p2354
a(lp2355
I3415
aI3415
aaI-2
aI1
aS'Widths'
p2356
a(lp2357
I3434
aI3434
aaI-1
aI1
aS'LastChar'
p2358
a(lp2359
I3431
aI3431
aaI-1
aI1
aS'FirstChar'
p2360
a(lp2361
I3413
aI3413
aaI-3
aI1
aS'ProcSet'
p2362
a(lp2363
I3435
aI3435
aaI-2
aI1
aS'ColorSpace'
p2364
a(lp2365
I3396
aI3396
aaI-1
aI1
aS'OC'
p2366
a(lp2367
I3400
aI3400
aaI-1
aI1
aS'Height'
p2368
a(lp2369
I3398
aI3398
aaI-1
aI1
aS'Filter'
p2370
a(lp2371
I3397
aI3397
aaI-1
aI1
aS'Subtype'
p2372
a(lp2373
I3436
aI3436
aaI-1
aI1
aS'Length'
p2374
a(lp2375
I3399
aI3399
aaI-1
aI1
aS'BBox'
p2376
a(lp2377
I3394
aI3394
aaI-1
aI1
aS'Type'
p2378
a(lp2379
I3437
aI3437
aaI-1
aI1
aS'BitsPerComponent'
p2380
a(lp2381
I3395
aI3395
aaI-3
aI2
aS'ColorSpace'
p2382
aS'Name'
p2383
a(lp2384
I3292
aI3303
aaI1
aS'Filter'
p2385
a(lp2386
I3298
aI3298
aaI-1
aI1
aS'BitsPerSample'
p2387
a(lp2388
I3294
aI3294
aaI-1
aI1
aS'Alternate'
p2389
a(lp2390
I3293
aI3293
aaI-1
aI1
aS'Domain'
p2391
a(lp2392
I3296
aI3296
aaI-1
aI1
ag90
a(lp2393
I3301
aI3301
aaI-1
aI1
aS'Decode'
p2394
a(lp2395
I3295
aI3295
aaI-1
aI1
aS'Length'
p2396
a(lp2397
I3300
aI3300
aaI-1
aI1
aS'Encode'
p2398
a(lp2399
I3297
aI3297
aaI-1
aI1
aS'Range'
p2400
a(lp2401
I3302
aI3302
aaI-1
aI1
aS'FunctionType'
p2402
a(lp2403
I3299
aI3299
aaI-1
aI1
aS'Size'
p2404
a(lp2405
I3303
aI3303
aaI-3
aI1
aS'ProcSet'
p2406
a(lp2407
I3389
aI3389
aaI-1
aI2
aS'ExtGState'
p2408
aS'Name'
p2409
a(lp2410
I3304
aI3314
aaI1
aS'UCR2'
p2411
a(lp2412
I3313
aI3313
aaI-1
aI1
aS'HT'
p2413
a(lp2414
I3306
aI3306
aaI-1
aI1
aS'BG2'
p2415
a(lp2416
I3305
aI3305
aaI-1
aI1
aS'SM'
p2417
a(lp2418
I3310
aI3310
aaI-1
aI1
aS'op'
p2419
a(lp2420
I3314
aI3314
aaI-1
aI1
aS'OPM'
p2421
a(lp2422
I3308
aI3308
aaI-1
aI1
aS'SA'
p2423
a(lp2424
I3309
aI3309
aaI-1
aI1
aS'TR2'
p2425
a(lp2426
I3311
aI3311
aaI-1
aI1
aS'Type'
p2427
a(lp2428
I3312
aI3312
aaI-1
aI1
aS'OP'
p2429
a(lp2430
I3307
aI3307
aaI-3
aI2
aS'Font'
p2431
aS'Name'
p2432
a(lp2433
I3315
aI3388
aaI1
aS'Name'
p2434
a(lp2435
I3382
aI3382
aaI-1
aI1
aS'Encoding'
p2436
a(lp2437
I3349
aI3352
aaI1
aS'Type'
p2438
a(lp2439
I3352
aI3352
aaI-1
aI1
aS'Differences'
p2440
a(lp2441
I3351
aI3351
aaI-1
aI1
aS'BaseEncoding'
p2442
a(lp2443
I3350
aI3350
aaI-2
aI1
aS'BaseFont'
p2444
a(lp2445
I3316
aI3316
aaI-1
aI1
aS'Type'
p2446
a(lp2447
I3387
aI3387
aaI-1
aI1
aS'DescendantFonts'
p2448
a(lp2449
I3317
aI3348
aaI1
aS'CIDToGIDMap'
p2450
a(lp2451
I3322
aI3322
aaI-1
aI1
ag59
a(lp2452
I3348
aI3348
aaI-1
aI1
aS'BaseFont'
p2453
a(lp2454
I3318
aI3318
aaI-1
aI2
aS'CIDSystemInfo'
p2455
aS'Ordering'
p2456
a(lp2457
I3319
aI3319
aaI-1
aI1
aS'Supplement'
p2458
a(lp2459
I3321
aI3321
aaI-1
aI1
aS'Registry'
p2460
a(lp2461
I3320
aI3320
aaI-2
aI1
aS'Subtype'
p2462
a(lp2463
I3346
aI3346
aaI-1
aI1
aS'FontDescriptor'
p2464
a(lp2465
I3324
aI3345
aaI1
aS'FontFile2'
p2466
a(lp2467
I3335
aI3338
aaI1
aS'Filter'
p2468
a(lp2469
I3336
aI3336
aaI-1
aI1
aS'Length'
p2470
a(lp2471
I3337
aI3337
aaI-1
aI1
aS'Length1'
p2472
a(lp2473
I3338
aI3338
aaI-2
aI1
aS'FontName'
p2474
a(lp2475
I3339
aI3339
aaI-1
aI1
aS'Descent'
p2476
a(lp2477
I3331
aI3331
aaI-1
aI1
aS'FontBBox'
p2478
a(lp2479
I3333
aI3333
aaI-1
aI1
aS'FontWeight'
p2480
a(lp2481
I3341
aI3341
aaI-1
aI1
aS'CapHeight'
p2482
a(lp2483
I3330
aI3330
aaI-1
aI1
aS'Type'
p2484
a(lp2485
I3345
aI3345
aaI-1
aI1
aS'MaxWidth'
p2486
a(lp2487
I3343
aI3343
aaI-1
aI1
aS'FontFamily'
p2488
a(lp2489
I3334
aI3334
aaI-1
aI1
aS'StemV'
p2490
a(lp2491
I3344
aI3344
aaI-1
aI1
aS'AvgWidth'
p2492
a(lp2493
I3326
aI3326
aaI-1
aI1
aS'Flags'
p2494
a(lp2495
I3332
aI3332
aaI-1
aI1
aS'CIDSet'
p2496
a(lp2497
I3327
aI3329
aaI1
aS'Filter'
p2498
a(lp2499
I3328
aI3328
aaI-1
aI1
aS'Length'
p2500
a(lp2501
I3329
aI3329
aaI-2
aI1
aS'ItalicAngle'
p2502
a(lp2503
I3342
aI3342
aaI-1
aI1
aS'Ascent'
p2504
a(lp2505
I3325
aI3325
aaI-1
aI1
aS'FontStretch'
p2506
a(lp2507
I3340
aI3340
aaI-2
aI1
aS'DW'
p2508
a(lp2509
I3323
aI3323
aaI-1
aI1
aS'Type'
p2510
a(lp2511
I3347
aI3347
aaI-2
aI1
aS'Subtype'
p2512
a(lp2513
I3383
aI3383
aaI-1
aI1
aS'ToUnicode'
p2514
a(lp2515
I3384
aI3386
aaI1
aS'Filter'
p2516
a(lp2517
I3385
aI3385
aaI-1
aI1
aS'Length'
p2518
a(lp2519
I3386
aI3386
aaI-2
aI1
aS'FontDescriptor'
p2520
a(lp2521
I3354
aI3380
aaI1
aS'FontFile2'
p2522
a(lp2523
I3363
aI3366
aaI1
aS'Filter'
p2524
a(lp2525
I3364
aI3364
aaI-1
aI1
aS'Length'
p2526
a(lp2527
I3365
aI3365
aaI-1
aI1
aS'Length1'
p2528
a(lp2529
I3366
aI3366
aaI-2
aI1
aS'FontFile3'
p2530
a(lp2531
I3367
aI3371
aaI1
aS'Filter'
p2532
a(lp2533
I3368
aI3368
aaI-1
aI1
aS'Subtype'
p2534
a(lp2535
I3371
aI3371
aaI-1
aI1
aS'Length'
p2536
a(lp2537
I3369
aI3369
aaI-1
aI1
aS'Length1'
p2538
a(lp2539
I3370
aI3370
aaI-2
aI1
aS'FontName'
p2540
a(lp2541
I3372
aI3372
aaI-1
aI1
aS'Descent'
p2542
a(lp2543
I3359
aI3359
aaI-1
aI1
aS'FontBBox'
p2544
a(lp2545
I3361
aI3361
aaI-1
aI1
aS'FontWeight'
p2546
a(lp2547
I3374
aI3374
aaI-1
aI1
aS'CapHeight'
p2548
a(lp2549
I3357
aI3357
aaI-1
aI1
aS'Type'
p2550
a(lp2551
I3379
aI3379
aaI-1
aI1
aS'CharSet'
p2552
a(lp2553
I3358
aI3358
aaI-1
aI1
aS'StemH'
p2554
a(lp2555
I3377
aI3377
aaI-1
aI1
aS'FontFamily'
p2556
a(lp2557
I3362
aI3362
aaI-1
aI1
aS'StemV'
p2558
a(lp2559
I3378
aI3378
aaI-1
aI1
aS'AvgWidth'
p2560
a(lp2561
I3356
aI3356
aaI-1
aI1
aS'MaxWidth'
p2562
a(lp2563
I3376
aI3376
aaI-1
aI1
aS'XHeight'
p2564
a(lp2565
I3380
aI3380
aaI-1
aI1
aS'Flags'
p2566
a(lp2567
I3360
aI3360
aaI-1
aI1
aS'ItalicAngle'
p2568
a(lp2569
I3375
aI3375
aaI-1
aI1
aS'Ascent'
p2570
a(lp2571
I3355
aI3355
aaI-1
aI1
aS'FontStretch'
p2572
a(lp2573
I3373
aI3373
aaI-2
aI1
aS'Widths'
p2574
a(lp2575
I3388
aI3388
aaI-1
aI1
aS'LastChar'
p2576
a(lp2577
I3381
aI3381
aaI-1
aI1
aS'FirstChar'
p2578
a(lp2579
I3353
aI3353
aaI-3
aI2
aS'Properties'
p2580
aS'Name'
p2581
a(lp2582
I3390
aI3392
aaI1
aS'OCGs'
p2583
a(lp2584
I3391
aI3391
aaI-1
aI1
aS'Type'
p2585
a(lp2586
I3392
aI3392
aaI-5
aI1
aS'Obj'
p2587
a(lp2588
I3096
aI3152
aaI1
aS'FT'
p2589
a(lp2590
I3134
aI3134
aaI-1
aI1
aS'DA'
p2591
a(lp2592
I3131
aI3131
aaI-1
aI1
aS'Pg'
p2593
a(lp2594
I3143
aI3143
aaI-1
aI2
aS'BS'
p2595
ag97
a(lp2596
I3126
aI3126
aaI-1
aI1
aS'Type'
p2597
a(lp2598
I3127
aI3127
aaI-1
aI1
ag59
a(lp2599
I3128
aI3128
aaI-2
aI1
aS'Type'
p2600
a(lp2601
I3150
aI3150
aaI-1
aI1
aS'Dest'
p2602
a(lp2603
I3132
aI3132
aaI-1
aI1
aS'ggPlaceHolder'
p2604
a(lp2605
I3151
aI3151
aaI-1
aI1
aS'TU'
p2606
a(lp2607
I3149
aI3149
aaI-1
aI1
aS'Ff'
p2608
a(lp2609
I3135
aI3135
aaI-1
aI3
aS'AP'
p2610
ag43
aS'Name'
p2611
a(lp2612
I3105
aI3114
aaI1
aS'Matrix'
p2613
a(lp2614
I3110
aI3110
aaI-1
aI1
aS'Filter'
p2615
a(lp2616
I3107
aI3107
aaI-1
aI1
aS'Subtype'
p2617
a(lp2618
I3113
aI3113
aaI-1
aI1
aS'Length'
p2619
a(lp2620
I3109
aI3109
aaI-1
aI1
aS'BBox'
p2621
a(lp2622
I3106
aI3106
aaI-1
aI1
aS'FormType'
p2623
a(lp2624
I3108
aI3108
aaI-1
aI1
aS'Type'
p2625
a(lp2626
I3114
aI3114
aaI-1
aI3
aS'Resources'
p2627
aS'Font'
p2628
aS'Name'
p2629
a(lp2630
I3111
aI3111
aaI-2
aI1
aS'ProcSet'
p2631
a(lp2632
I3112
aI3112
aaI-4
aI2
ag90
aS'Name'
p2633
a(lp2634
I3115
aI3124
aaI1
aS'Matrix'
p2635
a(lp2636
I3120
aI3120
aaI-1
aI1
aS'Filter'
p2637
a(lp2638
I3117
aI3117
aaI-1
aI1
aS'Subtype'
p2639
a(lp2640
I3123
aI3123
aaI-1
aI1
aS'Length'
p2641
a(lp2642
I3119
aI3119
aaI-1
aI1
aS'BBox'
p2643
a(lp2644
I3116
aI3116
aaI-1
aI1
aS'FormType'
p2645
a(lp2646
I3118
aI3118
aaI-1
aI1
aS'Type'
p2647
a(lp2648
I3124
aI3124
aaI-1
aI3
aS'Resources'
p2649
aS'Font'
p2650
aS'Name'
p2651
a(lp2652
I3121
aI3121
aaI-2
aI1
aS'ProcSet'
p2653
a(lp2654
I3122
aI3122
aaI-5
aI1
aS'Rect'
p2655
a(lp2656
I3145
aI3145
aaI-1
aI1
aS'StructParent'
p2657
a(lp2658
I3146
aI3146
aaI-1
aI1
ag33
a(lp2659
I3097
aI3104
aaI1
ag97
a(lp2660
I3103
aI3103
aaI-1
aI1
aS'IsMap'
p2661
a(lp2662
I3102
aI3102
aaI-1
aI1
ag43
a(lp2663
I3098
aI3098
aaI-1
aI1
aS'URI'
p2664
a(lp2665
I3104
aI3104
aaI-1
aI2
ag682
aS'UF'
p2666
a(lp2667
I3101
aI3101
aaI-1
aI1
aS'Type'
p2668
a(lp2669
I3100
aI3100
aaI-1
aI1
ag682
a(lp2670
I3099
aI3099
aaI-3
aI1
ag689
a(lp2671
I3130
aI3130
aaI-1
aI1
ag682
a(lp2672
I3133
aI3133
aaI-1
aI1
ag746
a(lp2673
I3136
aI3136
aaI-1
aI1
aS'Subtype'
p2674
a(lp2675
I3147
aI3147
aaI-1
aI1
aS'AS'
p2676
a(lp2677
I3125
aI3125
aaI-1
aI1
ag88
a(lp2678
I3148
aI3148
aaI-1
aI1
aS'removed'
p2679
a(lp2680
I3152
aI3152
aaI-1
aI1
aS'PlaceHolder'
p2681
a(lp2682
I3144
aI3144
aaI-1
aI1
ag29
a(lp2683
I3142
aI3142
aaI-1
aI1
aS'MK'
p2684
a(lp2685
I3137
aI3140
aaI1
aS'CA'
p2686
a(lp2687
I3140
aI3140
aaI-1
aI1
aS'BG'
p2688
a(lp2689
I3139
aI3139
aaI-1
aI1
aS'BC'
p2690
a(lp2691
I3138
aI3138
aaI-2
aI1
aS'MaxLen'
p2692
a(lp2693
I3141
aI3141
aaI-1
aI1
aS'Border'
p2694
a(lp2695
I3129
aI3129
aaI-2
aI1
aS'<nn>'
p2696
a(lp2697
I2922
aI2922
aaI-1
aI1
aS'Type'
p2698
a(lp2699
I3482
aI3482
aaI-1
aI1
aS'Metadata'
p2700
a(lp2701
I3092
aI3095
aaI1
aS'Subtype'
p2702
a(lp2703
I3094
aI3094
aaI-1
aI1
aS'Length'
p2704
a(lp2705
I3093
aI3093
aaI-1
aI1
aS'Type'
p2706
a(lp2707
I3095
aI3095
aaI-2
aI1
aS'ParentTree'
p2708
a(lp2709
I3154
aI3266
aaI1
aS'Limits'
p2710
a(lp2711
I3155
aI3155
aaI-1
aI1
aS'Nums'
p2712
a(lp2713
I3156
aI3266
aaI1
ag33
a(lp2714
I3157
aI3195
aaI1
aS'FontStyle'
p2715
a(lp2716
I3173
aI3173
aaI-1
aI1
aS'ColumnGap'
p2717
a(lp2718
I3167
aI3167
aaI-1
aI1
aS'Width'
p2719
a(lp2720
I3194
aI3194
aaI-1
aI1
aS'BaselineShift'
p2721
a(lp2722
I3160
aI3160
aaI-1
aI1
aS'BlockAlign'
p2723
a(lp2724
I3161
aI3161
aaI-1
aI1
aS'BBox'
p2725
a(lp2726
I3158
aI3158
aaI-1
aI1
aS'Scope'
p2727
a(lp2728
I3183
aI3183
aaI-1
aI1
aS'BorderStyle'
p2729
a(lp2730
I3163
aI3163
aaI-1
aI1
aS'ColumnCount'
p2731
a(lp2732
I3166
aI3166
aaI-1
aI1
aS'RowSpan'
p2733
a(lp2734
I3182
aI3182
aaI-1
aI1
aS'TextDecorationType'
p2735
a(lp2736
I3191
aI3191
aaI-1
aI1
aS'Underline'
p2737
a(lp2738
I3193
aI3193
aaI-1
aI1
aS'FontFamily'
p2739
a(lp2740
I3171
aI3171
aaI-1
aI1
aS'InlineAlign'
p2741
a(lp2742
I3177
aI3177
aaI-1
aI1
aS'TextDecorationColor'
p2743
a(lp2744
I3190
aI3190
aaI-1
aI1
aS'BorderColor'
p2745
a(lp2746
I3162
aI3162
aaI-1
aI1
aS'SpaceBefore'
p2747
a(lp2748
I3185
aI3185
aaI-1
aI1
aS'Placement'
p2749
a(lp2750
I3181
aI3181
aaI-1
aI1
aS'ColSpan'
p2751
a(lp2752
I3165
aI3165
aaI-1
aI1
aS'BorderThickness'
p2753
a(lp2754
I3164
aI3164
aaI-1
aI1
ag101
a(lp2755
I3180
aI3180
aaI-1
aI1
aS'Headers'
p2756
a(lp2757
I3175
aI3175
aaI-1
aI1
aS'WritingMode'
p2758
a(lp2759
I3195
aI3195
aaI-1
aI1
aS'FontSize'
p2760
a(lp2761
I3172
aI3172
aaI-1
aI1
aS'BackgroundColor'
p2762
a(lp2763
I3159
aI3159
aaI-1
aI1
aS'LineHeight'
p2764
a(lp2765
I3178
aI3178
aaI-1
aI1
aS'TextColor'
p2766
a(lp2767
I3189
aI3189
aaI-1
aI1
aS'SpaceAfter'
p2768
a(lp2769
I3184
aI3184
aaI-1
aI1
aS'EndIndent'
p2770
a(lp2771
I3170
aI3170
aaI-1
aI1
aS'StrikeOut'
p2772
a(lp2773
I3187
aI3187
aaI-1
aI1
aS'Encoding'
p2774
a(lp2775
I3169
aI3169
aaI-1
aI1
aS'Height'
p2776
a(lp2777
I3176
aI3176
aaI-1
aI1
aS'ListNumbering'
p2778
a(lp2779
I3179
aI3179
aaI-1
aI1
aS'FontWeight'
p2780
a(lp2781
I3174
aI3174
aaI-1
aI1
aS'StartIndent'
p2782
a(lp2783
I3186
aI3186
aaI-1
aI1
aS'ColumnWidths'
p2784
a(lp2785
I3168
aI3168
aaI-1
aI1
aS'TextAlign'
p2786
a(lp2787
I3188
aI3188
aaI-1
aI1
aS'TextIndent'
p2788
a(lp2789
I3192
aI3192
aaI-2
aI1
aS'Lang'
p2790
a(lp2791
I3204
aI3204
aaI-1
aI1
ag689
a(lp2792
I3198
aI3198
aaI-1
aI1
aS'E'
p2793
a(lp2794
I3200
aI3200
aaI-1
aI1
aS'ParentTreeNextKey'
p2795
a(lp2796
I3261
aI3261
aaI-1
aI1
ag97
a(lp2797
I3263
aI3263
aaI-1
aI1
aS'Stm'
p2798
a(lp2799
I3264
aI3264
aaI-1
aI1
aS'ParentTree'
p2800
a(lp2801
I3260
aI3260
aaI-1
aI1
aS'ID'
p2802
a(lp2803
I3201
aI3201
aaI-1
aI1
aS'Obj'
p2804
a(lp2805
I3206
aI3259
aaI1
aS'FT'
p2806
a(lp2807
I3241
aI3241
aaI-1
aI1
aS'DA'
p2808
a(lp2809
I3239
aI3239
aaI-1
aI1
aS'Pg'
p2810
a(lp2811
I3249
aI3249
aaI-1
aI2
aS'BS'
p2812
ag97
a(lp2813
I3234
aI3234
aaI-1
aI1
aS'Type'
p2814
a(lp2815
I3235
aI3235
aaI-1
aI1
ag59
a(lp2816
I3236
aI3236
aaI-2
aI1
aS'Type'
p2817
a(lp2818
I3257
aI3257
aaI-1
aI1
aS'ggPlaceHolder'
p2819
a(lp2820
I3258
aI3258
aaI-1
aI1
aS'TU'
p2821
a(lp2822
I3256
aI3256
aaI-1
aI1
aS'Ff'
p2823
a(lp2824
I3242
aI3242
aaI-1
aI3
aS'AP'
p2825
ag43
aS'Name'
p2826
a(lp2827
I3213
aI3222
aaI1
aS'Matrix'
p2828
a(lp2829
I3218
aI3218
aaI-1
aI1
aS'Filter'
p2830
a(lp2831
I3215
aI3215
aaI-1
aI1
aS'Subtype'
p2832
a(lp2833
I3221
aI3221
aaI-1
aI1
aS'Length'
p2834
a(lp2835
I3217
aI3217
aaI-1
aI1
aS'BBox'
p2836
a(lp2837
I3214
aI3214
aaI-1
aI1
aS'FormType'
p2838
a(lp2839
I3216
aI3216
aaI-1
aI1
aS'Type'
p2840
a(lp2841
I3222
aI3222
aaI-1
aI3
aS'Resources'
p2842
aS'Font'
p2843
aS'Name'
p2844
a(lp2845
I3219
aI3219
aaI-2
aI1
aS'ProcSet'
p2846
a(lp2847
I3220
aI3220
aaI-4
aI2
ag90
aS'Name'
p2848
a(lp2849
I3223
aI3232
aaI1
aS'Matrix'
p2850
a(lp2851
I3228
aI3228
aaI-1
aI1
aS'Filter'
p2852
a(lp2853
I3225
aI3225
aaI-1
aI1
aS'Subtype'
p2854
a(lp2855
I3231
aI3231
aaI-1
aI1
aS'Length'
p2856
a(lp2857
I3227
aI3227
aaI-1
aI1
aS'BBox'
p2858
a(lp2859
I3224
aI3224
aaI-1
aI1
aS'FormType'
p2860
a(lp2861
I3226
aI3226
aaI-1
aI1
aS'Type'
p2862
a(lp2863
I3232
aI3232
aaI-1
aI3
aS'Resources'
p2864
aS'Font'
p2865
aS'Name'
p2866
a(lp2867
I3229
aI3229
aaI-2
aI1
aS'ProcSet'
p2868
a(lp2869
I3230
aI3230
aaI-5
aI1
aS'Rect'
p2870
a(lp2871
I3252
aI3252
aaI-1
aI1
aS'StructParent'
p2872
a(lp2873
I3253
aI3253
aaI-1
aI1
ag33
a(lp2874
I3207
aI3212
aaI1
ag97
a(lp2875
I3210
aI3210
aaI-1
aI1
aS'Type'
p2876
a(lp2877
I3211
aI3211
aaI-1
aI1
ag43
a(lp2878
I3208
aI3208
aaI-1
aI1
aS'URI'
p2879
a(lp2880
I3212
aI3212
aaI-1
aI1
aS'IsMap'
p2881
a(lp2882
I3209
aI3209
aaI-2
aI1
ag689
a(lp2883
I3238
aI3238
aaI-1
aI1
ag682
a(lp2884
I3240
aI3240
aaI-1
aI1
ag746
a(lp2885
I3243
aI3243
aaI-1
aI1
ag748
a(lp2886
I3244
aI3244
aaI-1
aI1
ag796
a(lp2887
I3251
aI3251
aaI-1
aI1
aS'Subtype'
p2888
a(lp2889
I3254
aI3254
aaI-1
aI1
aS'AS'
p2890
a(lp2891
I3233
aI3233
aaI-1
aI1
ag88
a(lp2892
I3255
aI3255
aaI-1
aI1
aS'removed'
p2893
a(lp2894
I3259
aI3259
aaI-1
aI1
aS'PlaceHolder'
p2895
a(lp2896
I3250
aI3250
aaI-1
aI1
ag29
a(lp2897
I3248
aI3248
aaI-1
aI1
aS'MK'
p2898
a(lp2899
I3245
aI3246
aaI1
aS'CA'
p2900
a(lp2901
I3246
aI3246
aaI-2
aI1
aS'MaxLen'
p2902
a(lp2903
I3247
aI3247
aaI-1
aI1
aS'Border'
p2904
a(lp2905
I3237
aI3237
aaI-2
aI1
aS'ClassMap'
p2906
a(lp2907
I3199
aI3199
aaI-1
aI1
aS'Pg'
p2908
a(lp2909
I3262
aI3262
aaI-1
aI1
aS'IDTree'
p2910
a(lp2911
I3202
aI3203
aaI1
aS'Names'
p2912
a(lp2913
I3203
aI3203
aaI-2
aI1
aS'Alt'
p2914
a(lp2915
I3197
aI3197
aaI-1
aI1
aS'MCID'
p2916
a(lp2917
I3205
aI3205
aaI-1
aI1
aS'Type'
p2918
a(lp2919
I3266
aI3266
aaI-1
aI1
aS'ActualText'
p2920
a(lp2921
I3196
aI3196
aaI-1
aI1
ag88
a(lp2922
I3265
aI3265
aaI-3
aI1
aS'MCID'
p2923
a(lp2924
I3091
aI3091
aaI-1
aI1
ag33
a(lp2925
I2923
aI2953
aaI1
aS'ColumnGap'
p2926
a(lp2927
I2933
aI2933
aaI-1
aI1
aS'Width'
p2928
a(lp2929
I2952
aI2952
aaI-1
aI1
aS'BaselineShift'
p2930
a(lp2931
I2926
aI2926
aaI-1
aI1
aS'BlockAlign'
p2932
a(lp2933
I2927
aI2927
aaI-1
aI1
aS'BBox'
p2934
a(lp2935
I2924
aI2924
aaI-1
aI1
aS'Scope'
p2936
a(lp2937
I2944
aI2944
aaI-1
aI1
aS'BorderStyle'
p2938
a(lp2939
I2929
aI2929
aaI-1
aI1
aS'ColumnCount'
p2940
a(lp2941
I2932
aI2932
aaI-1
aI1
aS'RowSpan'
p2942
a(lp2943
I2943
aI2943
aaI-1
aI1
aS'TextDecorationType'
p2944
a(lp2945
I2950
aI2950
aaI-1
aI1
aS'InlineAlign'
p2946
a(lp2947
I2938
aI2938
aaI-1
aI1
aS'TextDecorationColor'
p2948
a(lp2949
I2949
aI2949
aaI-1
aI1
aS'BorderColor'
p2950
a(lp2951
I2928
aI2928
aaI-1
aI1
aS'SpaceBefore'
p2952
a(lp2953
I2946
aI2946
aaI-1
aI1
aS'Placement'
p2954
a(lp2955
I2942
aI2942
aaI-1
aI1
aS'ColSpan'
p2956
a(lp2957
I2931
aI2931
aaI-1
aI1
aS'BorderThickness'
p2958
a(lp2959
I2930
aI2930
aaI-1
aI1
ag101
a(lp2960
I2941
aI2941
aaI-1
aI1
aS'Headers'
p2961
a(lp2962
I2936
aI2936
aaI-1
aI1
aS'WritingMode'
p2963
a(lp2964
I2953
aI2953
aaI-1
aI1
aS'BackgroundColor'
p2965
a(lp2966
I2925
aI2925
aaI-1
aI1
aS'LineHeight'
p2967
a(lp2968
I2939
aI2939
aaI-1
aI1
aS'SpaceAfter'
p2969
a(lp2970
I2945
aI2945
aaI-1
aI1
aS'EndIndent'
p2971
a(lp2972
I2935
aI2935
aaI-1
aI1
aS'Height'
p2973
a(lp2974
I2937
aI2937
aaI-1
aI1
aS'ListNumbering'
p2975
a(lp2976
I2940
aI2940
aaI-1
aI1
aS'StartIndent'
p2977
a(lp2978
I2947
aI2947
aaI-1
aI1
aS'ColumnWidths'
p2979
a(lp2980
I2934
aI2934
aaI-1
aI1
aS'TextAlign'
p2981
a(lp2982
I2948
aI2948
aaI-1
aI1
aS'TextIndent'
p2983
a(lp2984
I2951
aI2951
aaI-2
aI1
aS'RestoreTree'
p2985
a(lp2986
I3444
aI3474
aaI1
aS'Type'
p2987
a(lp2988
I3474
aI3474
aaI-1
aI1
aS'Nums'
p2989
a(lp2990
I3445
aI3473
aaI1
ag33
a(lp2991
I3446
aI3459
aaI1
aS'EndIndent'
p2992
a(lp2993
I3449
aI3449
aaI-1
aI1
aS'SpaceBefore'
p2994
a(lp2995
I3455
aI3455
aaI-1
aI1
aS'TextIndent'
p2996
a(lp2997
I3458
aI3458
aaI-1
aI1
aS'InlineAlign'
p2998
a(lp2999
I3451
aI3451
aaI-1
aI1
ag101
a(lp3000
I3453
aI3453
aaI-1
aI1
aS'Height'
p3001
a(lp3002
I3450
aI3450
aaI-1
aI1
aS'Width'
p3003
a(lp3004
I3459
aI3459
aaI-1
aI1
aS'BlockAlign'
p3005
a(lp3006
I3448
aI3448
aaI-1
aI1
aS'BBox'
p3007
a(lp3008
I3447
aI3447
aaI-1
aI1
aS'LineHeight'
p3009
a(lp3010
I3452
aI3452
aaI-1
aI1
aS'TextAlign'
p3011
a(lp3012
I3457
aI3457
aaI-1
aI1
aS'SpaceAfter'
p3013
a(lp3014
I3454
aI3454
aaI-1
aI1
aS'StartIndent'
p3015
a(lp3016
I3456
aI3456
aaI-2
aI1
ag256
a(lp3017
I3461
aI3467
aaI1
aS'Obj'
p3018
a(lp3019
I3463
aI3463
aaI-1
aI1
ag256
a(lp3020
I3462
aI3462
aaI-1
aI1
ag29
a(lp3021
I3464
aI3464
aaI-1
aI1
ag97
a(lp3022
I3466
aI3466
aaI-1
aI1
aS'Pg'
p3023
a(lp3024
I3465
aI3465
aaI-1
aI1
aS'Type'
p3025
a(lp3026
I3467
aI3467
aaI-2
aI1
ag29
a(lp3027
I3468
aI3471
aaI1
ag29
a(lp3028
I3470
aI3470
aaI-1
aI1
ag256
a(lp3029
I3469
aI3469
aaI-1
aI1
ag97
a(lp3030
I3471
aI3471
aaI-2
aI1
ag97
a(lp3031
I3473
aI3473
aaI-1
aI1
aS'Pg'
p3032
a(lp3033
I3472
aI3472
aaI-1
aI1
aS'Alt'
p3034
a(lp3035
I3460
aI3460
aaI-3
aI1
ag689
a(lp3036
I2956
aI2956
aaI-1
aI1
ag2793
a(lp3037
I2970
aI2970
aaI-1
aI1
aS'Filter'
p3038
a(lp3039
I2971
aI2971
aaI-1
aI2
aS'SpdrArt'
p3040
ag101
a(lp3041
I3480
aI3480
aaI-2
aI1
aS'Length'
p3042
a(lp3043
I3090
aI3090
aaI-1
aI1
ag88
a(lp3044
I3481
aI3481
aaI-1
aI1
aS'ID'
p3045
a(lp3046
I2972
aI2972
aaI-1
aI1
aS'ClassMap'
p3047
a(lp3048
I2957
aI2969
aaI1
aS'Name'
p3049
a(lp3050
I2958
aI2969
aaI1
aS'EndIndent'
p3051
a(lp3052
I2960
aI2960
aaI-1
aI1
aS'SpaceBefore'
p3053
a(lp3054
I2964
aI2964
aaI-1
aI1
aS'WritingMode'
p3055
a(lp3056
I2969
aI2969
aaI-1
aI1
ag101
a(lp3057
I2962
aI2962
aaI-1
aI1
aS'TextDecorationType'
p3058
a(lp3059
I2967
aI2967
aaI-1
aI1
aS'BaselineShift'
p3060
a(lp3061
I2959
aI2959
aaI-1
aI1
aS'StartIndent'
p3062
a(lp3063
I2965
aI2965
aaI-1
aI1
aS'LineHeight'
p3064
a(lp3065
I2961
aI2961
aaI-1
aI1
aS'TextAlign'
p3066
a(lp3067
I2966
aI2966
aaI-1
aI1
aS'SpaceAfter'
p3068
a(lp3069
I2963
aI2963
aaI-1
aI1
aS'TextIndent'
p3070
a(lp3071
I2968
aI2968
aaI-3
aI1
aS'Lang'
p3072
a(lp3073
I3089
aI3089
aaI-1
aI1
aS'RoleMap'
p3074
a(lp3075
I3475
aI3477
aaI1
aS'Name'
p3076
a(lp3077
I3478
aI3477
aaI1
aS' 1'
p3078
a(lp3079
I3477
aI3477
aaI-3
aI1
aS'IDTree'
p3080
a(lp3081
I2973
aI3076
aaI1
aS'Names'
p3082
a(lp3083
I2975
aI3076
aaI1
ag33
a(lp3084
I2976
aI2987
aaI1
aS'BorderColor'
p3085
a(lp3086
I2978
aI2978
aaI-1
aI1
aS'RowSpan'
p3087
a(lp3088
I2986
aI2986
aaI-1
aI1
aS'Width'
p3089
a(lp3090
I2987
aI2987
aaI-1
aI1
aS'ColSpan'
p3091
a(lp3092
I2981
aI2981
aaI-1
aI1
aS'InlineAlign'
p3093
a(lp3094
I2984
aI2984
aaI-1
aI1
aS'Height'
p3095
a(lp3096
I2983
aI2983
aaI-1
aI1
aS'Headers'
p3097
a(lp3098
I2982
aI2982
aaI-1
aI1
aS'BlockAlign'
p3099
a(lp3100
I2977
aI2977
aaI-1
aI1
ag101
a(lp3101
I2985
aI2985
aaI-1
aI1
aS'BorderThickness'
p3102
a(lp3103
I2980
aI2980
aaI-1
aI1
aS'BorderStyle'
p3104
a(lp3105
I2979
aI2979
aaI-2
aI1
aS'Lang'
p3106
a(lp3107
I3021
aI3021
aaI-1
aI1
ag256
a(lp3108
I2989
aI3020
aaI1
ag2793
a(lp3109
I2990
aI2990
aaI-1
aI1
ag256
a(lp3110
I2991
aI3016
aaI1
ag33
a(lp3111
I2992
aI2996
aaI1
aS'SpaceAfter'
p3112
a(lp3113
I2995
aI2995
aaI-1
aI1
aS'SpaceBefore'
p3114
a(lp3115
I2996
aI2996
aaI-1
aI1
aS'BBox'
p3116
a(lp3117
I2993
aI2993
aaI-1
aI1
ag101
a(lp3118
I2994
aI2994
aaI-2
aI1
aS'Obj'
p3119
a(lp3120
I3012
aI3012
aaI-1
aI1
ag256
a(lp3121
I2997
aI3011
aaI1
ag33
a(lp3122
I2998
aI3001
aaI1
aS'SpaceAfter'
p3123
a(lp3124
I3001
aI3001
aaI-1
aI1
aS'BBox'
p3125
a(lp3126
I2999
aI2999
aaI-1
aI1
ag101
a(lp3127
I3000
aI3000
aaI-2
aI1
ag29
a(lp3128
I3010
aI3010
aaI-1
aI1
ag256
a(lp3129
I3002
aI3009
aaI1
ag29
a(lp3130
I3007
aI3007
aaI-1
aI1
ag256
a(lp3131
I3003
aI3006
aaI1
ag29
a(lp3132
I3004
aI3004
aaI-1
aI1
ag97
a(lp3133
I3005
aI3005
aaI-1
aI1
ag88
a(lp3134
I3006
aI3006
aaI-2
aI1
ag97
a(lp3135
I3008
aI3008
aaI-1
aI1
ag88
a(lp3136
I3009
aI3009
aaI-2
aI1
ag97
a(lp3137
I3011
aI3011
aaI-2
aI1
ag29
a(lp3138
I3013
aI3013
aaI-1
aI1
ag97
a(lp3139
I3015
aI3015
aaI-1
aI1
aS'Pg'
p3140
a(lp3141
I3014
aI3014
aaI-1
aI1
aS'Type'
p3142
a(lp3143
I3016
aI3016
aaI-2
aI1
ag29
a(lp3144
I3017
aI3017
aaI-1
aI1
ag97
a(lp3145
I3019
aI3019
aaI-1
aI1
aS'Pg'
p3146
a(lp3147
I3018
aI3018
aaI-1
aI1
ag88
a(lp3148
I3020
aI3020
aaI-2
aI1
ag29
a(lp3149
I3022
aI3073
aaI1
aS'Lang'
p3150
a(lp3151
I3047
aI3047
aaI-1
aI1
ag29
a(lp3152
I3048
aI3071
aaI1
aS'Lang'
p3153
a(lp3154
I3063
aI3063
aaI-1
aI1
ag29
a(lp3155
I3064
aI3070
aaI1
ag29
a(lp3156
I3069
aI3069
aaI-1
aI1
ag256
a(lp3157
I3065
aI3068
aaI1
ag29
a(lp3158
I3067
aI3067
aaI-1
aI1
ag256
a(lp3159
I3066
aI3066
aaI-1
aI1
ag97
a(lp3160
I3068
aI3068
aaI-2
aI1
ag97
a(lp3161
I3070
aI3070
aaI-2
aI1
ag256
a(lp3162
I3049
aI3062
aaI1
aS'Lang'
p3163
a(lp3164
I3060
aI3060
aaI-1
aI1
ag29
a(lp3165
I3061
aI3061
aaI-1
aI1
ag256
a(lp3166
I3050
aI3059
aaI1
ag33
a(lp3167
I3051
aI3053
aaI1
aS'Headers'
p3168
a(lp3169
I3052
aI3052
aaI-1
aI1
ag101
a(lp3170
I3053
aI3053
aaI-2
aI1
aS'Lang'
p3171
a(lp3172
I3057
aI3057
aaI-1
aI1
ag256
a(lp3173
I3054
aI3056
aaI1
ag29
a(lp3174
I3055
aI3055
aaI-1
aI1
ag97
a(lp3175
I3056
aI3056
aaI-2
aI1
ag97
a(lp3176
I3059
aI3059
aaI-1
aI1
ag29
a(lp3177
I3058
aI3058
aaI-2
aI1
ag97
a(lp3178
I3062
aI3062
aaI-2
aI1
ag97
a(lp3179
I3071
aI3071
aaI-2
aI1
ag256
a(lp3180
I3023
aI3046
aaI1
ag33
a(lp3181
I3024
aI3034
aaI1
aS'BorderColor'
p3182
a(lp3183
I3026
aI3026
aaI-1
aI1
aS'Width'
p3184
a(lp3185
I3034
aI3034
aaI-1
aI1
aS'InlineAlign'
p3186
a(lp3187
I3031
aI3031
aaI-1
aI1
ag101
a(lp3188
I3032
aI3032
aaI-1
aI1
aS'Height'
p3189
a(lp3190
I3030
aI3030
aaI-1
aI1
aS'Headers'
p3191
a(lp3192
I3029
aI3029
aaI-1
aI1
aS'BlockAlign'
p3193
a(lp3194
I3025
aI3025
aaI-1
aI1
aS'BorderThickness'
p3195
a(lp3196
I3028
aI3028
aaI-1
aI1
aS'Scope'
p3197
a(lp3198
I3033
aI3033
aaI-1
aI1
aS'BorderStyle'
p3199
a(lp3200
I3027
aI3027
aaI-2
aI1
aS'Lang'
p3201
a(lp3202
I3042
aI3042
aaI-1
aI1
ag256
a(lp3203
I3036
aI3041
aaI1
ag97
a(lp3204
I3040
aI3040
aaI-1
aI1
ag29
a(lp3205
I3039
aI3039
aaI-1
aI1
ag256
a(lp3206
I3038
aI3038
aaI-1
aI1
aS'ActualText'
p3207
a(lp3208
I3037
aI3037
aaI-1
aI1
ag88
a(lp3209
I3041
aI3041
aaI-2
aI1
ag29
a(lp3210
I3043
aI3043
aaI-1
aI1
ag97
a(lp3211
I3045
aI3045
aaI-1
aI1
aS'Pg'
p3212
a(lp3213
I3044
aI3044
aaI-1
aI1
aS'ActualText'
p3214
a(lp3215
I3035
aI3035
aaI-1
aI1
ag88
a(lp3216
I3046
aI3046
aaI-2
aI1
ag97
a(lp3217
I3072
aI3072
aaI-1
aI1
ag88
a(lp3218
I3073
aI3073
aaI-2
aI1
ag97
a(lp3219
I3075
aI3075
aaI-1
aI1
aS'Pg'
p3220
a(lp3221
I3074
aI3074
aaI-1
aI1
aS'ID'
p3222
a(lp3223
I2988
aI2988
aaI-1
aI1
ag88
a(lp3224
I3076
aI3076
aaI-2
aI1
aS'Limits'
p3225
a(lp3226
I2974
aI2974
aaI-2
aI1
aS'Alt'
p3227
a(lp3228
I2955
aI2955
aaI-1
aI1
aS'ActualText'
p3229
a(lp3230
I2954
aI2954
aaI-1
aI1
aS'Par8'
p3231
a(lp3232
I3153
aI3153
aaI-2
aI1
aS'DefaultGray'
p3233
a(lp3234
I457
aI459
aaI1
aS'WhitePoint'
p3235
a(lp3236
I459
aI459
aaI-1
aI1
aS'Gamma'
p3237
a(lp3238
I458
aI458
aaI-2
aI1
aS'AA'
p3239
a(lp3240
I2
aI2
aaI-1
aI1
ag2793
a(lp3241
I465
aI465
aaI-1
aI1
ag90
a(lp3242
I506
aI506
aaI-1
aI1
ag746
a(lp3243
I473
aI473
aaI-1
aI1
aS'L'
p3244
a(lp3245
I495
aI495
aaI-1
aI1
ag101
a(lp3246
I649
aI649
aaI-1
aI1
aS'Linearized'
p3247
a(lp3248
I498
aI498
aaI-1
aI1
aS'Extensions'
p3249
a(lp3250
I466
aI468
aaI2
aS'Name'
p3251
aS'ExtensionLevel'
p3252
a(lp3253
I468
aI468
aaI-1
aI1
aS'BaseVersion'
p3254
a(lp3255
I467
aI467
aaI-3
aI1
ag88
a(lp3256
I3483
aI3483
aaI-1
aI1
aS'PieceInfo'
p3257
a(lp3258
I2886
aI2903
aaI2
aS'MarkedPDF'
p3259
aS'LastModified'
p3260
a(lp3261
I2887
aI2887
aaI-2
aI1
aS'PDFWP'
p3262
a(lp3263
I2888
aI2903
aaI1
aS'LastModified'
p3264
a(lp3265
I2889
aI2889
aaI-1
aI1
aS'Private'
p3266
a(lp3267
I2890
aI2903
aaI1
aS'Version'
p3268
a(lp3269
I2903
aI2903
aaI-1
aI1
aS'MasterPages'
p3270
a(lp3271
I2902
aI2902
aaI-1
aI1
aS'Flows'
p3272
a(lp3273
I2891
aI2901
aaI1
aS'Names'
p3274
a(lp3275
I2892
aI2901
aaI1
aS'Type'
p3276
a(lp3277
I2901
aI2901
aaI-1
aI1
aS'Name'
p3278
a(lp3279
I2900
aI2900
aaI-1
aI1
ag682
a(lp3280
I2893
aI2899
aaI1
ag682
a(lp3281
I2894
aI2894
aaI-1
aI1
ag101
a(lp3282
I2896
aI2896
aaI-1
aI1
ag90
a(lp3283
I2895
aI2895
aaI-1
aI1
ag29
a(lp3284
I2897
aI2897
aaI-1
aI1
ag69
a(lp3285
I2899
aI2899
aaI-1
aI1
aS'Type'
p3286
a(lp3287
I2898
aI2898
aaI-7
aI1
aS'NeedsRendering'
p3288
a(lp3289
I648
aI648
aaI-1
aI2
aS'OutputIntents'
p3290
aS'Info'
p3291
a(lp3292
I1536
aI1536
aaI-1
aI1
aS'RegistryName'
p3293
a(lp3294
I1538
aI1538
aaI-1
aI1
ag97
a(lp3295
I1539
aI1539
aaI-1
aI1
aS'Type'
p3296
a(lp3297
I1540
aI1540
aaI-1
aI1
aS'OutputConditionIdentifier'
p3298
a(lp3299
I1537
aI1537
aaI-1
aI1
aS'DestOutputProfile'
p3300
a(lp3301
I1532
aI1535
aaI1
aS'Filter'
p3302
a(lp3303
I1533
aI1533
aaI-1
aI1
aS'Length'
p3304
a(lp3305
I1534
aI1534
aaI-1
aI1
ag90
a(lp3306
I1535
aI1535
aaI-3
aI1
aS'PageLayout'
p3307
a(lp3308
I1551
aI1551
aaI-1
aI1
aS'Perms'
p3309
a(lp3310
I2748
aI2885
aaI1
aS'DocMDP'
p3311
a(lp3312
I2749
aI2784
aaI1
aS'Name'
p3313
a(lp3314
I2756
aI2756
aaI-1
aI3
aS'Reference'
p3315
aS'TransformParams'
p3316
aS'Action'
p3317
a(lp3318
I2777
aI2777
aaI-1
aI1
aS'Fields'
p3319
a(lp3320
I2778
aI2778
aaI-1
aI1
ag69
a(lp3321
I2781
aI2781
aaI-1
aI1
aS'Type'
p3322
a(lp3323
I2780
aI2780
aaI-1
aI1
ag29
a(lp3324
I2779
aI2779
aaI-2
aI1
aS'DigestValue'
p3325
a(lp3326
I2775
aI2775
aaI-1
aI1
aS'Type'
p3327
a(lp3328
I2782
aI2782
aaI-1
aI1
aS'DigestLocation'
p3329
a(lp3330
I2773
aI2773
aaI-1
aI1
aS'DigestMethod'
p3331
a(lp3332
I2774
aI2774
aaI-1
aI1
aS'TransformMethod'
p3333
a(lp3334
I2776
aI2776
aaI-1
aI1
aS'Data'
p3335
a(lp3336
I2766
aI2772
aaI1
aS'Perms'
p3337
a(lp3338
I2770
aI2770
aaI-1
aI1
aS'Version'
p3339
a(lp3340
I2772
aI2772
aaI-1
aI1
aS'AcroForm'
p3341
a(lp3342
I2767
aI2767
aaI-1
aI1
aS'Type'
p3343
a(lp3344
I2771
aI2771
aaI-1
aI1
aS'Pages'
p3345
a(lp3346
I2769
aI2769
aaI-1
aI1
aS'Metadata'
p3347
a(lp3348
I2768
aI2768
aaI-3
aI3
aS'Prop_Build'
p3349
aS'Filter'
p3350
aS'Date'
p3351
a(lp3352
I2761
aI2761
aaI-1
aI1
ag52
a(lp3353
I2764
aI2764
aaI-1
aI1
aS'PreRelease'
p3354
a(lp3355
I2763
aI2763
aaI-1
aI1
aS'Name'
p3356
a(lp3357
I2762
aI2762
aaI-2
aI2
aS'App'
p3358
aS'REx'
p3359
a(lp3360
I2759
aI2759
aaI-1
aI1
aS'OS'
p3361
a(lp3362
I2758
aI2758
aaI-1
aI1
aS'Name'
p3363
a(lp3364
I2757
aI2757
aaI-1
aI1
aS'TrustedMode'
p3365
a(lp3366
I2760
aI2760
aaI-3
aI1
ag748
a(lp3367
I2755
aI2755
aaI-1
aI1
aS'Filter'
p3368
a(lp3369
I2753
aI2753
aaI-1
aI1
aS'Reason'
p3370
a(lp3371
I2765
aI2765
aaI-1
aI1
aS'ByteRange'
p3372
a(lp3373
I2750
aI2750
aaI-1
aI1
aS'Location'
p3374
a(lp3375
I2754
aI2754
aaI-1
aI1
aS'ContactInfo'
p3376
a(lp3377
I2751
aI2751
aaI-1
aI1
aS'Type'
p3378
a(lp3379
I2784
aI2784
aaI-1
aI1
aS'SubFilter'
p3380
a(lp3381
I2783
aI2783
aaI-1
aI1
aS'Contents'
p3382
a(lp3383
I2752
aI2752
aaI-2
aI1
aS'UR3'
p3384
a(lp3385
I2785
aI2885
aaI1
aS'Name'
p3386
a(lp3387
I2790
aI2790
aaI-1
aI2
aS'Reference'
p3388
aS'TransformMethod'
p3389
a(lp3390
I2874
aI2874
aaI-1
aI2
aS'TransformParams'
p3391
ag69
a(lp3392
I2882
aI2882
aaI-1
aI1
aS'Form'
p3393
a(lp3394
I2878
aI2878
aaI-1
aI1
aS'EF'
p3395
a(lp3396
I2877
aI2877
aaI-1
aI1
aS'Annots'
p3397
a(lp3398
I2875
aI2875
aaI-1
aI1
aS'Signature'
p3399
a(lp3400
I2880
aI2880
aaI-1
aI1
aS'Msg'
p3401
a(lp3402
I2879
aI2879
aaI-1
aI1
aS'Document'
p3403
a(lp3404
I2876
aI2876
aaI-1
aI1
aS'Type'
p3405
a(lp3406
I2881
aI2881
aaI-2
aI1
aS'Type'
p3407
a(lp3408
I2883
aI2883
aaI-1
aI1
aS'Data'
p3409
a(lp3410
I2805
aI2873
aaI1
aS'DGAPChanges'
p3411
a(lp3412
I2812
aI2812
aaI-1
aI1
aS'Lang'
p3413
a(lp3414
I2817
aI2817
aaI-1
aI1
aS'FICL:Enfocus'
p3415
a(lp3416
I2815
aI2815
aaI-1
aI1
aS'JT'
p3417
a(lp3418
I2816
aI2816
aaI-1
aI1
aS'ViewerPreferences'
p3419
a(lp3420
I2872
aI2873
aaI1
aS'Direction'
p3421
a(lp3422
I2873
aI2873
aaI-2
aI1
aS'MarkInfo'
p3423
a(lp3424
I2818
aI2819
aaI1
aS'Marked'
p3425
a(lp3426
I2819
aI2819
aaI-2
aI1
aS'OpenAction'
p3427
a(lp3428
I2833
aI2833
aaI-1
aI1
aS'Version'
p3429
a(lp3430
I2871
aI2871
aaI-1
aI1
aS'AcroForm'
p3431
a(lp3432
I2807
aI2811
aaI1
aS'Fields'
p3433
a(lp3434
I2810
aI2810
aaI-1
aI1
aS'DR'
p3435
a(lp3436
I2809
aI2809
aaI-1
aI1
aS'SigFlags'
p3437
a(lp3438
I2811
aI2811
aaI-1
aI1
aS'DA'
p3439
a(lp3440
I2808
aI2808
aaI-2
aI1
aS'Type'
p3441
a(lp3442
I2870
aI2870
aaI-1
aI1
aS'Metadata'
p3443
a(lp3444
I2820
aI2820
aaI-1
aI1
aS'Pages'
p3445
a(lp3446
I2838
aI2838
aaI-1
aI1
aS'AA'
p3447
a(lp3448
I2806
aI2806
aaI-1
aI1
aS'StructTreeRoot'
p3449
a(lp3450
I2869
aI2869
aaI-1
aI1
aS'NeedsRendering'
p3451
a(lp3452
I2822
aI2822
aaI-1
aI3
aS'Extensions'
p3453
aS'ADBE'
p3454
aS'ExtensionLevel'
p3455
a(lp3456
I2814
aI2814
aaI-1
aI1
aS'BaseVersion'
p3457
a(lp3458
I2813
aI2813
aaI-3
aI1
aS'PageLayout'
p3459
a(lp3460
I2836
aI2836
aaI-1
aI1
aS'Perms'
p3461
a(lp3462
I2839
aI2868
aaI1
aS'UR3'
p3463
a(lp3464
I2840
aI2868
aaI1
aS'Name'
p3465
a(lp3466
I2845
aI2845
aaI-1
aI2
aS'Reference'
p3467
aS'TransformMethod'
p3468
a(lp3469
I2859
aI2859
aaI-1
aI2
aS'TransformParams'
p3470
aS'Form'
p3471
a(lp3472
I2862
aI2862
aaI-1
aI1
aS'Signature'
p3473
a(lp3474
I2863
aI2863
aaI-1
aI1
aS'Annots'
p3475
a(lp3476
I2860
aI2860
aaI-1
aI1
ag69
a(lp3477
I2865
aI2865
aaI-1
aI1
aS'Document'
p3478
a(lp3479
I2861
aI2861
aaI-1
aI1
aS'Type'
p3480
a(lp3481
I2864
aI2864
aaI-2
aI1
aS'Type'
p3482
a(lp3483
I2866
aI2866
aaI-1
aI1
aS'Data'
p3484
a(lp3485
I2858
aI2858
aaI-2
aI3
aS'Prop_Build'
p3486
aS'Filter'
p3487
aS'Date'
p3488
a(lp3489
I2851
aI2851
aaI-1
aI1
ag52
a(lp3490
I2853
aI2853
aaI-1
aI1
aS'Name'
p3491
a(lp3492
I2852
aI2852
aaI-1
aI1
ag69
a(lp3493
I2854
aI2854
aaI-2
aI2
aS'App'
p3494
aS'REx'
p3495
a(lp3496
I2849
aI2849
aaI-1
aI1
ag52
a(lp3497
I2848
aI2848
aaI-1
aI1
aS'OS'
p3498
a(lp3499
I2847
aI2847
aaI-1
aI1
aS'Name'
p3500
a(lp3501
I2846
aI2846
aaI-1
aI1
aS'TrustedMode'
p3502
a(lp3503
I2850
aI2850
aaI-2
aI2
aS'PubSec'
p3504
aS'Date'
p3505
a(lp3506
I2855
aI2855
aaI-1
aI1
aS'NonEFontNoWarn'
p3507
a(lp3508
I2856
aI2856
aaI-1
aI1
ag52
a(lp3509
I2857
aI2857
aaI-3
aI1
ag748
a(lp3510
I2844
aI2844
aaI-1
aI1
aS'Filter'
p3511
a(lp3512
I2843
aI2843
aaI-1
aI1
aS'ByteRange'
p3513
a(lp3514
I2841
aI2841
aaI-1
aI1
aS'Type'
p3515
a(lp3516
I2868
aI2868
aaI-1
aI1
aS'SubFilter'
p3517
a(lp3518
I2867
aI2867
aaI-1
aI1
aS'Contents'
p3519
a(lp3520
I2842
aI2842
aaI-3
aI1
aS'PageLabels'
p3521
a(lp3522
I2835
aI2835
aaI-1
aI1
aS'Outlines'
p3523
a(lp3524
I2834
aI2834
aaI-1
aI2
aS'OCProperties'
p3525
aS'OCGs'
p3526
a(lp3527
I2832
aI2832
aaI-1
aI2
ag43
aS'ON'
p3528
a(lp3529
I2829
aI2829
aaI-1
aI1
aS'OFF'
p3530
a(lp3531
I2828
aI2828
aaI-1
aI2
aS'AS'
p3532
aS'Category'
p3533
a(lp3534
I2823
aI2823
aaI-1
aI1
aS'OCGs'
p3535
a(lp3536
I2825
aI2825
aaI-1
aI1
aS'Event'
p3537
a(lp3538
I2824
aI2824
aaI-2
aI1
aS'RBGroups'
p3539
a(lp3540
I2831
aI2831
aaI-1
aI1
aS'Locked'
p3541
a(lp3542
I2827
aI2827
aaI-1
aI1
aS'BaseState'
p3543
a(lp3544
I2826
aI2826
aaI-1
aI1
aS'Order'
p3545
a(lp3546
I2830
aI2830
aaI-3
aI1
aS'Names'
p3547
a(lp3548
I2821
aI2821
aaI-1
aI1
aS'PageMode'
p3549
a(lp3550
I2837
aI2837
aaI-3
aI3
aS'Prop_Build'
p3551
aS'Filter'
p3552
aS'Date'
p3553
a(lp3554
I2797
aI2797
aaI-1
aI1
ag52
a(lp3555
I2800
aI2800
aaI-1
aI1
aS'PreRelease'
p3556
a(lp3557
I2799
aI2799
aaI-1
aI1
aS'Name'
p3558
a(lp3559
I2798
aI2798
aaI-1
aI1
ag69
a(lp3560
I2801
aI2801
aaI-2
aI2
aS'App'
p3561
aS'REx'
p3562
a(lp3563
I2795
aI2795
aaI-1
aI1
aS'Name'
p3564
a(lp3565
I2792
aI2792
aaI-1
aI1
ag52
a(lp3566
I2794
aI2794
aaI-1
aI1
aS'TrustedMode'
p3567
a(lp3568
I2796
aI2796
aaI-1
aI1
aS'Date'
p3569
a(lp3570
I2791
aI2791
aaI-1
aI1
aS'OS'
p3571
a(lp3572
I2793
aI2793
aaI-2
aI2
aS'PubSec'
p3573
aS'Date'
p3574
a(lp3575
I2802
aI2802
aaI-1
aI1
aS'NonEFontNoWarn'
p3576
a(lp3577
I2803
aI2803
aaI-1
aI1
ag52
a(lp3578
I2804
aI2804
aaI-3
aI1
ag748
a(lp3579
I2789
aI2789
aaI-1
aI1
aS'Filter'
p3580
a(lp3581
I2788
aI2788
aaI-1
aI1
aS'ByteRange'
p3582
a(lp3583
I2786
aI2786
aaI-1
aI1
aS'Type'
p3584
a(lp3585
I2885
aI2885
aaI-1
aI1
aS'SubFilter'
p3586
a(lp3587
I2884
aI2884
aaI-1
aI1
aS'Contents'
p3588
a(lp3589
I2787
aI2787
aaI-3
aI1
aS'Pages'
p3590
a(lp3591
I1553
aI2747
aaI1
aS'Count'
p3592
a(lp3593
I1848
aI1848
aaI-1
aI1
aS'XObject'
p3594
a(lp3595
I2743
aI2743
aaI-1
aI1
aS'Group'
p3596
a(lp3597
I1854
aI1863
aaI1
aS'CS'
p3598
a(lp3599
I1855
aI1859
aaI1
aS'Filter'
p3600
a(lp3601
I1857
aI1857
aaI-1
aI1
aS'Length'
p3602
a(lp3603
I1858
aI1858
aaI-1
aI1
aS'Alternate'
p3604
a(lp3605
I1856
aI1856
aaI-1
aI1
ag90
a(lp3606
I1859
aI1859
aaI-2
aI1
ag95
a(lp3607
I1860
aI1860
aaI-1
aI1
ag256
a(lp3608
I1861
aI1861
aaI-1
aI1
aS'Type'
p3609
a(lp3610
I1863
aI1863
aaI-1
aI1
ag97
a(lp3611
I1862
aI1862
aaI-2
aI1
aS'Thumb'
p3612
a(lp3613
I2716
aI2724
aaI1
aS'ColorSpace'
p3614
a(lp3615
I2718
aI2720
aaI1
aS'Filter'
p3616
a(lp3617
I2719
aI2719
aaI-1
aI1
aS'Length'
p3618
a(lp3619
I2720
aI2720
aaI-2
aI1
aS'Height'
p3620
a(lp3621
I2722
aI2722
aaI-1
aI1
aS'Filter'
p3622
a(lp3623
I2721
aI2721
aaI-1
aI1
aS'Width'
p3624
a(lp3625
I2724
aI2724
aaI-1
aI1
aS'Length'
p3626
a(lp3627
I2723
aI2723
aaI-1
aI1
aS'BitsPerComponent'
p3628
a(lp3629
I2717
aI2717
aaI-2
aI1
aS'LastModified'
p3630
a(lp3631
I1869
aI1869
aaI-1
aI1
aS'JavaScript'
p3632
a(lp3633
I1867
aI1868
aaI1
aS'Length'
p3634
a(lp3635
I1868
aI1868
aaI-2
aI1
aS'pdftk_PageNum'
p3636
a(lp3637
I2747
aI2747
aaI-1
aI1
aS'BleedBox'
p3638
a(lp3639
I1839
aI1839
aaI-1
aI1
aS'Marked'
p3640
a(lp3641
I1870
aI1870
aaI-1
aI1
aS'<nn>'
p3642
a(lp3643
I1554
aI1554
aaI-1
aI1
aS'Type'
p3644
a(lp3645
I2733
aI2733
aaI-1
aI1
aS'Resources'
p3646
a(lp3647
I1968
aI2711
aaI1
aS'XObject'
p3648
a(lp3649
I2402
aI2711
aaI1
aS'Name'
p3650
a(lp3651
I2403
aI2711
aaI1
aS'Group'
p3652
a(lp3653
I2433
aI2438
aaI1
aS'CS'
p3654
a(lp3655
I2434
aI2434
aaI-1
aI1
ag95
a(lp3656
I2435
aI2435
aaI-1
aI1
ag256
a(lp3657
I2436
aI2436
aaI-1
aI1
aS'Type'
p3658
a(lp3659
I2438
aI2438
aaI-1
aI1
ag97
a(lp3660
I2437
aI2437
aaI-2
aI1
aS'Matrix'
p3661
a(lp3662
I2457
aI2457
aaI-1
aI1
aS'LastModified'
p3663
a(lp3664
I2444
aI2444
aaI-1
aI1
aS'Decode'
p3665
a(lp3666
I2417
aI2417
aaI-1
aI1
aS'Width'
p3667
a(lp3668
I2709
aI2709
aaI-1
aI1
aS'ImageMask'
p3669
a(lp3670
I2440
aI2440
aaI-1
aI1
aS'BBox'
p3671
a(lp3672
I2404
aI2404
aaI-1
aI1
aS'Type'
p3673
a(lp3674
I2708
aI2708
aaI-1
aI1
aS'Resources'
p3675
a(lp3676
I2488
aI2682
aaI2
aS'XObject'
p3677
aS'Name'
p3678
a(lp3679
I2615
aI2682
aaI1
aS'DecodeParms'
p3680
a(lp3681
I2620
aI2622
aaI1
ag256
a(lp3682
I2622
aI2622
aaI-1
aI1
aS'Columns'
p3683
a(lp3684
I2621
aI2621
aaI-2
aI1
aS'Filter'
p3685
a(lp3686
I2623
aI2623
aaI-1
aI1
aS'SMask'
p3687
a(lp3688
I2661
aI2679
aaI2
aS'DecodeParms'
p3689
aS'Colors'
p3690
a(lp3691
I2666
aI2666
aaI-1
aI1
aS'Columns'
p3692
a(lp3693
I2667
aI2667
aaI-1
aI1
aS'BitsPerComponent'
p3694
a(lp3695
I2665
aI2665
aaI-2
aI1
aS'Filter'
p3696
a(lp3697
I2668
aI2668
aaI-1
aI1
aS'Name'
p3698
a(lp3699
I2676
aI2676
aaI-1
aI1
aS'Width'
p3700
a(lp3701
I2679
aI2679
aaI-1
aI1
aS'ColorSpace'
p3702
a(lp3703
I2663
aI2663
aaI-1
aI1
aS'Height'
p3704
a(lp3705
I2669
aI2669
aaI-1
aI1
aS'Decode'
p3706
a(lp3707
I2664
aI2664
aaI-1
aI1
aS'Subtype'
p3708
a(lp3709
I2677
aI2677
aaI-1
aI1
aS'Length'
p3710
a(lp3711
I2671
aI2671
aaI-1
aI1
aS'Intent'
p3712
a(lp3713
I2670
aI2670
aaI-1
aI1
aS'Type'
p3714
a(lp3715
I2678
aI2678
aaI-1
aI1
aS'BitsPerComponent'
p3716
a(lp3717
I2662
aI2662
aaI-1
aI1
aS'Metadata'
p3718
a(lp3719
I2672
aI2675
aaI1
aS'Subtype'
p3720
a(lp3721
I2674
aI2674
aaI-1
aI1
aS'Length'
p3722
a(lp3723
I2673
aI2673
aaI-1
aI1
aS'Type'
p3724
a(lp3725
I2675
aI2675
aaI-3
aI1
aS'Group'
p3726
a(lp3727
I2624
aI2629
aaI1
aS'CS'
p3728
a(lp3729
I2625
aI2625
aaI-1
aI1
ag95
a(lp3730
I2626
aI2626
aaI-1
aI1
ag256
a(lp3731
I2627
aI2627
aaI-1
aI1
aS'Type'
p3732
a(lp3733
I2629
aI2629
aaI-1
aI1
ag97
a(lp3734
I2628
aI2628
aaI-2
aI1
aS'Matrix'
p3735
a(lp3736
I2635
aI2635
aaI-1
aI1
aS'Width'
p3737
a(lp3738
I2682
aI2682
aaI-1
aI3
aS'Resources'
p3739
aS'ExtGState'
p3740
aS'Name'
p3741
a(lp3742
I2643
aI2643
aaI-2
aI2
aS'ColorSpace'
p3743
aS'Name'
p3744
a(lp3745
I2641
aI2642
aaI1
aS'Length'
p3746
a(lp3747
I2642
aI2642
aaI-3
aI2
aS'XObject'
p3748
aS'Name'
p3749
a(lp3750
I2645
aI2660
aaI1
aS'Filter'
p3751
a(lp3752
I2649
aI2649
aaI-1
aI1
aS'Name'
p3753
a(lp3754
I2657
aI2657
aaI-1
aI1
aS'Width'
p3755
a(lp3756
I2660
aI2660
aaI-1
aI1
aS'ColorSpace'
p3757
a(lp3758
I2647
aI2647
aaI-1
aI1
aS'Height'
p3759
a(lp3760
I2650
aI2650
aaI-1
aI1
aS'Decode'
p3761
a(lp3762
I2648
aI2648
aaI-1
aI1
aS'Subtype'
p3763
a(lp3764
I2658
aI2658
aaI-1
aI1
aS'Length'
p3765
a(lp3766
I2652
aI2652
aaI-1
aI1
aS'Intent'
p3767
a(lp3768
I2651
aI2651
aaI-1
aI1
aS'Type'
p3769
a(lp3770
I2659
aI2659
aaI-1
aI1
aS'BitsPerComponent'
p3771
a(lp3772
I2646
aI2646
aaI-1
aI1
aS'Metadata'
p3773
a(lp3774
I2653
aI2656
aaI1
aS'Subtype'
p3775
a(lp3776
I2655
aI2655
aaI-1
aI1
aS'Length'
p3777
a(lp3778
I2654
aI2654
aaI-1
aI1
aS'Type'
p3779
a(lp3780
I2656
aI2656
aaI-4
aI1
aS'ProcSet'
p3781
a(lp3782
I2644
aI2644
aaI-2
aI1
aS'ColorSpace'
p3783
a(lp3784
I2618
aI2618
aaI-1
aI1
aS'Length'
p3785
a(lp3786
I2634
aI2634
aaI-1
aI1
aS'Interpolate'
p3787
a(lp3788
I2633
aI2633
aaI-1
aI1
aS'Height'
p3789
a(lp3790
I2630
aI2630
aaI-1
aI1
aS'Decode'
p3791
a(lp3792
I2619
aI2619
aaI-1
aI1
aS'Subtype'
p3793
a(lp3794
I2680
aI2680
aaI-1
aI1
aS'ImageMask'
p3795
a(lp3796
I2631
aI2631
aaI-1
aI1
aS'Intent'
p3797
a(lp3798
I2632
aI2632
aaI-1
aI1
aS'BBox'
p3799
a(lp3800
I2616
aI2616
aaI-1
aI1
aS'Name'
p3801
a(lp3802
I2640
aI2640
aaI-1
aI1
aS'Type'
p3803
a(lp3804
I2681
aI2681
aaI-1
aI1
aS'BitsPerComponent'
p3805
a(lp3806
I2617
aI2617
aaI-1
aI1
aS'Metadata'
p3807
a(lp3808
I2636
aI2639
aaI1
aS'Subtype'
p3809
a(lp3810
I2638
aI2638
aaI-1
aI1
aS'Length'
p3811
a(lp3812
I2637
aI2637
aaI-1
aI1
aS'Type'
p3813
a(lp3814
I2639
aI2639
aaI-4
aI2
aS'ColorSpace'
p3815
aS'Name'
p3816
a(lp3817
I2489
aI2502
aaI1
aS'Filter'
p3818
a(lp3819
I2494
aI2494
aaI-1
aI1
aS'BitsPerSample'
p3820
a(lp3821
I2490
aI2490
aaI-1
aI1
aS'Process'
p3822
a(lp3823
I2497
aI2499
aaI1
aS'ColorSpace'
p3824
a(lp3825
I2498
aI2498
aaI-1
aI1
aS'Components'
p3826
a(lp3827
I2499
aI2499
aaI-2
aI1
aS'Domain'
p3828
a(lp3829
I2492
aI2492
aaI-1
aI1
aS'Decode'
p3830
a(lp3831
I2491
aI2491
aaI-1
aI1
aS'Subtype'
p3832
a(lp3833
I2502
aI2502
aaI-1
aI1
aS'Length'
p3834
a(lp3835
I2496
aI2496
aaI-1
aI1
aS'Encode'
p3836
a(lp3837
I2493
aI2493
aaI-1
aI1
aS'Range'
p3838
a(lp3839
I2500
aI2500
aaI-1
aI1
aS'FunctionType'
p3840
a(lp3841
I2495
aI2495
aaI-1
aI1
aS'Size'
p3842
a(lp3843
I2501
aI2501
aaI-3
aI1
aS'ProcSet'
p3844
a(lp3845
I2603
aI2603
aaI-1
aI1
aS'ExtGState'
p3846
a(lp3847
I2503
aI2564
aaI1
aS'Name'
p3848
a(lp3849
I2504
aI2564
aaI1
aS'SMask'
p3850
a(lp3851
I2513
aI2559
aaI1
ag97
a(lp3852
I2558
aI2558
aaI-1
aI1
aS'Type'
p3853
a(lp3854
I2559
aI2559
aaI-1
aI1
ag2139
a(lp3855
I2515
aI2557
aaI1
aS'Group'
p3856
a(lp3857
I2518
aI2523
aaI1
aS'CS'
p3858
a(lp3859
I2519
aI2519
aaI-1
aI1
ag95
a(lp3860
I2520
aI2520
aaI-1
aI1
ag256
a(lp3861
I2521
aI2521
aaI-1
aI1
aS'Type'
p3862
a(lp3863
I2523
aI2523
aaI-1
aI1
ag97
a(lp3864
I2522
aI2522
aaI-2
aI1
aS'Matrix'
p3865
a(lp3866
I2525
aI2525
aaI-1
aI1
aS'Filter'
p3867
a(lp3868
I2517
aI2517
aaI-1
aI1
aS'Subtype'
p3869
a(lp3870
I2557
aI2557
aaI-1
aI1
aS'Length'
p3871
a(lp3872
I2524
aI2524
aaI-1
aI1
aS'BBox'
p3873
a(lp3874
I2516
aI2516
aaI-1
aI3
aS'Resources'
p3875
aS'ExtGState'
p3876
aS'Name'
p3877
a(lp3878
I2526
aI2536
aaI1
aS'SMask'
p3879
a(lp3880
I2533
aI2533
aaI-1
aI1
aS'BM'
p3881
a(lp3882
I2528
aI2528
aaI-1
aI1
aS'CA'
p3883
a(lp3884
I2529
aI2529
aaI-1
aI1
aS'AIS'
p3885
a(lp3886
I2527
aI2527
aaI-1
aI1
aS'OPM'
p3887
a(lp3888
I2531
aI2531
aaI-1
aI1
aS'SA'
p3889
a(lp3890
I2532
aI2532
aaI-1
aI1
aS'op'
p3891
a(lp3892
I2536
aI2536
aaI-1
aI1
aS'Type'
p3893
a(lp3894
I2534
aI2534
aaI-1
aI1
aS'ca'
p3895
a(lp3896
I2535
aI2535
aaI-1
aI1
aS'OP'
p3897
a(lp3898
I2530
aI2530
aaI-3
aI2
aS'XObject'
p3899
aS'Name'
p3900
a(lp3901
I2538
aI2556
aaI2
aS'DecodeParms'
p3902
aS'Colors'
p3903
a(lp3904
I2543
aI2543
aaI-1
aI1
aS'Columns'
p3905
a(lp3906
I2544
aI2544
aaI-1
aI1
aS'BitsPerComponent'
p3907
a(lp3908
I2542
aI2542
aaI-2
aI1
aS'Filter'
p3909
a(lp3910
I2545
aI2545
aaI-1
aI1
aS'Name'
p3911
a(lp3912
I2553
aI2553
aaI-1
aI1
aS'Width'
p3913
a(lp3914
I2556
aI2556
aaI-1
aI1
aS'ColorSpace'
p3915
a(lp3916
I2540
aI2540
aaI-1
aI1
aS'Height'
p3917
a(lp3918
I2546
aI2546
aaI-1
aI1
aS'Decode'
p3919
a(lp3920
I2541
aI2541
aaI-1
aI1
aS'Subtype'
p3921
a(lp3922
I2554
aI2554
aaI-1
aI1
aS'Length'
p3923
a(lp3924
I2548
aI2548
aaI-1
aI1
aS'Intent'
p3925
a(lp3926
I2547
aI2547
aaI-1
aI1
aS'Type'
p3927
a(lp3928
I2555
aI2555
aaI-1
aI1
aS'BitsPerComponent'
p3929
a(lp3930
I2539
aI2539
aaI-1
aI1
aS'Metadata'
p3931
a(lp3932
I2549
aI2552
aaI1
aS'Subtype'
p3933
a(lp3934
I2551
aI2551
aaI-1
aI1
aS'Length'
p3935
a(lp3936
I2550
aI2550
aaI-1
aI1
aS'Type'
p3937
a(lp3938
I2552
aI2552
aaI-4
aI1
aS'ProcSet'
p3939
a(lp3940
I2537
aI2537
aaI-3
aI1
aS'BC'
p3941
a(lp3942
I2514
aI2514
aaI-2
aI1
aS'UCR2'
p3943
a(lp3944
I2562
aI2562
aaI-1
aI1
aS'BM'
p3945
a(lp3946
I2507
aI2507
aaI-1
aI1
aS'CA'
p3947
a(lp3948
I2508
aI2508
aaI-1
aI1
aS'AIS'
p3949
a(lp3950
I2505
aI2505
aaI-1
aI1
aS'BG2'
p3951
a(lp3952
I2506
aI2506
aaI-1
aI1
aS'SM'
p3953
a(lp3954
I2512
aI2512
aaI-1
aI1
aS'op'
p3955
a(lp3956
I2564
aI2564
aaI-1
aI1
aS'OPM'
p3957
a(lp3958
I2510
aI2510
aaI-1
aI1
aS'SA'
p3959
a(lp3960
I2511
aI2511
aaI-1
aI1
aS'TR2'
p3961
a(lp3962
I2560
aI2560
aaI-1
aI1
aS'Type'
p3963
a(lp3964
I2561
aI2561
aaI-1
aI1
aS'ca'
p3965
a(lp3966
I2563
aI2563
aaI-1
aI1
aS'OP'
p3967
a(lp3968
I2509
aI2509
aaI-3
aI1
aS'Font'
p3969
a(lp3970
I2565
aI2602
aaI1
aS'Name'
p3971
a(lp3972
I2566
aI2602
aaI1
aS'Encoding'
p3973
a(lp3974
I2568
aI2570
aaI1
aS'Differences'
p3975
a(lp3976
I2569
aI2569
aaI-1
aI1
aS'Type'
p3977
a(lp3978
I2570
aI2570
aaI-2
aI1
aS'BaseFont'
p3979
a(lp3980
I2567
aI2567
aaI-1
aI1
aS'Type'
p3981
a(lp3982
I2601
aI2601
aaI-1
aI1
aS'Subtype'
p3983
a(lp3984
I2597
aI2597
aaI-1
aI1
aS'ToUnicode'
p3985
a(lp3986
I2598
aI2600
aaI1
aS'Filter'
p3987
a(lp3988
I2599
aI2599
aaI-1
aI1
aS'Length'
p3989
a(lp3990
I2600
aI2600
aaI-2
aI1
aS'FontDescriptor'
p3991
a(lp3992
I2572
aI2595
aaI1
aS'FontFile2'
p3993
a(lp3994
I2580
aI2583
aaI1
aS'Filter'
p3995
a(lp3996
I2581
aI2581
aaI-1
aI1
aS'Length'
p3997
a(lp3998
I2582
aI2582
aaI-1
aI1
aS'Length1'
p3999
a(lp4000
I2583
aI2583
aaI-2
aI1
aS'FontFile3'
p4001
a(lp4002
I2584
aI2587
aaI1
aS'Filter'
p4003
a(lp4004
I2585
aI2585
aaI-1
aI1
aS'Subtype'
p4005
a(lp4006
I2587
aI2587
aaI-1
aI1
aS'Length'
p4007
a(lp4008
I2586
aI2586
aaI-2
aI1
aS'FontName'
p4009
a(lp4010
I2588
aI2588
aaI-1
aI1
aS'Descent'
p4011
a(lp4012
I2576
aI2576
aaI-1
aI1
aS'FontBBox'
p4013
a(lp4014
I2578
aI2578
aaI-1
aI1
aS'FontWeight'
p4015
a(lp4016
I2590
aI2590
aaI-1
aI1
aS'CapHeight'
p4017
a(lp4018
I2574
aI2574
aaI-1
aI1
aS'Type'
p4019
a(lp4020
I2594
aI2594
aaI-1
aI1
aS'CharSet'
p4021
a(lp4022
I2575
aI2575
aaI-1
aI1
aS'StemH'
p4023
a(lp4024
I2592
aI2592
aaI-1
aI1
aS'FontFamily'
p4025
a(lp4026
I2579
aI2579
aaI-1
aI1
aS'StemV'
p4027
a(lp4028
I2593
aI2593
aaI-1
aI1
aS'Flags'
p4029
a(lp4030
I2577
aI2577
aaI-1
aI1
aS'XHeight'
p4031
a(lp4032
I2595
aI2595
aaI-1
aI1
aS'ItalicAngle'
p4033
a(lp4034
I2591
aI2591
aaI-1
aI1
aS'Ascent'
p4035
a(lp4036
I2573
aI2573
aaI-1
aI1
aS'FontStretch'
p4037
a(lp4038
I2589
aI2589
aaI-2
aI1
aS'Widths'
p4039
a(lp4040
I2602
aI2602
aaI-1
aI1
aS'LastChar'
p4041
a(lp4042
I2596
aI2596
aaI-1
aI1
aS'FirstChar'
p4043
a(lp4044
I2571
aI2571
aaI-3
aI3
aS'Properties'
p4045
aS'Name'
p4046
aS'Title'
p4047
a(lp4048
I2613
aI2613
aaI-1
aI1
aS'Color'
p4049
a(lp4050
I2604
aI2604
aaI-1
aI1
aS'Editable'
p4051
a(lp4052
I2606
aI2606
aaI-1
aI1
aS'Dimmed'
p4053
a(lp4054
I2605
aI2605
aaI-1
aI1
aS'Visible'
p4055
a(lp4056
I2614
aI2614
aaI-1
aI1
aS'Printed'
p4057
a(lp4058
I2612
aI2612
aaI-1
aI1
aS'Preview'
p4059
a(lp4060
I2611
aI2611
aaI-1
aI1
aS'Metadata'
p4061
a(lp4062
I2607
aI2610
aaI1
aS'Subtype'
p4063
a(lp4064
I2609
aI2609
aaI-1
aI1
aS'Length'
p4065
a(lp4066
I2608
aI2608
aaI-1
aI1
aS'Type'
p4067
a(lp4068
I2610
aI2610
aaI-5
aI1
aS'Metadata'
p4069
a(lp4070
I2458
aI2461
aaI1
aS'Subtype'
p4071
a(lp4072
I2460
aI2460
aaI-1
aI1
aS'Length'
p4073
a(lp4074
I2459
aI2459
aaI-1
aI1
aS'Type'
p4075
a(lp4076
I2461
aI2461
aaI-2
aI1
aS'StructParents'
p4077
a(lp4078
I2706
aI2706
aaI-1
aI1
aS'ColorSpace'
p4079
a(lp4080
I2407
aI2416
aaI1
aS'Domain'
p4081
a(lp4082
I2411
aI2411
aaI-1
aI1
aS'Alternate'
p4083
a(lp4084
I2408
aI2408
aaI-1
aI1
aS'Range'
p4085
a(lp4086
I2416
aI2416
aaI-1
aI1
ag90
a(lp4087
I2415
aI2415
aaI-1
aI1
aS'Filter'
p4088
a(lp4089
I2412
aI2412
aaI-1
aI1
aS'Length'
p4090
a(lp4091
I2414
aI2414
aaI-1
aI1
aS'C1'
p4092
a(lp4093
I2410
aI2410
aaI-1
aI1
aS'C0'
p4094
a(lp4095
I2409
aI2409
aaI-1
aI1
aS'FunctionType'
p4096
a(lp4097
I2413
aI2413
aaI-2
aI1
aS'Interpolate'
p4098
a(lp4099
I2443
aI2443
aaI-1
aI1
aS'Intent'
p4100
a(lp4101
I2442
aI2442
aaI-1
aI1
aS'BitsPerComponent'
p4102
a(lp4103
I2405
aI2405
aaI-1
aI1
aS'eCpyDPIY'
p4104
a(lp4105
I2711
aI2711
aaI-1
aI1
aS'Name'
p4106
a(lp4107
I2462
aI2462
aaI-1
aI1
aS'Mask'
p4108
a(lp4109
I2446
aI2456
aaI2
aS'DecodeParms'
p4110
ag256
a(lp4111
I2449
aI2449
aaI-1
aI1
aS'Columns'
p4112
a(lp4113
I2448
aI2448
aaI-2
aI1
aS'Width'
p4114
a(lp4115
I2456
aI2456
aaI-1
aI1
aS'Length'
p4116
a(lp4117
I2453
aI2453
aaI-1
aI1
aS'Height'
p4118
a(lp4119
I2451
aI2451
aaI-1
aI1
aS'Filter'
p4120
a(lp4121
I2450
aI2450
aaI-1
aI1
aS'Subtype'
p4122
a(lp4123
I2454
aI2454
aaI-1
aI1
aS'ImageMask'
p4124
a(lp4125
I2452
aI2452
aaI-1
aI1
aS'Type'
p4126
a(lp4127
I2455
aI2455
aaI-1
aI1
aS'BitsPerComponent'
p4128
a(lp4129
I2447
aI2447
aaI-2
aI1
aS'PieceInfo'
p4130
a(lp4131
I2478
aI2487
aaI2
aS'ADBE_CompoundType'
p4132
aS'LastModified'
p4133
a(lp4134
I2482
aI2482
aaI-1
aI1
aS'DocSettings'
p4135
a(lp4136
I2479
aI2481
aaI1
aS'Filter'
p4137
a(lp4138
I2480
aI2480
aaI-1
aI1
aS'Length'
p4139
a(lp4140
I2481
aI2481
aaI-2
aI1
aS'Private'
p4141
a(lp4142
I2483
aI2483
aaI-2
aI1
aS'PDFWP'
p4143
a(lp4144
I2484
aI2487
aaI1
aS'LastModified'
p4145
a(lp4146
I2485
aI2485
aaI-1
aI1
aS'Private'
p4147
a(lp4148
I2486
aI2487
aaI1
aS'Flow'
p4149
a(lp4150
I2487
aI2487
aaI-4
aI1
aS'Filter'
p4151
a(lp4152
I2431
aI2431
aaI-1
aI1
aS'Subtype'
p4153
a(lp4154
I2707
aI2707
aaI-1
aI1
aS'Length'
p4155
a(lp4156
I2445
aI2445
aaI-1
aI1
aS'ImageName'
p4157
a(lp4158
I2441
aI2441
aaI-1
aI1
aS'FormType'
p4159
a(lp4160
I2432
aI2432
aaI-1
aI1
aS'DecodeParms'
p4161
a(lp4162
I2418
aI2430
aaI1
aS'Rows'
p4163
a(lp4164
I2430
aI2430
aaI-1
aI1
aS'JBIG2Globals'
p4165
a(lp4166
I2425
aI2426
aaI1
aS'Length'
p4167
a(lp4168
I2426
aI2426
aaI-2
aI1
ag256
a(lp4169
I2427
aI2427
aaI-1
aI1
aS'BlackIs1'
p4170
a(lp4171
I2420
aI2420
aaI-1
aI1
aS'EncodedByteAlign'
p4172
a(lp4173
I2423
aI2423
aaI-1
aI1
aS'Colors'
p4174
a(lp4175
I2421
aI2421
aaI-1
aI1
aS'BitsPerComponent'
p4176
a(lp4177
I2419
aI2419
aaI-1
aI1
aS'Quality'
p4178
a(lp4179
I2429
aI2429
aaI-1
aI1
aS'Predictor'
p4180
a(lp4181
I2428
aI2428
aaI-1
aI1
aS'Columns'
p4182
a(lp4183
I2422
aI2422
aaI-1
aI1
aS'EndOfLine'
p4184
a(lp4185
I2424
aI2424
aaI-2
aI1
aS'SMask'
p4186
a(lp4187
I2683
aI2705
aaI2
aS'DecodeParms'
p4188
ag256
a(lp4189
I2690
aI2690
aaI-1
aI1
aS'Colors'
p4190
a(lp4191
I2688
aI2688
aaI-1
aI1
aS'Rows'
p4192
a(lp4193
I2691
aI2691
aaI-1
aI1
aS'Columns'
p4194
a(lp4195
I2689
aI2689
aaI-1
aI1
aS'BitsPerComponent'
p4196
a(lp4197
I2687
aI2687
aaI-2
aI1
aS'Filter'
p4198
a(lp4199
I2692
aI2692
aaI-1
aI1
aS'Name'
p4200
a(lp4201
I2702
aI2702
aaI-1
aI1
aS'Width'
p4202
a(lp4203
I2705
aI2705
aaI-1
aI1
aS'ColorSpace'
p4204
a(lp4205
I2685
aI2685
aaI-1
aI1
aS'Matte'
p4206
a(lp4207
I2697
aI2697
aaI-1
aI1
aS'Interpolate'
p4208
a(lp4209
I2695
aI2695
aaI-1
aI1
aS'Height'
p4210
a(lp4211
I2693
aI2693
aaI-1
aI1
aS'Decode'
p4212
a(lp4213
I2686
aI2686
aaI-1
aI1
aS'Subtype'
p4214
a(lp4215
I2703
aI2703
aaI-1
aI1
aS'Length'
p4216
a(lp4217
I2696
aI2696
aaI-1
aI1
aS'Intent'
p4218
a(lp4219
I2694
aI2694
aaI-1
aI1
aS'Type'
p4220
a(lp4221
I2704
aI2704
aaI-1
aI1
aS'BitsPerComponent'
p4222
a(lp4223
I2684
aI2684
aaI-1
aI1
aS'Metadata'
p4224
a(lp4225
I2698
aI2701
aaI1
aS'Subtype'
p4226
a(lp4227
I2700
aI2700
aaI-1
aI1
aS'Length'
p4228
a(lp4229
I2699
aI2699
aaI-1
aI1
aS'Type'
p4230
a(lp4231
I2701
aI2701
aaI-3
aI1
aS'OC'
p4232
a(lp4233
I2463
aI2465
aaI1
aS'OCGs'
p4234
a(lp4235
I2464
aI2464
aaI-1
aI1
aS'Type'
p4236
a(lp4237
I2465
aI2465
aaI-2
aI1
aS'BlackIs1'
p4238
a(lp4239
I2406
aI2406
aaI-1
aI1
aS'Height'
p4240
a(lp4241
I2439
aI2439
aaI-1
aI1
aS'eCpyDPIX'
p4242
a(lp4243
I2710
aI2710
aaI-1
aI1
aS'OPI'
p4244
a(lp4245
I2466
aI2477
aaI2
aS'1.3'
p4246
aS'Type'
p4247
a(lp4248
I2476
aI2476
aaI-1
aI1
ag682
a(lp4249
I2471
aI2471
aaI-1
aI1
aS'Color'
p4250
a(lp4251
I2467
aI2467
aaI-1
aI1
aS'CropRect'
p4252
a(lp4253
I2470
aI2470
aaI-1
aI1
aS'Resolution'
p4254
a(lp4255
I2474
aI2474
aaI-1
aI1
aS'CropFixed'
p4256
a(lp4257
I2469
aI2469
aaI-1
aI1
aS'Version'
p4258
a(lp4259
I2477
aI2477
aaI-1
aI1
aS'Position'
p4260
a(lp4261
I2473
aI2473
aaI-1
aI1
aS'ColorType'
p4262
a(lp4263
I2468
aI2468
aaI-1
aI1
aS'ImageType'
p4264
a(lp4265
I2472
aI2472
aaI-1
aI1
aS'Size'
p4266
a(lp4267
I2475
aI2475
aaI-5
aI1
aS'ProcSet'
p4268
a(lp4269
I2342
aI2342
aaI-1
aI1
aS'Pattern'
p4270
a(lp4271
I2278
aI2340
aaI1
aS'Name'
p4272
a(lp4273
I2279
aI2340
aaI1
aS'Matrix'
p4274
a(lp4275
I2283
aI2283
aaI-1
aI1
aS'PatternType'
p4276
a(lp4277
I2285
aI2285
aaI-1
aI1
aS'YStep'
p4278
a(lp4279
I2340
aI2340
aaI-1
aI1
aS'XStep'
p4280
a(lp4281
I2339
aI2339
aaI-1
aI1
aS'TilingType'
p4282
a(lp4283
I2337
aI2337
aaI-1
aI1
aS'Filter'
p4284
a(lp4285
I2281
aI2281
aaI-1
aI1
aS'Length'
p4286
a(lp4287
I2282
aI2282
aaI-1
aI1
aS'PaintType'
p4288
a(lp4289
I2284
aI2284
aaI-1
aI2
aS'Shading'
p4290
aS'Function'
p4291
a(lp4292
I2325
aI2335
aaI1
aS'Filter'
p4293
a(lp4294
I2330
aI2330
aaI-1
aI1
aS'BitsPerSample'
p4295
a(lp4296
I2326
aI2326
aaI-1
aI1
aS'Domain'
p4297
a(lp4298
I2328
aI2328
aaI-1
aI1
aS'Decode'
p4299
a(lp4300
I2327
aI2327
aaI-1
aI1
aS'Length'
p4301
a(lp4302
I2332
aI2332
aaI-1
aI1
aS'Encode'
p4303
a(lp4304
I2329
aI2329
aaI-1
aI1
aS'Range'
p4305
a(lp4306
I2334
aI2334
aaI-1
aI1
aS'FunctionType'
p4307
a(lp4308
I2331
aI2331
aaI-1
aI1
aS'Order'
p4309
a(lp4310
I2333
aI2333
aaI-1
aI1
aS'Size'
p4311
a(lp4312
I2335
aI2335
aaI-2
aI1
aS'ColorSpace'
p4313
a(lp4314
I2322
aI2322
aaI-1
aI1
aS'Coords'
p4315
a(lp4316
I2323
aI2323
aaI-1
aI1
aS'ShadingType'
p4317
a(lp4318
I2336
aI2336
aaI-1
aI1
aS'Extend'
p4319
a(lp4320
I2324
aI2324
aaI-2
aI1
aS'Type'
p4321
a(lp4322
I2338
aI2338
aaI-1
aI1
aS'Resources'
p4323
a(lp4324
I2286
aI2321
aaI2
aS'Shading'
p4325
aS'Name'
p4326
a(lp4327
I2297
aI2308
aaI1
aS'Function'
p4328
a(lp4329
I2301
aI2307
aaI1
aS'Domain'
p4330
a(lp4331
I2304
aI2304
aaI-1
aI1
ag90
a(lp4332
I2306
aI2306
aaI-1
aI1
aS'Range'
p4333
a(lp4334
I2307
aI2307
aaI-1
aI1
aS'C1'
p4335
a(lp4336
I2303
aI2303
aaI-1
aI1
aS'C0'
p4337
a(lp4338
I2302
aI2302
aaI-1
aI1
aS'FunctionType'
p4339
a(lp4340
I2305
aI2305
aaI-2
aI1
aS'ColorSpace'
p4341
a(lp4342
I2299
aI2299
aaI-1
aI1
aS'Coords'
p4343
a(lp4344
I2300
aI2300
aaI-1
aI1
aS'BBox'
p4345
a(lp4346
I2298
aI2298
aaI-1
aI1
aS'ShadingType'
p4347
a(lp4348
I2308
aI2308
aaI-3
aI2
aS'ExtGState'
p4349
aS'Name'
p4350
a(lp4351
I2289
aI2295
aaI1
aS'SM'
p4352
a(lp4353
I2293
aI2293
aaI-1
aI1
aS'OPM'
p4354
a(lp4355
I2291
aI2291
aaI-1
aI1
aS'SA'
p4356
a(lp4357
I2292
aI2292
aaI-1
aI1
aS'OP'
p4358
a(lp4359
I2290
aI2290
aaI-1
aI1
aS'Type'
p4360
a(lp4361
I2294
aI2294
aaI-1
aI1
aS'op'
p4362
a(lp4363
I2295
aI2295
aaI-3
aI2
aS'ColorSpace'
p4364
aS'Name'
p4365
a(lp4366
I2287
aI2288
aaI1
aS'Length'
p4367
a(lp4368
I2288
aI2288
aaI-3
aI2
aS'XObject'
p4369
aS'Name'
p4370
a(lp4371
I2309
aI2321
aaI2
aS'DecodeParms'
p4372
ag256
a(lp4373
I2313
aI2313
aaI-1
aI1
aS'Columns'
p4374
a(lp4375
I2312
aI2312
aaI-2
aI1
aS'Width'
p4376
a(lp4377
I2321
aI2321
aaI-1
aI1
aS'ColorSpace'
p4378
a(lp4379
I2311
aI2311
aaI-1
aI1
aS'Length'
p4380
a(lp4381
I2318
aI2318
aaI-1
aI1
aS'Height'
p4382
a(lp4383
I2315
aI2315
aaI-1
aI1
aS'Filter'
p4384
a(lp4385
I2314
aI2314
aaI-1
aI1
aS'Subtype'
p4386
a(lp4387
I2319
aI2319
aaI-1
aI1
aS'ImageMask'
p4388
a(lp4389
I2316
aI2316
aaI-1
aI1
aS'Intent'
p4390
a(lp4391
I2317
aI2317
aaI-1
aI1
aS'Type'
p4392
a(lp4393
I2320
aI2320
aaI-1
aI1
aS'BitsPerComponent'
p4394
a(lp4395
I2310
aI2310
aaI-3
aI1
aS'ProcSet'
p4396
a(lp4397
I2296
aI2296
aaI-2
aI1
aS'BBox'
p4398
a(lp4399
I2280
aI2280
aaI-3
aI1
aS'ColorSpace'
p4400
a(lp4401
I1969
aI2000
aaI1
aS'Name'
p4402
a(lp4403
I1970
aI2000
aaI1
aS'Range'
p4404
a(lp4405
I1997
aI1997
aaI-1
aI1
aS'Filter'
p4406
a(lp4407
I1987
aI1987
aaI-1
aI1
aS'BitsPerSample'
p4408
a(lp4409
I1972
aI1972
aaI-1
aI1
aS'BlackPoint'
p4410
a(lp4411
I1973
aI1973
aaI-1
aI1
aS'Matrix'
p4412
a(lp4413
I1991
aI1991
aaI-1
aI1
aS'Process'
p4414
a(lp4415
I1994
aI1996
aaI1
aS'ColorSpace'
p4416
a(lp4417
I1995
aI1995
aaI-1
aI1
aS'Components'
p4418
a(lp4419
I1996
aI1996
aaI-2
aI1
aS'WhitePoint'
p4420
a(lp4421
I2000
aI2000
aaI-1
aI1
aS'Alternate'
p4422
a(lp4423
I1971
aI1971
aaI-1
aI1
aS'Domain'
p4424
a(lp4425
I1985
aI1985
aaI-1
aI1
ag90
a(lp4426
I1992
aI1992
aaI-1
aI1
aS'Decode'
p4427
a(lp4428
I1984
aI1984
aaI-1
aI1
aS'Subtype'
p4429
a(lp4430
I1999
aI1999
aaI-1
aI1
aS'Length'
p4431
a(lp4432
I1990
aI1990
aaI-1
aI1
aS'Size'
p4433
a(lp4434
I1998
aI1998
aaI-1
aI1
aS'Encode'
p4435
a(lp4436
I1986
aI1986
aaI-1
aI1
aS'Colorants'
p4437
a(lp4438
I1976
aI1983
aaI1
aS'Name'
p4439
a(lp4440
I1977
aI1983
aaI1
aS'Domain'
p4441
a(lp4442
I1980
aI1980
aaI-1
aI1
ag90
a(lp4443
I1982
aI1982
aaI-1
aI1
aS'Range'
p4444
a(lp4445
I1983
aI1983
aaI-1
aI1
aS'C1'
p4446
a(lp4447
I1979
aI1979
aaI-1
aI1
aS'C0'
p4448
a(lp4449
I1978
aI1978
aaI-1
aI1
aS'FunctionType'
p4450
a(lp4451
I1981
aI1981
aaI-3
aI1
aS'C0'
p4452
a(lp4453
I1974
aI1974
aaI-1
aI1
aS'FunctionType'
p4454
a(lp4455
I1988
aI1988
aaI-1
aI1
aS'C1'
p4456
a(lp4457
I1975
aI1975
aaI-1
aI1
aS'Gamma'
p4458
a(lp4459
I1989
aI1989
aaI-1
aI1
aS'Order'
p4460
a(lp4461
I1993
aI1993
aaI-3
aI1
aS'PieceInfo'
p4462
a(lp4463
I2341
aI2341
aaI-1
aI1
aS'ExtGState'
p4464
a(lp4465
I2003
aI2168
aaI1
aS'Name'
p4466
a(lp4467
I2004
aI2168
aaI1
aS'BG'
p4468
a(lp4469
I2007
aI2014
aaI1
aS'BitsPerSample'
p4470
a(lp4471
I2008
aI2008
aaI-1
aI1
aS'Domain'
p4472
a(lp4473
I2009
aI2009
aaI-1
aI1
aS'Filter'
p4474
a(lp4475
I2010
aI2010
aaI-1
aI1
aS'Range'
p4476
a(lp4477
I2013
aI2013
aaI-1
aI1
aS'Length'
p4478
a(lp4479
I2012
aI2012
aaI-1
aI1
aS'FunctionType'
p4480
a(lp4481
I2011
aI2011
aaI-1
aI1
aS'Size'
p4482
a(lp4483
I2014
aI2014
aaI-2
aI1
aS'BM'
p4484
a(lp4485
I2016
aI2016
aaI-1
aI1
aS'ca'
p4486
a(lp4487
I2167
aI2167
aaI-1
aI1
aS'AIS'
p4488
a(lp4489
I2006
aI2006
aaI-1
aI1
aS'HT2'
p4490
a(lp4491
I2082
aI2082
aaI-1
aI1
aS'Type'
p4492
a(lp4493
I2157
aI2157
aaI-1
aI1
aS'LC'
p4494
a(lp4495
I2083
aI2083
aaI-1
aI1
aS'FL'
p4496
a(lp4497
I2018
aI2018
aaI-1
aI1
aS'LJ'
p4498
a(lp4499
I2084
aI2084
aaI-1
aI1
aS'LW'
p4500
a(lp4501
I2085
aI2085
aaI-1
aI1
aS'TK'
p4502
a(lp4503
I2154
aI2154
aaI-1
aI1
aS'TR2'
p4504
a(lp4505
I2156
aI2156
aaI-1
aI1
aS'UCR2'
p4506
a(lp4507
I2166
aI2166
aaI-1
aI1
aS'CA'
p4508
a(lp4509
I2017
aI2017
aaI-1
aI1
aS'AAPL:AA'
p4510
a(lp4511
I2005
aI2005
aaI-1
aI1
aS'HT'
p4512
a(lp4513
I2019
aI2081
aaI1
aS'Blue'
p4514
a(lp4515
I2032
aI2042
aaI1
aS'Type'
p4516
a(lp4517
I2042
aI2042
aaI-1
aI1
aS'SpotFunction'
p4518
a(lp4519
I2036
aI2041
aaI1
aS'Filter'
p4520
a(lp4521
I2038
aI2038
aaI-1
aI1
aS'Domain'
p4522
a(lp4523
I2037
aI2037
aaI-1
aI1
aS'Range'
p4524
a(lp4525
I2041
aI2041
aaI-1
aI1
aS'FunctionType'
p4526
a(lp4527
I2039
aI2039
aaI-1
aI1
aS'Length'
p4528
a(lp4529
I2040
aI2040
aaI-2
aI1
aS'HalftoneType'
p4530
a(lp4531
I2035
aI2035
aaI-1
aI1
aS'Frequency'
p4532
a(lp4533
I2034
aI2034
aaI-1
aI1
aS'Angle'
p4534
a(lp4535
I2033
aI2033
aaI-2
aI1
aS'Gray'
p4536
a(lp4537
I2056
aI2056
aaI-1
aI1
aS'HalftoneType'
p4538
a(lp4539
I2069
aI2069
aaI-1
aI1
aS'Green'
p4540
a(lp4541
I2057
aI2067
aaI1
aS'Type'
p4542
a(lp4543
I2067
aI2067
aaI-1
aI1
aS'SpotFunction'
p4544
a(lp4545
I2061
aI2066
aaI1
aS'Filter'
p4546
a(lp4547
I2063
aI2063
aaI-1
aI1
aS'Domain'
p4548
a(lp4549
I2062
aI2062
aaI-1
aI1
aS'Range'
p4550
a(lp4551
I2066
aI2066
aaI-1
aI1
aS'FunctionType'
p4552
a(lp4553
I2064
aI2064
aaI-1
aI1
aS'Length'
p4554
a(lp4555
I2065
aI2065
aaI-2
aI1
aS'HalftoneType'
p4556
a(lp4557
I2060
aI2060
aaI-1
aI1
aS'Frequency'
p4558
a(lp4559
I2059
aI2059
aaI-1
aI1
aS'Angle'
p4560
a(lp4561
I2058
aI2058
aaI-2
aI1
aS'Angle'
p4562
a(lp4563
I2020
aI2020
aaI-1
aI1
aS'Default'
p4564
a(lp4565
I2054
aI2054
aaI-1
aI1
aS'Type'
p4566
a(lp4567
I2080
aI2080
aaI-1
aI1
aS'Yellow'
p4568
a(lp4569
I2081
aI2081
aaI-1
aI1
aS'Frequency'
p4570
a(lp4571
I2055
aI2055
aaI-1
aI1
aS'Black'
p4572
a(lp4573
I2021
aI2031
aaI1
aS'Type'
p4574
a(lp4575
I2031
aI2031
aaI-1
aI1
aS'SpotFunction'
p4576
a(lp4577
I2025
aI2030
aaI1
aS'Filter'
p4578
a(lp4579
I2027
aI2027
aaI-1
aI1
aS'Domain'
p4580
a(lp4581
I2026
aI2026
aaI-1
aI1
aS'Range'
p4582
a(lp4583
I2030
aI2030
aaI-1
aI1
aS'FunctionType'
p4584
a(lp4585
I2028
aI2028
aaI-1
aI1
aS'Length'
p4586
a(lp4587
I2029
aI2029
aaI-2
aI1
aS'HalftoneType'
p4588
a(lp4589
I2024
aI2024
aaI-1
aI1
aS'Frequency'
p4590
a(lp4591
I2023
aI2023
aaI-1
aI1
aS'Angle'
p4592
a(lp4593
I2022
aI2022
aaI-2
aI1
aS'Red'
p4594
a(lp4595
I2071
aI2071
aaI-1
aI1
aS'Cyan'
p4596
a(lp4597
I2043
aI2053
aaI1
aS'Type'
p4598
a(lp4599
I2053
aI2053
aaI-1
aI1
aS'SpotFunction'
p4600
a(lp4601
I2047
aI2052
aaI1
aS'Filter'
p4602
a(lp4603
I2049
aI2049
aaI-1
aI1
aS'Domain'
p4604
a(lp4605
I2048
aI2048
aaI-1
aI1
aS'Range'
p4606
a(lp4607
I2052
aI2052
aaI-1
aI1
aS'FunctionType'
p4608
a(lp4609
I2050
aI2050
aaI-1
aI1
aS'Length'
p4610
a(lp4611
I2051
aI2051
aaI-2
aI1
aS'HalftoneType'
p4612
a(lp4613
I2046
aI2046
aaI-1
aI1
aS'Frequency'
p4614
a(lp4615
I2045
aI2045
aaI-1
aI1
aS'Angle'
p4616
a(lp4617
I2044
aI2044
aaI-2
aI1
aS'Magenta'
p4618
a(lp4619
I2070
aI2070
aaI-1
aI1
aS'SpotFunction'
p4620
a(lp4621
I2072
aI2079
aaI1
aS'BitsPerSample'
p4622
a(lp4623
I2073
aI2073
aaI-1
aI1
aS'Domain'
p4624
a(lp4625
I2074
aI2074
aaI-1
aI1
aS'Filter'
p4626
a(lp4627
I2075
aI2075
aaI-1
aI1
aS'Range'
p4628
a(lp4629
I2078
aI2078
aaI-1
aI1
aS'Length'
p4630
a(lp4631
I2077
aI2077
aaI-1
aI1
aS'FunctionType'
p4632
a(lp4633
I2076
aI2076
aaI-1
aI1
aS'Size'
p4634
a(lp4635
I2079
aI2079
aaI-2
aI1
aS'HalftoneName'
p4636
a(lp4637
I2068
aI2068
aaI-2
aI1
aS'UCR'
p4638
a(lp4639
I2158
aI2165
aaI1
aS'BitsPerSample'
p4640
a(lp4641
I2159
aI2159
aaI-1
aI1
aS'Domain'
p4642
a(lp4643
I2160
aI2160
aaI-1
aI1
aS'Filter'
p4644
a(lp4645
I2161
aI2161
aaI-1
aI1
aS'Range'
p4646
a(lp4647
I2164
aI2164
aaI-1
aI1
aS'Length'
p4648
a(lp4649
I2163
aI2163
aaI-1
aI1
aS'FunctionType'
p4650
a(lp4651
I2162
aI2162
aaI-1
aI1
aS'Size'
p4652
a(lp4653
I2165
aI2165
aaI-2
aI1
aS'SMask'
p4654
a(lp4655
I2091
aI2153
aaI1
ag97
a(lp4656
I2152
aI2152
aaI-1
aI1
aS'Type'
p4657
a(lp4658
I2153
aI2153
aaI-1
aI1
ag2139
a(lp4659
I2093
aI2151
aaI1
aS'Group'
p4660
a(lp4661
I2096
aI2101
aaI1
aS'CS'
p4662
a(lp4663
I2097
aI2097
aaI-1
aI1
ag95
a(lp4664
I2098
aI2098
aaI-1
aI1
ag256
a(lp4665
I2099
aI2099
aaI-1
aI1
aS'Type'
p4666
a(lp4667
I2101
aI2101
aaI-1
aI1
ag97
a(lp4668
I2100
aI2100
aaI-2
aI1
aS'Matrix'
p4669
a(lp4670
I2103
aI2103
aaI-1
aI1
aS'Filter'
p4671
a(lp4672
I2095
aI2095
aaI-1
aI1
aS'Subtype'
p4673
a(lp4674
I2151
aI2151
aaI-1
aI1
aS'Length'
p4675
a(lp4676
I2102
aI2102
aaI-1
aI1
aS'BBox'
p4677
a(lp4678
I2094
aI2094
aaI-1
aI3
aS'Resources'
p4679
aS'Shading'
p4680
aS'Name'
p4681
a(lp4682
I2118
aI2135
aaI1
aS'Function'
p4683
a(lp4684
I2124
aI2134
aaI1
aS'Encode'
p4685
a(lp4686
I2127
aI2127
aaI-1
aI1
aS'Domain'
p4687
a(lp4688
I2126
aI2126
aaI-1
aI1
aS'FunctionType'
p4689
a(lp4690
I2128
aI2128
aaI-1
aI1
aS'Bounds'
p4691
a(lp4692
I2125
aI2125
aaI-1
aI1
aS'Functions'
p4693
a(lp4694
I2129
aI2134
aaI1
aS'C1'
p4695
a(lp4696
I2131
aI2131
aaI-1
aI1
aS'C0'
p4697
a(lp4698
I2130
aI2130
aaI-1
aI1
aS'FunctionType'
p4699
a(lp4700
I2133
aI2133
aaI-1
aI1
aS'Domain'
p4701
a(lp4702
I2132
aI2132
aaI-1
aI1
ag90
a(lp4703
I2134
aI2134
aaI-3
aI1
aS'Domain'
p4704
a(lp4705
I2122
aI2122
aaI-1
aI1
aS'Extend'
p4706
a(lp4707
I2123
aI2123
aaI-1
aI1
aS'ColorSpace'
p4708
a(lp4709
I2120
aI2120
aaI-1
aI1
aS'AntiAlias'
p4710
a(lp4711
I2119
aI2119
aaI-1
aI1
aS'Coords'
p4712
a(lp4713
I2121
aI2121
aaI-1
aI1
aS'ShadingType'
p4714
a(lp4715
I2135
aI2135
aaI-3
aI2
aS'ExtGState'
p4716
aS'Name'
p4717
a(lp4718
I2104
aI2104
aaI-2
aI2
aS'Font'
p4719
aS'Name'
p4720
a(lp4721
I2105
aI2116
aaI1
aS'Encoding'
p4722
a(lp4723
I2107
aI2107
aaI-1
aI1
aS'BaseFont'
p4724
a(lp4725
I2106
aI2106
aaI-1
aI1
aS'Type'
p4726
a(lp4727
I2115
aI2115
aaI-1
aI1
aS'Subtype'
p4728
a(lp4729
I2111
aI2111
aaI-1
aI1
aS'ToUnicode'
p4730
a(lp4731
I2112
aI2114
aaI1
aS'Filter'
p4732
a(lp4733
I2113
aI2113
aaI-1
aI1
aS'Length'
p4734
a(lp4735
I2114
aI2114
aaI-2
aI1
aS'FontDescriptor'
p4736
a(lp4737
I2109
aI2109
aaI-1
aI1
aS'Widths'
p4738
a(lp4739
I2116
aI2116
aaI-1
aI1
aS'LastChar'
p4740
a(lp4741
I2110
aI2110
aaI-1
aI1
aS'FirstChar'
p4742
a(lp4743
I2108
aI2108
aaI-3
aI2
aS'XObject'
p4744
aS'Name'
p4745
a(lp4746
I2136
aI2150
aaI2
aS'DecodeParms'
p4747
aS'Colors'
p4748
a(lp4749
I2140
aI2140
aaI-1
aI1
aS'Columns'
p4750
a(lp4751
I2141
aI2141
aaI-1
aI1
aS'BitsPerComponent'
p4752
a(lp4753
I2139
aI2139
aaI-1
aI1
aS'Predictor'
p4754
a(lp4755
I2142
aI2142
aaI-2
aI1
aS'Name'
p4756
a(lp4757
I2147
aI2147
aaI-1
aI1
aS'Width'
p4758
a(lp4759
I2150
aI2150
aaI-1
aI1
aS'ColorSpace'
p4760
a(lp4761
I2138
aI2138
aaI-1
aI1
aS'Height'
p4762
a(lp4763
I2144
aI2144
aaI-1
aI1
aS'Filter'
p4764
a(lp4765
I2143
aI2143
aaI-1
aI1
aS'Subtype'
p4766
a(lp4767
I2148
aI2148
aaI-1
aI1
aS'Length'
p4768
a(lp4769
I2146
aI2146
aaI-1
aI1
aS'Intent'
p4770
a(lp4771
I2145
aI2145
aaI-1
aI1
aS'Type'
p4772
a(lp4773
I2149
aI2149
aaI-1
aI1
aS'BitsPerComponent'
p4774
a(lp4775
I2137
aI2137
aaI-3
aI1
aS'ProcSet'
p4776
a(lp4777
I2117
aI2117
aaI-3
aI1
aS'BC'
p4778
a(lp4779
I2092
aI2092
aaI-2
aI1
aS'ML'
p4780
a(lp4781
I2086
aI2086
aaI-1
aI1
aS'TR'
p4782
a(lp4783
I2155
aI2155
aaI-1
aI1
aS'BG2'
p4784
a(lp4785
I2015
aI2015
aaI-1
aI1
aS'SM'
p4786
a(lp4787
I2090
aI2090
aaI-1
aI1
aS'OPM'
p4788
a(lp4789
I2088
aI2088
aaI-1
aI1
aS'SA'
p4790
a(lp4791
I2089
aI2089
aaI-1
aI1
aS'op'
p4792
a(lp4793
I2168
aI2168
aaI-1
aI1
aS'OP'
p4794
a(lp4795
I2087
aI2087
aaI-3
aI2
aS'Properties'
p4796
aS'Name'
p4797
a(lp4798
I2343
aI2368
aaI1
aS'Name'
p4799
a(lp4800
I2354
aI2354
aaI-1
aI1
aS'Creator'
p4801
a(lp4802
I2345
aI2345
aaI-1
aI1
aS'Color'
p4803
a(lp4804
I2344
aI2344
aaI-1
aI1
aS'Title'
p4805
a(lp4806
I2363
aI2363
aaI-1
aI1
aS'Editable'
p4807
a(lp4808
I2347
aI2347
aaI-1
aI1
aS'Dimmed'
p4809
a(lp4810
I2346
aI2346
aaI-1
aI1
aS'OCGs'
p4811
a(lp4812
I2355
aI2360
aaI3
aS'Usage'
p4813
aS'PageElement'
p4814
aS'Subtype'
p4815
a(lp4816
I2360
aI2360
aaI-2
aI2
aS'CreatorInfo'
p4817
aS'Subtype'
p4818
a(lp4819
I2359
aI2359
aaI-1
aI1
aS'Creator'
p4820
a(lp4821
I2358
aI2358
aaI-3
aI1
aS'Type'
p4822
a(lp4823
I2357
aI2357
aaI-1
aI1
aS'Name'
p4824
a(lp4825
I2356
aI2356
aaI-2
aI1
aS'Visible'
p4826
a(lp4827
I2368
aI2368
aaI-1
aI1
aS'Intent'
p4828
a(lp4829
I2348
aI2348
aaI-1
aI1
aS'Printed'
p4830
a(lp4831
I2362
aI2362
aaI-1
aI1
aS'Usage'
p4832
a(lp4833
I2365
aI2367
aaI2
aS'CreatorInfo'
p4834
aS'Subtype'
p4835
a(lp4836
I2367
aI2367
aaI-1
aI1
aS'Creator'
p4837
a(lp4838
I2366
aI2366
aaI-3
aI1
aS'Preview'
p4839
a(lp4840
I2361
aI2361
aaI-1
aI1
aS'Type'
p4841
a(lp4842
I2364
aI2364
aaI-1
aI1
aS'Metadata'
p4843
a(lp4844
I2349
aI2353
aaI1
aS'Filter'
p4845
a(lp4846
I2350
aI2350
aaI-1
aI1
aS'Subtype'
p4847
a(lp4848
I2352
aI2352
aaI-1
aI1
aS'Length'
p4849
a(lp4850
I2351
aI2351
aaI-1
aI1
aS'Type'
p4851
a(lp4852
I2353
aI2353
aaI-4
aI1
aS'Shading'
p4853
a(lp4854
I2369
aI2400
aaI1
aS'Name'
p4855
a(lp4856
I2370
aI2400
aaI1
aS'Function'
p4857
a(lp4858
I2377
aI2399
aaI1
aS'Domain'
p4859
a(lp4860
I2381
aI2381
aaI-1
aI1
aS'Functions'
p4861
a(lp4862
I2384
aI2397
aaI1
aS'Range'
p4863
a(lp4864
I2396
aI2396
aaI-1
aI1
aS'Filter'
p4865
a(lp4866
I2391
aI2391
aaI-1
aI1
aS'Domain'
p4867
a(lp4868
I2389
aI2389
aaI-1
aI1
aS'BitsPerSample'
p4869
a(lp4870
I2385
aI2385
aaI-1
aI1
ag90
a(lp4871
I2394
aI2394
aaI-1
aI1
aS'Decode'
p4872
a(lp4873
I2388
aI2388
aaI-1
aI1
aS'Length'
p4874
a(lp4875
I2393
aI2393
aaI-1
aI1
aS'Encode'
p4876
a(lp4877
I2390
aI2390
aaI-1
aI1
aS'C1'
p4878
a(lp4879
I2387
aI2387
aaI-1
aI1
aS'C0'
p4880
a(lp4881
I2386
aI2386
aaI-1
aI1
aS'FunctionType'
p4882
a(lp4883
I2392
aI2392
aaI-1
aI1
aS'Order'
p4884
a(lp4885
I2395
aI2395
aaI-1
aI1
aS'Size'
p4886
a(lp4887
I2397
aI2397
aaI-2
aI1
aS'Bounds'
p4888
a(lp4889
I2378
aI2378
aaI-1
aI1
ag90
a(lp4890
I2398
aI2398
aaI-1
aI1
aS'Range'
p4891
a(lp4892
I2399
aI2399
aaI-1
aI1
aS'Encode'
p4893
a(lp4894
I2382
aI2382
aaI-1
aI1
aS'C1'
p4895
a(lp4896
I2380
aI2380
aaI-1
aI1
aS'C0'
p4897
a(lp4898
I2379
aI2379
aaI-1
aI1
aS'FunctionType'
p4899
a(lp4900
I2383
aI2383
aaI-2
aI1
aS'Domain'
p4901
a(lp4902
I2375
aI2375
aaI-1
aI1
aS'Extend'
p4903
a(lp4904
I2376
aI2376
aaI-1
aI1
aS'ColorSpace'
p4905
a(lp4906
I2373
aI2373
aaI-1
aI1
aS'AntiAlias'
p4907
a(lp4908
I2371
aI2371
aaI-1
aI1
aS'Coords'
p4909
a(lp4910
I2374
aI2374
aaI-1
aI1
aS'BBox'
p4911
a(lp4912
I2372
aI2372
aaI-1
aI1
aS'ShadingType'
p4913
a(lp4914
I2400
aI2400
aaI-3
aI1
aS'Font'
p4915
a(lp4916
I2169
aI2277
aaI1
aS'Name'
p4917
a(lp4918
I2170
aI2277
aaI1
aS'FontMatrix'
p4919
a(lp4920
I2266
aI2266
aaI-1
aI1
aS'FontDescriptor'
p4921
a(lp4922
I2225
aI2265
aaI1
aS'Descent'
p4923
a(lp4924
I2230
aI2230
aaI-1
aI1
aS'FontBBox'
p4925
a(lp4926
I2232
aI2232
aaI-1
aI1
aS'Leading'
p4927
a(lp4928
I2259
aI2259
aaI-1
aI1
aS'StemH'
p4929
a(lp4930
I2262
aI2262
aaI-1
aI1
aS'StemV'
p4931
a(lp4932
I2263
aI2263
aaI-1
aI1
aS'AvgWidth'
p4933
a(lp4934
I2227
aI2227
aaI-1
aI1
aS'XHeight'
p4935
a(lp4936
I2265
aI2265
aaI-1
aI1
aS'Type'
p4937
a(lp4938
I2264
aI2264
aaI-1
aI1
aS'FontStretch'
p4939
a(lp4940
I2256
aI2256
aaI-1
aI1
aS'FontFile2'
p4941
a(lp4942
I2240
aI2249
aaI1
aS'Length3'
p4943
a(lp4944
I2245
aI2245
aaI-1
aI1
aS'Length2'
p4945
a(lp4946
I2244
aI2244
aaI-1
aI1
aS'Length1'
p4947
a(lp4948
I2243
aI2243
aaI-1
aI1
aS'Filter'
p4949
a(lp4950
I2241
aI2241
aaI-1
aI1
aS'Length'
p4951
a(lp4952
I2242
aI2242
aaI-1
aI1
aS'Metadata'
p4953
a(lp4954
I2246
aI2249
aaI1
aS'Subtype'
p4955
a(lp4956
I2248
aI2248
aaI-1
aI1
aS'Length'
p4957
a(lp4958
I2247
aI2247
aaI-1
aI1
aS'Type'
p4959
a(lp4960
I2249
aI2249
aaI-3
aI1
aS'FontFile3'
p4961
a(lp4962
I2250
aI2254
aaI1
aS'Filter'
p4963
a(lp4964
I2251
aI2251
aaI-1
aI1
aS'Subtype'
p4965
a(lp4966
I2254
aI2254
aaI-1
aI1
aS'Length'
p4967
a(lp4968
I2252
aI2252
aaI-1
aI1
aS'Length1'
p4969
a(lp4970
I2253
aI2253
aaI-2
aI1
aS'FontName'
p4971
a(lp4972
I2255
aI2255
aaI-1
aI1
aS'MaxWidth'
p4973
a(lp4974
I2260
aI2260
aaI-1
aI1
aS'CapHeight'
p4975
a(lp4976
I2228
aI2228
aaI-1
aI1
aS'FontFamily'
p4977
a(lp4978
I2233
aI2233
aaI-1
aI1
aS'ItalicAngle'
p4979
a(lp4980
I2258
aI2258
aaI-1
aI1
aS'FontFile'
p4981
a(lp4982
I2234
aI2239
aaI1
aS'Filter'
p4983
a(lp4984
I2235
aI2235
aaI-1
aI1
aS'Length2'
p4985
a(lp4986
I2238
aI2238
aaI-1
aI1
aS'Length'
p4987
a(lp4988
I2236
aI2236
aaI-1
aI1
aS'Length3'
p4989
a(lp4990
I2239
aI2239
aaI-1
aI1
aS'Length1'
p4991
a(lp4992
I2237
aI2237
aaI-2
aI1
aS'Flags'
p4993
a(lp4994
I2231
aI2231
aaI-1
aI1
aS'CharSet'
p4995
a(lp4996
I2229
aI2229
aaI-1
aI1
aS'FontWeight'
p4997
a(lp4998
I2257
aI2257
aaI-1
aI1
aS'MissingWidth'
p4999
a(lp5000
I2261
aI2261
aaI-1
aI1
aS'Ascent'
p5001
a(lp5002
I2226
aI2226
aaI-2
aI1
aS'FontBBox'
p5003
a(lp5004
I2224
aI2224
aaI-1
aI1
aS'Encoding'
p5005
a(lp5006
I2219
aI2222
aaI1
aS'Type'
p5007
a(lp5008
I2222
aI2222
aaI-1
aI1
aS'Differences'
p5009
a(lp5010
I2221
aI2221
aaI-1
aI1
aS'BaseEncoding'
p5011
a(lp5012
I2220
aI2220
aaI-2
aI1
aS'BaseFont'
p5013
a(lp5014
I2171
aI2171
aaI-1
aI1
aS'Type'
p5015
a(lp5016
I2276
aI2276
aaI-1
aI1
aS'DescendantFonts'
p5017
a(lp5018
I2176
aI2218
aaI1
aS'DW2'
p5019
a(lp5020
I2184
aI2184
aaI-1
aI1
aS'CIDToGIDMap'
p5021
a(lp5022
I2182
aI2182
aaI-1
aI1
ag59
a(lp5023
I2218
aI2218
aaI-1
aI1
aS'BaseFont'
p5024
a(lp5025
I2177
aI2177
aaI-1
aI1
aS'CIDSystemInfo'
p5026
a(lp5027
I2178
aI2181
aaI1
aS'Ordering'
p5028
a(lp5029
I2179
aI2179
aaI-1
aI1
aS'Supplement'
p5030
a(lp5031
I2181
aI2181
aaI-1
aI1
aS'Registry'
p5032
a(lp5033
I2180
aI2180
aaI-2
aI1
aS'Subtype'
p5034
a(lp5035
I2216
aI2216
aaI-1
aI1
aS'FontDescriptor'
p5036
a(lp5037
I2185
aI2215
aaI1
aS'Descent'
p5038
a(lp5039
I2192
aI2192
aaI-1
aI1
aS'FontBBox'
p5040
a(lp5041
I2194
aI2194
aaI-1
aI1
aS'Leading'
p5042
a(lp5043
I2209
aI2209
aaI-1
aI1
aS'StemH'
p5044
a(lp5045
I2212
aI2212
aaI-1
aI1
aS'StemV'
p5046
a(lp5047
I2213
aI2213
aaI-1
aI1
aS'AvgWidth'
p5048
a(lp5049
I2187
aI2187
aaI-1
aI1
aS'XHeight'
p5050
a(lp5051
I2215
aI2215
aaI-1
aI1
aS'Type'
p5052
a(lp5053
I2214
aI2214
aaI-1
aI1
aS'FontStretch'
p5054
a(lp5055
I2205
aI2205
aaI-1
aI1
aS'FontFile2'
p5056
a(lp5057
I2196
aI2199
aaI1
aS'Filter'
p5058
a(lp5059
I2197
aI2197
aaI-1
aI1
aS'Length'
p5060
a(lp5061
I2198
aI2198
aaI-1
aI1
aS'Length1'
p5062
a(lp5063
I2199
aI2199
aaI-2
aI1
aS'FontFile3'
p5064
a(lp5065
I2200
aI2203
aaI1
aS'Filter'
p5066
a(lp5067
I2201
aI2201
aaI-1
aI1
aS'Subtype'
p5068
a(lp5069
I2203
aI2203
aaI-1
aI1
aS'Length'
p5070
a(lp5071
I2202
aI2202
aaI-2
aI1
aS'FontName'
p5072
a(lp5073
I2204
aI2204
aaI-1
aI1
aS'MaxWidth'
p5074
a(lp5075
I2210
aI2210
aaI-1
aI1
aS'CapHeight'
p5076
a(lp5077
I2191
aI2191
aaI-1
aI1
aS'FontFamily'
p5078
a(lp5079
I2195
aI2195
aaI-1
aI1
aS'ItalicAngle'
p5080
a(lp5081
I2207
aI2207
aaI-1
aI1
aS'Lang'
p5082
a(lp5083
I2208
aI2208
aaI-1
aI1
aS'Flags'
p5084
a(lp5085
I2193
aI2193
aaI-1
aI1
aS'CIDSet'
p5086
a(lp5087
I2188
aI2190
aaI1
aS'Filter'
p5088
a(lp5089
I2189
aI2189
aaI-1
aI1
aS'Length'
p5090
a(lp5091
I2190
aI2190
aaI-2
aI1
aS'FontWeight'
p5092
a(lp5093
I2206
aI2206
aaI-1
aI1
aS'MissingWidth'
p5094
a(lp5095
I2211
aI2211
aaI-1
aI1
aS'Ascent'
p5096
a(lp5097
I2186
aI2186
aaI-2
aI1
aS'DW'
p5098
a(lp5099
I2183
aI2183
aaI-1
aI1
aS'Type'
p5100
a(lp5101
I2217
aI2217
aaI-2
aI1
aS'Subtype'
p5102
a(lp5103
I2272
aI2272
aaI-1
aI1
aS'ToUnicode'
p5104
a(lp5105
I2273
aI2275
aaI1
aS'Filter'
p5106
a(lp5107
I2274
aI2274
aaI-1
aI1
aS'Length'
p5108
a(lp5109
I2275
aI2275
aaI-2
aI1
aS'CharProcs'
p5110
a(lp5111
I2172
aI2175
aaI1
aS'Name'
p5112
a(lp5113
I2173
aI2175
aaI1
aS'Filter'
p5114
a(lp5115
I2174
aI2174
aaI-1
aI1
aS'Length'
p5116
a(lp5117
I2175
aI2175
aaI-3
aI1
aS'Widths'
p5118
a(lp5119
I2277
aI2277
aaI-1
aI1
aS'Name'
p5120
a(lp5121
I2269
aI2269
aaI-1
aI1
aS'FxTag'
p5122
a(lp5123
I2267
aI2267
aaI-1
aI1
aS'LastChar'
p5124
a(lp5125
I2268
aI2268
aaI-1
aI1
aS'Resources'
p5126
a(lp5127
I2270
aI2271
aaI1
aS'ProcSet'
p5128
a(lp5129
I2271
aI2271
aaI-2
aI1
aS'FirstChar'
p5130
a(lp5131
I2223
aI2223
aaI-3
aI1
aS'Type'
p5132
a(lp5133
I2401
aI2401
aaI-1
aI1
aS'DefaultGray'
p5134
a(lp5135
I2001
aI2002
aaI1
aS'Length'
p5136
a(lp5137
I2002
aI2002
aaI-3
aI1
aS'Trans'
p5138
a(lp5139
I2725
aI2731
aaI1
aS'Dm'
p5140
a(lp5141
I2729
aI2729
aaI-1
aI1
ag43
a(lp5142
I2727
aI2727
aaI-1
aI1
aS'Directional'
p5143
a(lp5144
I2728
aI2728
aaI-1
aI1
aS'Curve'
p5145
a(lp5146
I2726
aI2726
aaI-1
aI1
ag748
a(lp5147
I2730
aI2730
aaI-1
aI1
ag97
a(lp5148
I2731
aI2731
aaI-2
aI1
aS'MediaBox'
p5149
a(lp5150
I1871
aI1871
aaI-1
aI1
aS'PZ'
p5151
a(lp5152
I1872
aI1872
aaI-1
aI1
aS'Annots'
p5153
a(lp5154
I1571
aI1830
aaI3
aS'RichMediaSettings'
p5155
aS'Activation'
p5156
aS'Type'
p5157
a(lp5158
I1810
aI1810
aaI-1
aI1
aS'Configuration'
p5159
a(lp5160
I1794
aI1804
aaI1
aS'Instances'
p5161
a(lp5162
I1795
aI1802
aaI1
aS'Params'
p5163
a(lp5164
I1801
aI1802
aaI1
aS'Binding'
p5165
a(lp5166
I1802
aI1802
aaI-2
aI1
aS'Asset'
p5167
a(lp5168
I1796
aI1800
aaI1
aS'UF'
p5169
a(lp5170
I1800
aI1800
aaI-1
aI2
aS'EF'
p5171
ag682
a(lp5172
I1797
aI1797
aaI-2
aI1
aS'Type'
p5173
a(lp5174
I1799
aI1799
aaI-1
aI1
ag682
a(lp5175
I1798
aI1798
aaI-3
aI1
aS'Type'
p5176
a(lp5177
I1804
aI1804
aaI-1
aI1
aS'Subtype'
p5178
a(lp5179
I1803
aI1803
aaI-2
aI2
aS'Presentation'
p5180
aS'PassContextClick'
p5181
a(lp5182
I1806
aI1806
aaI-1
aI1
aS'NavigationPane'
p5183
a(lp5184
I1805
aI1805
aaI-1
aI1
aS'Style'
p5185
a(lp5186
I1807
aI1807
aaI-1
aI1
aS'Toolbar'
p5187
a(lp5188
I1808
aI1808
aaI-1
aI1
aS'Transparent'
p5189
a(lp5190
I1809
aI1809
aaI-2
aI1
aS'Condition'
p5191
a(lp5192
I1793
aI1793
aaI-2
aI4
aS'Configuration'
p5193
aS'Instances'
p5194
aS'Params'
p5195
aS'Binding'
p5196
a(lp5197
I1815
aI1815
aaI-2
aI2
aS'Asset'
p5198
aS'UF'
p5199
a(lp5200
I1814
aI1814
aaI-1
aI2
aS'EF'
p5201
ag682
a(lp5202
I1811
aI1811
aaI-2
aI1
aS'Type'
p5203
a(lp5204
I1813
aI1813
aaI-1
aI1
ag682
a(lp5205
I1812
aI1812
aaI-3
aI1
aS'Type'
p5206
a(lp5207
I1817
aI1817
aaI-1
aI1
aS'Subtype'
p5208
a(lp5209
I1816
aI1816
aaI-2
aI2
aS'Deactivation'
p5210
aS'Type'
p5211
a(lp5212
I1819
aI1819
aaI-1
aI1
aS'Condition'
p5213
a(lp5214
I1818
aI1818
aaI-3
aI1
aS'AA'
p5215
a(lp5216
I1619
aI1625
aaI1
ag256
a(lp5217
I1623
aI1625
aaI1
ag97
a(lp5218
I1625
aI1625
aaI-1
aI1
aS'JS'
p5219
a(lp5220
I1624
aI1624
aaI-2
aI1
ag682
a(lp5221
I1620
aI1622
aaI1
ag97
a(lp5222
I1622
aI1622
aaI-1
aI1
aS'JS'
p5223
a(lp5224
I1621
aI1621
aaI-3
aI1
aS'FS'
p5225
a(lp5226
I1707
aI1719
aaI1
aS'UF'
p5227
a(lp5228
I1719
aI1719
aaI-1
aI2
aS'EF'
p5229
ag682
a(lp5230
I1708
aI1716
aaI1
aS'Filter'
p5231
a(lp5232
I1710
aI1710
aaI-1
aI1
aS'Subtype'
p5233
a(lp5234
I1716
aI1716
aaI-1
aI1
aS'DL'
p5235
a(lp5236
I1709
aI1709
aaI-1
aI2
aS'Params'
p5237
aS'Size'
p5238
a(lp5239
I1715
aI1715
aaI-1
aI1
aS'CheckSum'
p5240
a(lp5241
I1712
aI1712
aaI-1
aI1
aS'CreationDate'
p5242
a(lp5243
I1713
aI1713
aaI-1
aI1
aS'ModDate'
p5244
a(lp5245
I1714
aI1714
aaI-2
aI1
aS'Length'
p5246
a(lp5247
I1711
aI1711
aaI-3
aI1
aS'Type'
p5248
a(lp5249
I1718
aI1718
aaI-1
aI1
ag682
a(lp5250
I1717
aI1717
aaI-2
aI1
aS'FT'
p5251
a(lp5252
I1720
aI1720
aaI-1
aI1
ag748
a(lp5253
I1728
aI1728
aaI-1
aI1
aS'Subtype'
p5254
a(lp5255
I1826
aI1826
aaI-1
aI1
aS'DA'
p5256
a(lp5257
I1702
aI1702
aaI-1
aI1
aS'State'
p5258
a(lp5259
I1820
aI1820
aaI-1
aI1
aS'StateModel'
p5260
a(lp5261
I1821
aI1821
aaI-1
aI1
aS'QuadPoints'
p5262
a(lp5263
I1765
aI1765
aaI-1
aI1
aS'BS'
p5264
a(lp5265
I1693
aI1696
aaI1
ag97
a(lp5266
I1694
aI1694
aaI-1
aI1
aS'Type'
p5267
a(lp5268
I1695
aI1695
aaI-1
aI1
ag59
a(lp5269
I1696
aI1696
aaI-2
aI1
aS'DV'
p5270
a(lp5271
I1704
aI1704
aaI-1
aI1
aS'Type'
p5272
a(lp5273
I1829
aI1829
aaI-1
aI1
aS'DS'
p5274
a(lp5275
I1703
aI1703
aaI-1
aI1
aS'Opt'
p5276
a(lp5277
I1761
aI1761
aaI-1
aI1
aS'Popup'
p5278
a(lp5279
I1763
aI1763
aaI-1
aI1
aS'NM'
p5280
a(lp5281
I1757
aI1757
aaI-1
aI1
aS'Dest'
p5282
a(lp5283
I1705
aI1705
aaI-1
aI1
aS'TU'
p5284
a(lp5285
I1828
aI1828
aaI-1
aI1
aS'RichMediaContent'
p5286
a(lp5287
I1769
aI1792
aaI1
aS'Subtype'
p5288
a(lp5289
I1792
aI1792
aaI-1
aI1
aS'Assets'
p5290
a(lp5291
I1770
aI1783
aaI1
aS'Names'
p5292
a(lp5293
I1771
aI1783
aaI1
aS'UF'
p5294
a(lp5295
I1783
aI1783
aaI-1
aI2
aS'EF'
p5296
ag682
a(lp5297
I1772
aI1780
aaI1
aS'Filter'
p5298
a(lp5299
I1774
aI1774
aaI-1
aI1
aS'Subtype'
p5300
a(lp5301
I1780
aI1780
aaI-1
aI1
aS'DL'
p5302
a(lp5303
I1773
aI1773
aaI-1
aI2
aS'Params'
p5304
aS'Size'
p5305
a(lp5306
I1779
aI1779
aaI-1
aI1
aS'CheckSum'
p5307
a(lp5308
I1776
aI1776
aaI-1
aI1
aS'CreationDate'
p5309
a(lp5310
I1777
aI1777
aaI-1
aI1
aS'ModDate'
p5311
a(lp5312
I1778
aI1778
aaI-2
aI1
aS'Length'
p5313
a(lp5314
I1775
aI1775
aaI-3
aI1
aS'Type'
p5315
a(lp5316
I1782
aI1782
aaI-1
aI1
ag682
a(lp5317
I1781
aI1781
aaI-3
aI1
aS'Configurations'
p5318
a(lp5319
I1784
aI1791
aaI3
aS'Instances'
p5320
aS'Params'
p5321
aS'Binding'
p5322
a(lp5323
I1789
aI1789
aaI-2
aI2
aS'Asset'
p5324
aS'UF'
p5325
a(lp5326
I1788
aI1788
aaI-1
aI2
aS'EF'
p5327
ag682
a(lp5328
I1785
aI1785
aaI-2
aI1
aS'Type'
p5329
a(lp5330
I1787
aI1787
aaI-1
aI1
ag682
a(lp5331
I1786
aI1786
aaI-3
aI1
aS'Type'
p5332
a(lp5333
I1791
aI1791
aaI-1
aI1
aS'Subtype'
p5334
a(lp5335
I1790
aI1790
aaI-3
aI1
aS'RD'
p5336
a(lp5337
I1767
aI1767
aaI-1
aI1
aS'Ff'
p5338
a(lp5339
I1721
aI1721
aaI-1
aI1
aS'RC'
p5340
a(lp5341
I1766
aI1766
aaI-1
aI1
aS'Rect'
p5342
a(lp5343
I1768
aI1768
aaI-1
aI1
aS'StructParent'
p5344
a(lp5345
I1822
aI1822
aaI-1
aI1
ag33
a(lp5346
I1583
aI1618
aaI1
ag43
a(lp5347
I1585
aI1585
aaI-1
aI1
aS'AN'
p5348
a(lp5349
I1584
aI1584
aaI-1
aI1
ag682
a(lp5350
I1586
aI1589
aaI1
aS'UF'
p5351
a(lp5352
I1589
aI1589
aaI-1
aI1
aS'Type'
p5353
a(lp5354
I1588
aI1588
aaI-1
aI1
ag682
a(lp5355
I1587
aI1587
aaI-2
aI1
aS'URI'
p5356
a(lp5357
I1618
aI1618
aaI-1
aI1
aS'JS'
p5358
a(lp5359
I1591
aI1593
aaI1
aS'Filter'
p5360
a(lp5361
I1592
aI1592
aaI-1
aI1
aS'Length'
p5362
a(lp5363
I1593
aI1593
aaI-2
aI1
ag97
a(lp5364
I1616
aI1616
aaI-1
aI1
ag52
a(lp5365
I1595
aI1615
aaI1
ag689
a(lp5366
I1596
aI1612
aaI2
ag29
aS'TF'
p5367
a(lp5368
I1611
aI1611
aaI-2
aI1
ag97
a(lp5369
I1612
aI1612
aaI-1
aI1
ag90
a(lp5370
I1610
aI1610
aaI-1
aI1
ag43
a(lp5371
I1598
aI1609
aaI1
aS'UF'
p5372
a(lp5373
I1609
aI1609
aaI-1
aI2
aS'EF'
p5374
ag682
a(lp5375
I1599
aI1606
aaI1
aS'Subtype'
p5376
a(lp5377
I1606
aI1606
aaI-1
aI1
aS'DL'
p5378
a(lp5379
I1600
aI1600
aaI-1
aI2
aS'Params'
p5380
aS'Size'
p5381
a(lp5382
I1605
aI1605
aaI-1
aI1
aS'CheckSum'
p5383
a(lp5384
I1602
aI1602
aaI-1
aI1
aS'CreationDate'
p5385
a(lp5386
I1603
aI1603
aaI-1
aI1
aS'ModDate'
p5387
a(lp5388
I1604
aI1604
aaI-2
aI1
aS'Length'
p5389
a(lp5390
I1601
aI1601
aaI-3
aI1
aS'Type'
p5391
a(lp5392
I1608
aI1608
aaI-1
aI1
ag682
a(lp5393
I1607
aI1607
aaI-2
aI1
aS'CT'
p5394
a(lp5395
I1597
aI1597
aaI-2
aI3
aS'SP'
p5396
aS'BE'
p5397
ag59
a(lp5398
I1615
aI1615
aaI-3
aI1
ag97
a(lp5399
I1614
aI1614
aaI-1
aI1
ag90
a(lp5400
I1613
aI1613
aaI-2
aI1
aS'IsMap'
p5401
a(lp5402
I1590
aI1590
aaI-1
aI1
aS'Type'
p5403
a(lp5404
I1617
aI1617
aaI-1
aI1
aS'OP'
p5405
a(lp5406
I1594
aI1594
aaI-2
aI1
ag689
a(lp5407
I1698
aI1698
aaI-1
aI1
aS'Name'
p5408
a(lp5409
I1758
aI1758
aaI-1
aI1
ag682
a(lp5410
I1706
aI1706
aaI-1
aI1
ag95
a(lp5411
I1723
aI1723
aaI-1
aI1
ag746
a(lp5412
I1722
aI1722
aaI-1
aI1
aS'CA'
p5413
a(lp5414
I1699
aI1699
aaI-1
aI1
aS'IRT'
p5415
a(lp5416
I1725
aI1725
aaI-1
aI1
aS'IT'
p5417
a(lp5418
I1726
aI1726
aaI-1
aI1
aS'3DD'
p5419
a(lp5420
I1577
aI1581
aaI1
aS'Filter'
p5421
a(lp5422
I1578
aI1578
aaI-1
aI1
aS'Subtype'
p5423
a(lp5424
I1580
aI1580
aaI-1
aI1
aS'Length'
p5425
a(lp5426
I1579
aI1579
aaI-1
aI1
aS'Type'
p5427
a(lp5428
I1581
aI1581
aaI-2
aI1
aS'AP'
p5429
a(lp5430
I1626
aI1691
aaI1
ag43
a(lp5431
I1627
aI1637
aaI1
aS'Name'
p5432
a(lp5433
I1628
aI1637
aaI1
aS'Matrix'
p5434
a(lp5435
I1633
aI1633
aaI-1
aI1
aS'Filter'
p5436
a(lp5437
I1630
aI1630
aaI-1
aI1
aS'Subtype'
p5438
a(lp5439
I1636
aI1636
aaI-1
aI1
aS'Length'
p5440
a(lp5441
I1632
aI1632
aaI-1
aI1
aS'BBox'
p5442
a(lp5443
I1629
aI1629
aaI-1
aI1
aS'FormType'
p5444
a(lp5445
I1631
aI1631
aaI-1
aI1
aS'Type'
p5446
a(lp5447
I1637
aI1637
aaI-1
aI3
aS'Resources'
p5448
aS'Font'
p5449
aS'Name'
p5450
a(lp5451
I1634
aI1634
aaI-2
aI1
aS'ProcSet'
p5452
a(lp5453
I1635
aI1635
aaI-4
aI1
ag90
a(lp5454
I1638
aI1691
aaI1
aS'Name'
p5455
a(lp5456
I1639
aI1691
aaI2
aS'XObject'
p5457
aS'Name'
p5458
a(lp5459
I1677
aI1691
aaI2
aS'Group'
p5460
ag97
a(lp5461
I1683
aI1683
aaI-2
aI1
aS'Matrix'
p5462
a(lp5463
I1686
aI1686
aaI-1
aI1
aS'Width'
p5464
a(lp5465
I1691
aI1691
aaI-1
aI3
aS'Resources'
p5466
aS'XObject'
p5467
aS'Name'
p5468
a(lp5469
I1688
aI1688
aaI-2
aI1
aS'ProcSet'
p5470
a(lp5471
I1687
aI1687
aaI-2
aI1
aS'ColorSpace'
p5472
a(lp5473
I1680
aI1680
aaI-1
aI1
aS'Height'
p5474
a(lp5475
I1684
aI1684
aaI-1
aI1
aS'Filter'
p5476
a(lp5477
I1681
aI1681
aaI-1
aI1
aS'Subtype'
p5478
a(lp5479
I1689
aI1689
aaI-1
aI1
aS'Length'
p5480
a(lp5481
I1685
aI1685
aaI-1
aI1
aS'BBox'
p5482
a(lp5483
I1678
aI1678
aaI-1
aI1
aS'FormType'
p5484
a(lp5485
I1682
aI1682
aaI-1
aI1
aS'Type'
p5486
a(lp5487
I1690
aI1690
aaI-1
aI1
aS'BitsPerComponent'
p5488
a(lp5489
I1679
aI1679
aaI-3
aI1
aS'Matrix'
p5490
a(lp5491
I1671
aI1671
aaI-1
aI1
aS'Length'
p5492
a(lp5493
I1670
aI1670
aaI-1
aI1
aS'ProcSet'
p5494
a(lp5495
I1672
aI1672
aaI-1
aI1
aS'Filter'
p5496
a(lp5497
I1646
aI1646
aaI-1
aI1
aS'Subtype'
p5498
a(lp5499
I1675
aI1675
aaI-1
aI2
aS'ExtGState'
p5500
aS'Name'
p5501
a(lp5502
I1641
aI1645
aaI1
aS'CA'
p5503
a(lp5504
I1643
aI1643
aaI-1
aI1
aS'Type'
p5505
a(lp5506
I1644
aI1644
aaI-1
aI1
aS'ca'
p5507
a(lp5508
I1645
aI1645
aaI-1
aI1
aS'AIS'
p5509
a(lp5510
I1642
aI1642
aaI-3
aI1
aS'BBox'
p5511
a(lp5512
I1640
aI1640
aaI-1
aI1
aS'FormType'
p5513
a(lp5514
I1669
aI1669
aaI-1
aI2
aS'Font'
p5515
aS'Name'
p5516
a(lp5517
I1647
aI1668
aaI1
aS'Encoding'
p5518
a(lp5519
I1649
aI1649
aaI-1
aI1
aS'BaseFont'
p5520
a(lp5521
I1648
aI1648
aaI-1
aI1
aS'Type'
p5522
a(lp5523
I1667
aI1667
aaI-1
aI1
aS'Subtype'
p5524
a(lp5525
I1666
aI1666
aaI-1
aI1
aS'FontDescriptor'
p5526
a(lp5527
I1651
aI1664
aaI1
aS'FontName'
p5528
a(lp5529
I1658
aI1658
aaI-1
aI1
aS'Descent'
p5530
a(lp5531
I1654
aI1654
aaI-1
aI1
aS'FontBBox'
p5532
a(lp5533
I1656
aI1656
aaI-1
aI1
aS'FontWeight'
p5534
a(lp5535
I1660
aI1660
aaI-1
aI1
aS'CapHeight'
p5536
a(lp5537
I1653
aI1653
aaI-1
aI1
aS'Type'
p5538
a(lp5539
I1663
aI1663
aaI-1
aI1
aS'FontFamily'
p5540
a(lp5541
I1657
aI1657
aaI-1
aI1
aS'StemV'
p5542
a(lp5543
I1662
aI1662
aaI-1
aI1
aS'Flags'
p5544
a(lp5545
I1655
aI1655
aaI-1
aI1
aS'XHeight'
p5546
a(lp5547
I1664
aI1664
aaI-1
aI1
aS'ItalicAngle'
p5548
a(lp5549
I1661
aI1661
aaI-1
aI1
aS'Ascent'
p5550
a(lp5551
I1652
aI1652
aaI-1
aI1
aS'FontStretch'
p5552
a(lp5553
I1659
aI1659
aaI-2
aI1
aS'Widths'
p5554
a(lp5555
I1668
aI1668
aaI-1
aI1
aS'LastChar'
p5556
a(lp5557
I1665
aI1665
aaI-1
aI1
aS'FirstChar'
p5558
a(lp5559
I1650
aI1650
aaI-3
aI1
aS'Type'
p5560
a(lp5561
I1676
aI1676
aaI-1
aI3
aS'Resources'
p5562
aS'Font'
p5563
aS'Name'
p5564
a(lp5565
I1673
aI1673
aaI-2
aI1
aS'ProcSet'
p5566
a(lp5567
I1674
aI1674
aaI-5
aI1
aS'AS'
p5568
a(lp5569
I1692
aI1692
aaI-1
aI2
aS'3DA'
p5570
ag33
a(lp5571
I1572
aI1572
aaI-1
aI1
aS'TB'
p5572
a(lp5573
I1576
aI1576
aaI-1
aI1
ag43
a(lp5574
I1574
aI1574
aaI-1
aI1
aS'AIS'
p5575
a(lp5576
I1573
aI1573
aaI-1
aI1
aS'DIS'
p5577
a(lp5578
I1575
aI1575
aaI-2
aI1
ag69
a(lp5579
I1830
aI1830
aaI-1
aI1
aS'Subj'
p5580
a(lp5581
I1823
aI1825
aaI1
aS'Filter'
p5582
a(lp5583
I1824
aI1824
aaI-1
aI1
aS'Length'
p5584
a(lp5585
I1825
aI1825
aaI-2
aI1
aS'IC'
p5586
a(lp5587
I1724
aI1724
aaI-1
aI1
aS'InkList'
p5588
a(lp5589
I1727
aI1727
aaI-1
aI1
aS'3DI'
p5590
a(lp5591
I1582
aI1582
aaI-1
aI1
ag796
a(lp5592
I1764
aI1764
aaI-1
aI1
ag29
a(lp5593
I1762
aI1762
aaI-1
aI1
aS'Open'
p5594
a(lp5595
I1760
aI1760
aaI-1
aI1
aS'OC'
p5596
a(lp5597
I1759
aI1759
aaI-1
aI1
aS'MK'
p5598
a(lp5599
I1729
aI1755
aaI1
aS'AC'
p5600
a(lp5601
I1730
aI1730
aaI-1
aI1
aS'BG'
p5602
a(lp5603
I1732
aI1732
aaI-1
aI1
aS'BC'
p5604
a(lp5605
I1731
aI1731
aaI-1
aI1
ag95
a(lp5606
I1734
aI1751
aaI1
aS'Name'
p5607
a(lp5608
I1738
aI1738
aaI-1
aI1
aS'Subtype'
p5609
a(lp5610
I1750
aI1750
aaI-1
aI1
aS'Length'
p5611
a(lp5612
I1737
aI1737
aaI-1
aI1
aS'BBox'
p5613
a(lp5614
I1735
aI1735
aaI-1
aI1
aS'FormType'
p5615
a(lp5616
I1736
aI1736
aaI-1
aI1
aS'Type'
p5617
a(lp5618
I1751
aI1751
aaI-1
aI3
aS'Resources'
p5619
aS'XObject'
p5620
aS'Name'
p5621
a(lp5622
I1740
aI1749
aaI1
aS'Filter'
p5623
a(lp5624
I1744
aI1744
aaI-1
aI1
aS'Width'
p5625
a(lp5626
I1749
aI1749
aaI-1
aI1
aS'ColorSpace'
p5627
a(lp5628
I1742
aI1742
aaI-1
aI1
aS'Height'
p5629
a(lp5630
I1745
aI1745
aaI-1
aI1
aS'Decode'
p5631
a(lp5632
I1743
aI1743
aaI-1
aI1
aS'Subtype'
p5633
a(lp5634
I1747
aI1747
aaI-1
aI1
aS'Length'
p5635
a(lp5636
I1746
aI1746
aaI-1
aI1
aS'Type'
p5637
a(lp5638
I1748
aI1748
aaI-1
aI1
aS'BitsPerComponent'
p5639
a(lp5640
I1741
aI1741
aaI-3
aI1
aS'ProcSet'
p5641
a(lp5642
I1739
aI1739
aaI-3
aI1
aS'CA'
p5643
a(lp5644
I1733
aI1733
aaI-1
aI1
aS'TP'
p5645
a(lp5646
I1755
aI1755
aaI-1
aI1
aS'RC'
p5647
a(lp5648
I1754
aI1754
aaI-1
aI1
aS'IF'
p5649
a(lp5650
I1752
aI1753
aaI1
ag33
a(lp5651
I1753
aI1753
aaI-3
aI1
aS'MaxLen'
p5652
a(lp5653
I1756
aI1756
aaI-1
aI1
aS'CreationDate'
p5654
a(lp5655
I1701
aI1701
aaI-1
aI1
aS'Border'
p5656
a(lp5657
I1697
aI1697
aaI-1
aI1
aS'Contents'
p5658
a(lp5659
I1700
aI1700
aaI-1
aI1
ag88
a(lp5660
I1827
aI1827
aaI-2
aI1
aS'ProcSet'
p5661
a(lp5662
I1966
aI1966
aaI-1
aI1
aS'contents'
p5663
a(lp5664
I2744
aI2744
aaI-1
aI1
aS'AA'
p5665
a(lp5666
I1555
aI1570
aaI1
aS'<nn>'
p5667
a(lp5668
I1556
aI1556
aaI-1
aI1
ag101
a(lp5669
I1557
aI1570
aaI2
aS'Win'
p5670
ag29
a(lp5671
I1570
aI1570
aaI-1
aI1
ag43
a(lp5672
I1568
aI1568
aaI-1
aI1
ag682
a(lp5673
I1569
aI1569
aaI-2
aI1
aS'URI'
p5674
a(lp5675
I1567
aI1567
aaI-1
aI1
aS'NewWindow'
p5676
a(lp5677
I1561
aI1561
aaI-1
aI1
ag97
a(lp5678
I1562
aI1562
aaI-1
aI2
ag88
ag52
a(lp5679
I1565
aI1565
aaI-1
aI1
aS'NewWindow'
p5680
a(lp5681
I1564
aI1564
aaI-1
aI1
ag90
a(lp5682
I1563
aI1563
aaI-2
aI1
aS'JS'
p5683
a(lp5684
I1558
aI1560
aaI1
aS'Filter'
p5685
a(lp5686
I1559
aI1559
aaI-1
aI1
aS'Length'
p5687
a(lp5688
I1560
aI1560
aaI-2
aI1
aS'Type'
p5689
a(lp5690
I1566
aI1566
aaI-3
aI1
aS'count'
p5691
a(lp5692
I2745
aI2745
aaI-1
aI1
ag83
a(lp5693
I1832
aI1837
aaI1
ag29
a(lp5694
I1834
aI1834
aaI-1
aI1
ag69
a(lp5695
I1837
aI1837
aaI-1
aI1
ag52
a(lp5696
I1835
aI1835
aaI-1
aI1
ag88
a(lp5697
I1836
aI1836
aaI-1
aI1
ag90
a(lp5698
I1833
aI1833
aaI-2
aI1
aS'Gofod'
p5699
a(lp5700
I1853
aI1853
aaI-1
aI1
aS'BaseFont'
p5701
a(lp5702
I1838
aI1838
aaI-1
aI1
aS'ITXT'
p5703
a(lp5704
I1865
aI1865
aaI-1
aI1
aS'TrimBox'
p5705
a(lp5706
I2732
aI2732
aaI-1
aI1
aS'Subtype'
p5707
a(lp5708
I2714
aI2714
aaI-1
aI1
aS'eCpyResolution'
p5709
a(lp5710
I2746
aI2746
aaI-1
aI1
aS'PieceInfo'
p5711
a(lp5712
I1873
aI1965
aaI2
aS'Acroscan2'
p5713
aS'LastModified'
p5714
a(lp5715
I1877
aI1877
aaI-1
aI2
aS'Private'
p5716
aS'Rows'
p5717
a(lp5718
I1898
aI1898
aaI-1
aI1
aS'Media'
p5719
a(lp5720
I1893
aI1893
aaI-1
aI1
aS'SZMinWW'
p5721
a(lp5722
I1905
aI1905
aaI-1
aI1
aS'FXMedia'
p5723
a(lp5724
I1885
aI1885
aaI-1
aI1
aS'JBIG2Quality'
p5725
a(lp5726
I1890
aI1890
aaI-1
aI1
aS'SZADFMaxSW'
p5727
a(lp5728
I1901
aI1901
aaI-1
aI1
aS'Columns'
p5729
a(lp5730
I1882
aI1882
aaI-1
aI1
aS'DefaultUpsample'
p5731
a(lp5732
I1883
aI1883
aaI-1
aI1
aS'BandHeight'
p5733
a(lp5734
I1879
aI1879
aaI-1
aI1
aS'Precision'
p5735
a(lp5736
I1896
aI1896
aaI-1
aI1
aS'FixHalos'
p5737
a(lp5738
I1888
aI1888
aaI-1
aI1
aS'FXRes'
p5739
a(lp5740
I1886
aI1886
aaI-1
aI1
aS'SZMaxSW'
p5741
a(lp5742
I1904
aI1904
aaI-1
aI1
aS'Segment'
p5743
a(lp5744
I1908
aI1908
aaI-1
aI1
aS'SZTop'
p5745
a(lp5746
I1907
aI1907
aaI-1
aI1
aS'PepperFilters'
p5747
a(lp5748
I1895
aI1895
aaI-1
aI1
aS'FYRes'
p5749
a(lp5750
I1887
aI1887
aaI-1
aI1
aS'LZWPredictor'
p5751
a(lp5752
I1892
aI1892
aaI-1
aI1
aS'Deskew'
p5753
a(lp5754
I1884
aI1884
aaI-1
aI1
aS'YMapMin'
p5755
a(lp5756
I1909
aI1909
aaI-1
aI1
aS'ADF'
p5757
a(lp5758
I1878
aI1878
aaI-1
aI1
aS'MonoComp'
p5759
a(lp5760
I1894
aI1894
aaI-1
aI1
aS'SGray'
p5761
a(lp5762
I1899
aI1899
aaI-1
aI1
aS'YMedia'
p5763
a(lp5764
I1910
aI1910
aaI-1
aI1
aS'SZLeft'
p5765
a(lp5766
I1903
aI1903
aaI-1
aI1
aS'SMono'
p5767
a(lp5768
I1900
aI1900
aaI-1
aI1
aS'SZRight'
p5769
a(lp5770
I1906
aI1906
aaI-1
aI1
aS'LZWEarlyChange'
p5771
a(lp5772
I1891
aI1891
aaI-1
aI1
aS'InFormat'
p5773
a(lp5774
I1889
aI1889
aaI-1
aI1
aS'BlackUpsample'
p5775
a(lp5776
I1880
aI1880
aaI-1
aI1
aS'Colors'
p5777
a(lp5778
I1881
aI1881
aaI-1
aI1
aS'SZBot'
p5779
a(lp5780
I1902
aI1902
aaI-1
aI1
aS'Quality'
p5781
a(lp5782
I1897
aI1897
aaI-3
aI1
aS'Acroscan1'
p5783
a(lp5784
I1874
aI1876
aaI1
aS'LastModified'
p5785
a(lp5786
I1875
aI1875
aaI-1
aI1
aS'Private'
p5787
a(lp5788
I1876
aI1876
aaI-2
aI1
aS'Illustrator'
p5789
a(lp5790
I1911
aI1962
aaI1
aS'LastModified'
p5791
a(lp5792
I1912
aI1912
aaI-1
aI1
aS'Private'
p5793
a(lp5794
I1913
aI1962
aaI1
aS'AIPDFPrivateData6'
p5795
a(lp5796
I1947
aI1949
aaI1
aS'Filter'
p5797
a(lp5798
I1948
aI1948
aaI-1
aI1
aS'Length'
p5799
a(lp5800
I1949
aI1949
aaI-2
aI1
aS'NumBlock'
p5801
a(lp5802
I1961
aI1961
aaI-1
aI1
aS'AIPDFPrivateData7'
p5803
a(lp5804
I1950
aI1952
aaI1
aS'Filter'
p5805
a(lp5806
I1951
aI1951
aaI-1
aI1
aS'Length'
p5807
a(lp5808
I1952
aI1952
aaI-2
aI1
aS'AIPDFPrivateData5'
p5809
a(lp5810
I1944
aI1946
aaI1
aS'Filter'
p5811
a(lp5812
I1945
aI1945
aaI-1
aI1
aS'Length'
p5813
a(lp5814
I1946
aI1946
aaI-2
aI1
aS'AIPDFPrivateData13'
p5815
a(lp5816
I1929
aI1931
aaI1
aS'Filter'
p5817
a(lp5818
I1930
aI1930
aaI-1
aI1
aS'Length'
p5819
a(lp5820
I1931
aI1931
aaI-2
aI1
aS'AIPDFPrivateData4'
p5821
a(lp5822
I1941
aI1943
aaI1
aS'Filter'
p5823
a(lp5824
I1942
aI1942
aaI-1
aI1
aS'Length'
p5825
a(lp5826
I1943
aI1943
aaI-2
aI1
aS'RoundtripVersion'
p5827
a(lp5828
I1962
aI1962
aaI-1
aI1
aS'AIPDFPrivateData10'
p5829
a(lp5830
I1920
aI1922
aaI1
aS'Filter'
p5831
a(lp5832
I1921
aI1921
aaI-1
aI1
aS'Length'
p5833
a(lp5834
I1922
aI1922
aaI-2
aI1
aS'AIPDFPrivateData11'
p5835
a(lp5836
I1923
aI1925
aaI1
aS'Filter'
p5837
a(lp5838
I1924
aI1924
aaI-1
aI1
aS'Length'
p5839
a(lp5840
I1925
aI1925
aaI-2
aI1
aS'AIPDFPrivateData12'
p5841
a(lp5842
I1926
aI1928
aaI1
aS'Filter'
p5843
a(lp5844
I1927
aI1927
aaI-1
aI1
aS'Length'
p5845
a(lp5846
I1928
aI1928
aaI-2
aI1
aS'AIMetaData'
p5847
a(lp5848
I1914
aI1916
aaI1
aS'Filter'
p5849
a(lp5850
I1915
aI1915
aaI-1
aI1
aS'Length'
p5851
a(lp5852
I1916
aI1916
aaI-2
aI1
aS'AIPDFPrivateData14'
p5853
a(lp5854
I1932
aI1934
aaI1
aS'Filter'
p5855
a(lp5856
I1933
aI1933
aaI-1
aI1
aS'Length'
p5857
a(lp5858
I1934
aI1934
aaI-2
aI1
aS'AIPDFPrivateData3'
p5859
a(lp5860
I1938
aI1940
aaI1
aS'Filter'
p5861
a(lp5862
I1939
aI1939
aaI-1
aI1
aS'Length'
p5863
a(lp5864
I1940
aI1940
aaI-2
aI1
aS'AIPDFPrivateData1'
p5865
a(lp5866
I1917
aI1919
aaI1
aS'Filter'
p5867
a(lp5868
I1918
aI1918
aaI-1
aI1
aS'Length'
p5869
a(lp5870
I1919
aI1919
aaI-2
aI1
aS'AIPDFPrivateData2'
p5871
a(lp5872
I1935
aI1937
aaI1
aS'Filter'
p5873
a(lp5874
I1936
aI1936
aaI-1
aI1
aS'Length'
p5875
a(lp5876
I1937
aI1937
aaI-2
aI1
aS'ContainerVersion'
p5877
a(lp5878
I1959
aI1959
aaI-1
aI1
aS'CreatorVersion'
p5879
a(lp5880
I1960
aI1960
aaI-1
aI1
aS'AIPDFPrivateData8'
p5881
a(lp5882
I1953
aI1955
aaI1
aS'Filter'
p5883
a(lp5884
I1954
aI1954
aaI-1
aI1
aS'Length'
p5885
a(lp5886
I1955
aI1955
aaI-2
aI1
aS'AIPDFPrivateData9'
p5887
a(lp5888
I1956
aI1958
aaI1
aS'Filter'
p5889
a(lp5890
I1957
aI1957
aaI-1
aI1
aS'Length'
p5891
a(lp5892
I1958
aI1958
aaI-4
aI1
aS'PDFWP'
p5893
a(lp5894
I1963
aI1965
aaI1
aS'LastModified'
p5895
a(lp5896
I1964
aI1964
aaI-1
aI1
aS'Private'
p5897
a(lp5898
I1965
aI1965
aaI-3
aI1
aS'ID'
p5899
a(lp5900
I1864
aI1864
aaI-1
aI1
aS'Rotate'
p5901
a(lp5902
I2712
aI2712
aaI-1
aI1
aS'ArtBox'
p5903
a(lp5904
I1831
aI1831
aaI-1
aI2
aS'VP'
p5905
aS'BBox'
p5906
a(lp5907
I2734
aI2734
aaI-1
aI3
aS'Measure'
p5908
ag33
ag689
a(lp5909
I2735
aI2735
aaI-1
aI1
ag825
a(lp5910
I2736
aI2736
aaI-2
aI1
aS'Subtype'
p5911
a(lp5912
I2740
aI2740
aaI-1
aI1
ag52
a(lp5913
I2739
aI2739
aaI-1
aI2
ag43
ag689
a(lp5914
I2737
aI2737
aaI-1
aI1
ag825
a(lp5915
I2738
aI2738
aaI-2
aI2
ag832
ag689
a(lp5916
I2741
aI2741
aaI-1
aI1
ag825
a(lp5917
I2742
aI2742
aaI-4
aI1
aS'Encoding'
p5918
a(lp5919
I1850
aI1850
aaI-1
aI1
aS'Tabs'
p5920
a(lp5921
I2715
aI2715
aaI-1
aI1
aS'StructParents'
p5922
a(lp5923
I2713
aI2713
aaI-1
aI1
aS'CropBox'
p5924
a(lp5925
I1849
aI1849
aaI-1
aI1
aS'QInserted'
p5926
a(lp5927
I1967
aI1967
aaI-1
aI2
aS'Font'
p5928
aS'F1'
p5929
a(lp5930
I1851
aI1851
aaI-1
aI1
aS'F2'
p5931
a(lp5932
I1852
aI1852
aaI-2
aI1
aS'Id'
p5933
a(lp5934
I1866
aI1866
aaI-1
aI1
aS'Contents'
p5935
a(lp5936
I1840
aI1847
aaI1
aS'DecodeParms'
p5937
a(lp5938
I1841
aI1845
aaI1
aS'Colors'
p5939
a(lp5940
I1843
aI1843
aaI-1
aI1
aS'Columns'
p5941
a(lp5942
I1844
aI1844
aaI-1
aI1
aS'BitsPerComponent'
p5943
a(lp5944
I1842
aI1842
aaI-1
aI1
aS'Predictor'
p5945
a(lp5946
I1845
aI1845
aaI-2
aI1
aS'Filter'
p5947
a(lp5948
I1846
aI1846
aaI-1
aI1
aS'Length'
p5949
a(lp5950
I1847
aI1847
aaI-3
aI1
aS'PageLabels'
p5951
a(lp5952
I1541
aI1550
aaI1
ag97
a(lp5953
I1550
aI1550
aaI-1
aI1
aS'Nums'
p5954
a(lp5955
I1546
aI1549
aaI1
ag29
a(lp5956
I1547
aI1547
aaI-1
aI1
ag97
a(lp5957
I1548
aI1548
aaI-1
aI1
aS'St'
p5958
a(lp5959
I1549
aI1549
aaI-2
aI1
aS'JS'
p5960
a(lp5961
I1542
aI1545
aaI1
aS'Filter'
p5962
a(lp5963
I1544
aI1544
aaI-1
aI1
aS'DL'
p5964
a(lp5965
I1543
aI1543
aaI-1
aI1
aS'Length'
p5966
a(lp5967
I1545
aI1545
aaI-3
aI2
aS'openAction'
p5968
ag97
a(lp5969
I3511
aI3511
aaI-1
aI1
aS'JS'
p5970
a(lp5971
I3510
aI3510
aaI-2
aI1
aS'Outlines'
p5972
a(lp5973
I1264
aI1531
aaI1
ag33
a(lp5974
I1265
aI1321
aaI1
ag97
a(lp5975
I1320
aI1320
aaI-1
aI1
ag43
a(lp5976
I1266
aI1319
aaI1
aS'Rotate'
p5977
a(lp5978
I1318
aI1318
aaI-1
aI1
aS'MediaBox'
p5979
a(lp5980
I1283
aI1283
aaI-1
aI1
aS'Annots'
p5981
a(lp5982
I1267
aI1278
aaI1
ag33
a(lp5983
I1268
aI1270
aaI1
ag97
a(lp5984
I1270
aI1270
aaI-1
aI1
ag43
a(lp5985
I1269
aI1269
aaI-2
aI1
aS'Type'
p5986
a(lp5987
I1278
aI1278
aaI-1
aI1
ag746
a(lp5988
I1275
aI1275
aaI-1
aI1
aS'Subtype'
p5989
a(lp5990
I1277
aI1277
aaI-1
aI2
aS'BS'
p5991
ag97
a(lp5992
I1271
aI1271
aaI-1
aI1
aS'Type'
p5993
a(lp5994
I1272
aI1272
aaI-1
aI1
ag59
a(lp5995
I1273
aI1273
aaI-2
aI1
aS'Border'
p5996
a(lp5997
I1274
aI1274
aaI-1
aI1
aS'Rect'
p5998
a(lp5999
I1276
aI1276
aaI-2
aI1
aS'CropBox'
p6000
a(lp6001
I1282
aI1282
aaI-1
aI1
aS'Contents'
p6002
a(lp6003
I1279
aI1281
aaI1
aS'Filter'
p6004
a(lp6005
I1280
aI1280
aaI-1
aI1
aS'Length'
p6006
a(lp6007
I1281
aI1281
aaI-2
aI1
aS'Type'
p6008
a(lp6009
I1319
aI1319
aaI-1
aI1
aS'Resources'
p6010
a(lp6011
I1284
aI1317
aaI2
aS'ExtGState'
p6012
aS'Name'
p6013
a(lp6014
I1285
aI1289
aaI1
aS'SA'
p6015
a(lp6016
I1288
aI1288
aaI-1
aI1
aS'Type'
p6017
a(lp6018
I1289
aI1289
aaI-1
aI1
aS'HT'
p6019
a(lp6020
I1286
aI1286
aaI-1
aI1
aS'OP'
p6021
a(lp6022
I1287
aI1287
aaI-3
aI2
aS'Font'
p6023
aS'Name'
p6024
a(lp6025
I1290
aI1316
aaI1
aS'Name'
p6026
a(lp6027
I1313
aI1313
aaI-1
aI1
aS'Encoding'
p6028
a(lp6029
I1292
aI1294
aaI1
aS'Differences'
p6030
a(lp6031
I1293
aI1293
aaI-1
aI1
aS'Type'
p6032
a(lp6033
I1294
aI1294
aaI-2
aI1
aS'BaseFont'
p6034
a(lp6035
I1291
aI1291
aaI-1
aI1
aS'Type'
p6036
a(lp6037
I1315
aI1315
aaI-1
aI1
aS'Subtype'
p6038
a(lp6039
I1314
aI1314
aaI-1
aI1
aS'FontDescriptor'
p6040
a(lp6041
I1296
aI1311
aaI1
aS'FontName'
p6042
a(lp6043
I1303
aI1303
aaI-1
aI1
aS'Descent'
p6044
a(lp6045
I1300
aI1300
aaI-1
aI1
aS'FontBBox'
p6046
a(lp6047
I1302
aI1302
aaI-1
aI1
aS'CapHeight'
p6048
a(lp6049
I1299
aI1299
aaI-1
aI1
aS'Leading'
p6050
a(lp6051
I1305
aI1305
aaI-1
aI1
aS'MaxWidth'
p6052
a(lp6053
I1306
aI1306
aaI-1
aI1
aS'StemH'
p6054
a(lp6055
I1308
aI1308
aaI-1
aI1
aS'StemV'
p6056
a(lp6057
I1309
aI1309
aaI-1
aI1
aS'Type'
p6058
a(lp6059
I1310
aI1310
aaI-1
aI1
aS'AvgWidth'
p6060
a(lp6061
I1298
aI1298
aaI-1
aI1
aS'XHeight'
p6062
a(lp6063
I1311
aI1311
aaI-1
aI1
aS'MissingWidth'
p6064
a(lp6065
I1307
aI1307
aaI-1
aI1
aS'Flags'
p6066
a(lp6067
I1301
aI1301
aaI-1
aI1
aS'ItalicAngle'
p6068
a(lp6069
I1304
aI1304
aaI-1
aI1
aS'Ascent'
p6070
a(lp6071
I1297
aI1297
aaI-2
aI1
aS'Widths'
p6072
a(lp6073
I1316
aI1316
aaI-1
aI1
aS'LastChar'
p6074
a(lp6075
I1312
aI1312
aaI-1
aI1
aS'FirstChar'
p6076
a(lp6077
I1295
aI1295
aaI-3
aI1
aS'ProcSet'
p6078
a(lp6079
I1317
aI1317
aaI-3
aI1
aS'URI'
p6080
a(lp6081
I1321
aI1321
aaI-2
aI1
aS'Count'
p6082
a(lp6083
I1323
aI1323
aaI-1
aI1
ag689
a(lp6084
I1322
aI1322
aaI-1
aI1
ag682
a(lp6085
I1520
aI1520
aaI-1
aI1
aS'Dest'
p6086
a(lp6087
I1324
aI1519
aaI1
aS'BleedBox'
p6088
a(lp6089
I1335
aI1335
aaI-1
aI1
ag2793
a(lp6090
I1340
aI1340
aaI-1
aI1
aS'Thumb'
p6091
a(lp6092
I1509
aI1517
aaI1
aS'ColorSpace'
p6093
a(lp6094
I1511
aI1513
aaI1
aS'Filter'
p6095
a(lp6096
I1512
aI1512
aaI-1
aI1
aS'Length'
p6097
a(lp6098
I1513
aI1513
aaI-2
aI1
aS'Height'
p6099
a(lp6100
I1515
aI1515
aaI-1
aI1
aS'Filter'
p6101
a(lp6102
I1514
aI1514
aaI-1
aI1
aS'Width'
p6103
a(lp6104
I1517
aI1517
aaI-1
aI1
aS'Length'
p6105
a(lp6106
I1516
aI1516
aaI-1
aI1
aS'BitsPerComponent'
p6107
a(lp6108
I1510
aI1510
aaI-2
aI1
aS'MediaBox'
p6109
a(lp6110
I1345
aI1345
aaI-1
aI1
ag97
a(lp6111
I1507
aI1507
aaI-1
aI1
aS'LastModified'
p6112
a(lp6113
I1343
aI1343
aaI-1
aI1
aS'Resources'
p6114
a(lp6115
I1347
aI1505
aaI2
aS'XObject'
p6116
aS'Name'
p6117
a(lp6118
I1454
aI1505
aaI2
aS'DecodeParms'
p6119
ag256
a(lp6120
I1459
aI1459
aaI-1
aI1
aS'Columns'
p6121
a(lp6122
I1458
aI1458
aaI-2
aI1
aS'Matrix'
p6123
a(lp6124
I1465
aI1465
aaI-1
aI1
aS'Width'
p6125
a(lp6126
I1505
aI1505
aaI-1
aI1
aS'Resources'
p6127
a(lp6128
I1467
aI1502
aaI3
aS'Properties'
p6129
aS'Name'
p6130
aS'Title'
p6131
a(lp6132
I1501
aI1501
aaI-1
aI1
aS'Color'
p6133
a(lp6134
I1496
aI1496
aaI-1
aI1
aS'Editable'
p6135
a(lp6136
I1498
aI1498
aaI-1
aI1
aS'Dimmed'
p6137
a(lp6138
I1497
aI1497
aaI-1
aI1
aS'Visible'
p6139
a(lp6140
I1502
aI1502
aaI-1
aI1
aS'Printed'
p6141
a(lp6142
I1500
aI1500
aaI-1
aI1
aS'Preview'
p6143
a(lp6144
I1499
aI1499
aaI-3
aI2
aS'ExtGState'
p6145
aS'Name'
p6146
a(lp6147
I1469
aI1469
aaI-2
aI2
aS'ColorSpace'
p6148
aS'Name'
p6149
a(lp6150
I1468
aI1468
aaI-2
aI2
aS'Font'
p6151
aS'Name'
p6152
a(lp6153
I1470
aI1494
aaI1
aS'Encoding'
p6154
a(lp6155
I1472
aI1472
aaI-1
aI1
aS'BaseFont'
p6156
a(lp6157
I1471
aI1471
aaI-1
aI1
aS'Type'
p6158
a(lp6159
I1493
aI1493
aaI-1
aI1
aS'Subtype'
p6160
a(lp6161
I1492
aI1492
aaI-1
aI1
aS'FontDescriptor'
p6162
a(lp6163
I1474
aI1490
aaI1
aS'FontFile3'
p6164
a(lp6165
I1481
aI1484
aaI1
aS'Filter'
p6166
a(lp6167
I1482
aI1482
aaI-1
aI1
aS'Subtype'
p6168
a(lp6169
I1484
aI1484
aaI-1
aI1
aS'Length'
p6170
a(lp6171
I1483
aI1483
aaI-2
aI1
aS'FontName'
p6172
a(lp6173
I1485
aI1485
aaI-1
aI1
aS'Descent'
p6174
a(lp6175
I1478
aI1478
aaI-1
aI1
aS'FontBBox'
p6176
a(lp6177
I1480
aI1480
aaI-1
aI1
aS'CapHeight'
p6178
a(lp6179
I1476
aI1476
aaI-1
aI1
aS'Type'
p6180
a(lp6181
I1489
aI1489
aaI-1
aI1
aS'CharSet'
p6182
a(lp6183
I1477
aI1477
aaI-1
aI1
aS'StemH'
p6184
a(lp6185
I1487
aI1487
aaI-1
aI1
aS'StemV'
p6186
a(lp6187
I1488
aI1488
aaI-1
aI1
aS'Flags'
p6188
a(lp6189
I1479
aI1479
aaI-1
aI1
aS'XHeight'
p6190
a(lp6191
I1490
aI1490
aaI-1
aI1
aS'ItalicAngle'
p6192
a(lp6193
I1486
aI1486
aaI-1
aI1
aS'Ascent'
p6194
a(lp6195
I1475
aI1475
aaI-2
aI1
aS'Widths'
p6196
a(lp6197
I1494
aI1494
aaI-1
aI1
aS'LastChar'
p6198
a(lp6199
I1491
aI1491
aaI-1
aI1
aS'FirstChar'
p6200
a(lp6201
I1473
aI1473
aaI-3
aI1
aS'ProcSet'
p6202
a(lp6203
I1495
aI1495
aaI-2
aI1
aS'ColorSpace'
p6204
a(lp6205
I1457
aI1457
aaI-1
aI1
aS'Length'
p6206
a(lp6207
I1464
aI1464
aaI-1
aI1
aS'Height'
p6208
a(lp6209
I1462
aI1462
aaI-1
aI1
aS'Filter'
p6210
a(lp6211
I1460
aI1460
aaI-1
aI1
aS'Subtype'
p6212
a(lp6213
I1503
aI1503
aaI-1
aI1
aS'ImageMask'
p6214
a(lp6215
I1463
aI1463
aaI-1
aI1
aS'BBox'
p6216
a(lp6217
I1455
aI1455
aaI-1
aI1
aS'FormType'
p6218
a(lp6219
I1461
aI1461
aaI-1
aI1
aS'Type'
p6220
a(lp6221
I1504
aI1504
aaI-1
aI1
aS'BitsPerComponent'
p6222
a(lp6223
I1456
aI1456
aaI-1
aI1
aS'Name'
p6224
a(lp6225
I1466
aI1466
aaI-3
aI1
aS'ColorSpace'
p6226
a(lp6227
I1348
aI1361
aaI1
aS'Name'
p6228
a(lp6229
I1349
aI1361
aaI1
aS'Domain'
p6230
a(lp6231
I1353
aI1353
aaI-1
aI1
aS'Matrix'
p6232
a(lp6233
I1358
aI1358
aaI-1
aI1
aS'WhitePoint'
p6234
a(lp6235
I1361
aI1361
aaI-1
aI1
aS'Alternate'
p6236
a(lp6237
I1350
aI1350
aaI-1
aI1
aS'Range'
p6238
a(lp6239
I1360
aI1360
aaI-1
aI1
ag90
a(lp6240
I1359
aI1359
aaI-1
aI1
aS'Filter'
p6241
a(lp6242
I1354
aI1354
aaI-1
aI1
aS'Length'
p6243
a(lp6244
I1357
aI1357
aaI-1
aI1
aS'C1'
p6245
a(lp6246
I1352
aI1352
aaI-1
aI1
aS'C0'
p6247
a(lp6248
I1351
aI1351
aaI-1
aI1
aS'FunctionType'
p6249
a(lp6250
I1355
aI1355
aaI-1
aI1
aS'Gamma'
p6251
a(lp6252
I1356
aI1356
aaI-3
aI1
aS'ProcSet'
p6253
a(lp6254
I1443
aI1443
aaI-1
aI1
aS'ExtGState'
p6255
a(lp6256
I1362
aI1375
aaI1
aS'Name'
p6257
a(lp6258
I1363
aI1375
aaI1
aS'SMask'
p6259
a(lp6260
I1371
aI1371
aaI-1
aI1
aS'UCR2'
p6261
a(lp6262
I1374
aI1374
aaI-1
aI1
aS'BM'
p6263
a(lp6264
I1365
aI1365
aaI-1
aI1
aS'BG2'
p6265
a(lp6266
I1364
aI1364
aaI-1
aI1
aS'HT2'
p6267
a(lp6268
I1366
aI1366
aaI-1
aI1
aS'SM'
p6269
a(lp6270
I1370
aI1370
aaI-1
aI1
aS'op'
p6271
a(lp6272
I1375
aI1375
aaI-1
aI1
aS'OPM'
p6273
a(lp6274
I1368
aI1368
aaI-1
aI1
aS'SA'
p6275
a(lp6276
I1369
aI1369
aaI-1
aI1
aS'TR2'
p6277
a(lp6278
I1372
aI1372
aaI-1
aI1
aS'Type'
p6279
a(lp6280
I1373
aI1373
aaI-1
aI1
aS'OP'
p6281
a(lp6282
I1367
aI1367
aaI-3
aI2
aS'Font'
p6283
aS'Name'
p6284
a(lp6285
I1376
aI1442
aaI1
aS'Name'
p6286
a(lp6287
I1436
aI1436
aaI-1
aI1
aS'Encoding'
p6288
a(lp6289
I1401
aI1403
aaI1
aS'Differences'
p6290
a(lp6291
I1402
aI1402
aaI-1
aI1
aS'Type'
p6292
a(lp6293
I1403
aI1403
aaI-2
aI1
aS'BaseFont'
p6294
a(lp6295
I1377
aI1377
aaI-1
aI1
aS'Type'
p6296
a(lp6297
I1441
aI1441
aaI-1
aI1
aS'DescendantFonts'
p6298
a(lp6299
I1378
aI1400
aaI1
ag59
a(lp6300
I1400
aI1400
aaI-1
aI1
aS'BaseFont'
p6301
a(lp6302
I1379
aI1379
aaI-1
aI2
aS'CIDSystemInfo'
p6303
aS'Ordering'
p6304
a(lp6305
I1380
aI1380
aaI-1
aI1
aS'Supplement'
p6306
a(lp6307
I1382
aI1382
aaI-1
aI1
aS'Registry'
p6308
a(lp6309
I1381
aI1381
aaI-2
aI1
aS'Subtype'
p6310
a(lp6311
I1398
aI1398
aaI-1
aI1
aS'FontDescriptor'
p6312
a(lp6313
I1384
aI1397
aaI1
aS'FontFile2'
p6314
a(lp6315
I1390
aI1393
aaI1
aS'Filter'
p6316
a(lp6317
I1391
aI1391
aaI-1
aI1
aS'Length'
p6318
a(lp6319
I1392
aI1392
aaI-1
aI1
aS'Length1'
p6320
a(lp6321
I1393
aI1393
aaI-2
aI1
aS'FontName'
p6322
a(lp6323
I1394
aI1394
aaI-1
aI1
aS'Descent'
p6324
a(lp6325
I1387
aI1387
aaI-1
aI1
aS'FontBBox'
p6326
a(lp6327
I1389
aI1389
aaI-1
aI1
aS'CapHeight'
p6328
a(lp6329
I1386
aI1386
aaI-1
aI1
aS'Type'
p6330
a(lp6331
I1397
aI1397
aaI-1
aI1
aS'StemV'
p6332
a(lp6333
I1396
aI1396
aaI-1
aI1
aS'Flags'
p6334
a(lp6335
I1388
aI1388
aaI-1
aI1
aS'ItalicAngle'
p6336
a(lp6337
I1395
aI1395
aaI-1
aI1
aS'Ascent'
p6338
a(lp6339
I1385
aI1385
aaI-2
aI1
aS'DW'
p6340
a(lp6341
I1383
aI1383
aaI-1
aI1
aS'Type'
p6342
a(lp6343
I1399
aI1399
aaI-2
aI1
aS'Subtype'
p6344
a(lp6345
I1437
aI1437
aaI-1
aI1
aS'ToUnicode'
p6346
a(lp6347
I1438
aI1440
aaI1
aS'Filter'
p6348
a(lp6349
I1439
aI1439
aaI-1
aI1
aS'Length'
p6350
a(lp6351
I1440
aI1440
aaI-2
aI1
aS'FontDescriptor'
p6352
a(lp6353
I1405
aI1434
aaI1
aS'FontFile2'
p6354
a(lp6355
I1419
aI1422
aaI1
aS'Filter'
p6356
a(lp6357
I1420
aI1420
aaI-1
aI1
aS'Length'
p6358
a(lp6359
I1421
aI1421
aaI-1
aI1
aS'Length1'
p6360
a(lp6361
I1422
aI1422
aaI-2
aI1
aS'FontFile'
p6362
a(lp6363
I1413
aI1418
aaI1
aS'Filter'
p6364
a(lp6365
I1414
aI1414
aaI-1
aI1
aS'Length2'
p6366
a(lp6367
I1417
aI1417
aaI-1
aI1
aS'Length'
p6368
a(lp6369
I1415
aI1415
aaI-1
aI1
aS'Length3'
p6370
a(lp6371
I1418
aI1418
aaI-1
aI1
aS'Length1'
p6372
a(lp6373
I1416
aI1416
aaI-2
aI1
aS'FontName'
p6374
a(lp6375
I1427
aI1427
aaI-1
aI1
aS'Descent'
p6376
a(lp6377
I1409
aI1409
aaI-1
aI1
aS'FontBBox'
p6378
a(lp6379
I1411
aI1411
aaI-1
aI1
aS'FontFile3'
p6380
a(lp6381
I1423
aI1426
aaI1
aS'Filter'
p6382
a(lp6383
I1424
aI1424
aaI-1
aI1
aS'Subtype'
p6384
a(lp6385
I1426
aI1426
aaI-1
aI1
aS'Length'
p6386
a(lp6387
I1425
aI1425
aaI-2
aI1
aS'CapHeight'
p6388
a(lp6389
I1407
aI1407
aaI-1
aI1
aS'Type'
p6390
a(lp6391
I1433
aI1433
aaI-1
aI1
aS'CharSet'
p6392
a(lp6393
I1408
aI1408
aaI-1
aI1
aS'StemH'
p6394
a(lp6395
I1431
aI1431
aaI-1
aI1
aS'FontWeight'
p6396
a(lp6397
I1429
aI1429
aaI-1
aI1
aS'FontFamily'
p6398
a(lp6399
I1412
aI1412
aaI-1
aI1
aS'StemV'
p6400
a(lp6401
I1432
aI1432
aaI-1
aI1
aS'Flags'
p6402
a(lp6403
I1410
aI1410
aaI-1
aI1
aS'XHeight'
p6404
a(lp6405
I1434
aI1434
aaI-1
aI1
aS'ItalicAngle'
p6406
a(lp6407
I1430
aI1430
aaI-1
aI1
aS'Ascent'
p6408
a(lp6409
I1406
aI1406
aaI-1
aI1
aS'FontStretch'
p6410
a(lp6411
I1428
aI1428
aaI-2
aI1
aS'Widths'
p6412
a(lp6413
I1442
aI1442
aaI-1
aI1
aS'LastChar'
p6414
a(lp6415
I1435
aI1435
aaI-1
aI1
aS'FirstChar'
p6416
a(lp6417
I1404
aI1404
aaI-3
aI2
aS'Properties'
p6418
aS'Name'
p6419
a(lp6420
I1444
aI1453
aaI1
aS'Title'
p6421
a(lp6422
I1451
aI1451
aaI-1
aI1
aS'Color'
p6423
a(lp6424
I1445
aI1445
aaI-1
aI1
aS'Editable'
p6425
a(lp6426
I1447
aI1447
aaI-1
aI1
aS'Dimmed'
p6427
a(lp6428
I1446
aI1446
aaI-1
aI1
aS'OCGs'
p6429
a(lp6430
I1448
aI1448
aaI-1
aI1
aS'Visible'
p6431
a(lp6432
I1453
aI1453
aaI-1
aI1
aS'Printed'
p6433
a(lp6434
I1450
aI1450
aaI-1
aI1
aS'Preview'
p6435
a(lp6436
I1449
aI1449
aaI-1
aI1
aS'Type'
p6437
a(lp6438
I1452
aI1452
aaI-4
aI1
aS'StructParents'
p6439
a(lp6440
I1508
aI1508
aaI-1
aI1
aS'Annots'
p6441
a(lp6442
I1325
aI1334
aaI1
ag33
a(lp6443
I1326
aI1328
aaI1
ag97
a(lp6444
I1327
aI1327
aaI-1
aI1
aS'URI'
p6445
a(lp6446
I1328
aI1328
aaI-2
aI1
ag689
a(lp6447
I1330
aI1330
aaI-1
aI1
aS'Dest'
p6448
a(lp6449
I1331
aI1331
aaI-1
aI1
aS'Type'
p6450
a(lp6451
I1334
aI1334
aaI-1
aI1
aS'Subtype'
p6452
a(lp6453
I1333
aI1333
aaI-1
aI1
aS'Border'
p6454
a(lp6455
I1329
aI1329
aaI-1
aI1
aS'Rect'
p6456
a(lp6457
I1332
aI1332
aaI-2
aI1
aS'CropBox'
p6458
a(lp6459
I1339
aI1339
aaI-1
aI1
aS'Filter'
p6460
a(lp6461
I1341
aI1341
aaI-1
aI1
aS'Length'
p6462
a(lp6463
I1344
aI1344
aaI-1
aI1
aS'Rotate'
p6464
a(lp6465
I1506
aI1506
aaI-1
aI1
ag101
a(lp6466
I1346
aI1346
aaI-1
aI1
ag69
a(lp6467
I1519
aI1519
aaI-1
aI1
aS'Type'
p6468
a(lp6469
I1518
aI1518
aaI-1
aI1
aS'Id'
p6470
a(lp6471
I1342
aI1342
aaI-1
aI1
aS'Contents'
p6472
a(lp6473
I1336
aI1338
aaI1
aS'Filter'
p6474
a(lp6475
I1337
aI1337
aaI-1
aI1
aS'Length'
p6476
a(lp6477
I1338
aI1338
aaI-3
aI1
aS'Title'
p6478
a(lp6479
I1530
aI1530
aaI-1
aI1
aS'Type'
p6480
a(lp6481
I1531
aI1531
aaI-1
aI1
aS'SE'
p6482
a(lp6483
I1521
aI1529
aaI1
aS'Info'
p6484
a(lp6485
I1522
aI1523
aaI1
aS'Name'
p6486
a(lp6487
I1523
aI1523
aaI-2
aI1
ag97
a(lp6488
I1529
aI1529
aaI-1
aI1
aS'Pg'
p6489
a(lp6490
I1528
aI1528
aaI-1
aI1
aS'Metadata'
p6491
a(lp6492
I1524
aI1527
aaI1
aS'Subtype'
p6493
a(lp6494
I1526
aI1526
aaI-1
aI1
aS'Length'
p6495
a(lp6496
I1525
aI1525
aaI-1
aI1
aS'Type'
p6497
a(lp6498
I1527
aI1527
aaI-4
aI2
aS'OCProperties'
p6499
aS'OCGs'
p6500
a(lp6501
I660
aI671
aaI1
aS'Usage'
p6502
a(lp6503
I664
aI671
aaI2
aS'Print'
p6504
aS'PrintState'
p6505
a(lp6506
I670
aI670
aaI-2
aI2
aS'PageElement'
p6507
aS'SubType'
p6508
a(lp6509
I668
aI668
aaI-1
aI1
aS'Subtype'
p6510
a(lp6511
I669
aI669
aaI-2
aI2
aS'View'
p6512
aS'ViewState'
p6513
a(lp6514
I671
aI671
aaI-2
aI2
aS'Export'
p6515
aS'ExportState'
p6516
a(lp6517
I667
aI667
aaI-2
aI2
aS'CreatorInfo'
p6518
aS'Subtype'
p6519
a(lp6520
I666
aI666
aaI-1
aI1
aS'Creator'
p6521
a(lp6522
I665
aI665
aaI-3
aI1
aS'Type'
p6523
a(lp6524
I663
aI663
aaI-1
aI1
aS'Intent'
p6525
a(lp6526
I661
aI661
aaI-1
aI1
aS'Name'
p6527
a(lp6528
I662
aI662
aaI-2
aI1
ag43
a(lp6529
I650
aI659
aaI1
aS'ON'
p6530
a(lp6531
I657
aI657
aaI-1
aI1
aS'OFF'
p6532
a(lp6533
I656
aI656
aaI-1
aI2
aS'AS'
p6534
aS'Category'
p6535
a(lp6536
I651
aI651
aaI-1
aI1
aS'OCGs'
p6537
a(lp6538
I653
aI653
aaI-1
aI1
aS'Event'
p6539
a(lp6540
I652
aI652
aaI-2
aI1
aS'RBGroups'
p6541
a(lp6542
I659
aI659
aaI-1
aI1
aS'Locked'
p6543
a(lp6544
I655
aI655
aaI-1
aI1
aS'BaseState'
p6545
a(lp6546
I654
aI654
aaI-1
aI1
aS'Order'
p6547
a(lp6548
I658
aI658
aaI-3
aI1
aS'Dests'
p6549
a(lp6550
I464
aI464
aaI-1
aI1
aS'Names'
p6551
a(lp6552
I507
aI647
aaI1
aS'Templates'
p6553
a(lp6554
I640
aI641
aaI1
aS'Names'
p6555
a(lp6556
I641
aI641
aaI-2
aI1
aS'JavaScript'
p6557
a(lp6558
I632
aI638
aaI1
aS'Names'
p6559
a(lp6560
I633
aI638
aaI1
ag97
a(lp6561
I637
aI637
aaI-1
aI1
aS'Type'
p6562
a(lp6563
I638
aI638
aaI-1
aI1
aS'JS'
p6564
a(lp6565
I634
aI636
aaI1
aS'Filter'
p6566
a(lp6567
I635
aI635
aaI-1
aI1
aS'Length'
p6568
a(lp6569
I636
aI636
aaI-4
aI1
aS'XFAImages'
p6570
a(lp6571
I644
aI647
aaI1
aS'Names'
p6572
a(lp6573
I645
aI647
aaI1
aS'Filter'
p6574
a(lp6575
I646
aI646
aaI-1
aI1
aS'Length'
p6576
a(lp6577
I647
aI647
aaI-3
aI1
aS'EmbeddedFiles'
p6578
a(lp6579
I524
aI549
aaI1
aS'Names'
p6580
a(lp6581
I526
aI549
aaI1
aS'Thumb'
p6582
a(lp6583
I540
aI547
aaI1
aS'Width'
p6584
a(lp6585
I547
aI547
aaI-1
aI1
aS'ColorSpace'
p6586
a(lp6587
I542
aI542
aaI-1
aI1
aS'Height'
p6588
a(lp6589
I544
aI544
aaI-1
aI1
aS'Filter'
p6590
a(lp6591
I543
aI543
aaI-1
aI1
aS'Subtype'
p6592
a(lp6593
I546
aI546
aaI-1
aI1
aS'Length'
p6594
a(lp6595
I545
aI545
aaI-1
aI1
aS'BitsPerComponent'
p6596
a(lp6597
I541
aI541
aaI-2
aI1
ag682
a(lp6598
I539
aI539
aaI-1
aI2
aS'EF'
p6599
ag682
a(lp6600
I528
aI538
aaI1
aS'DL'
p6601
a(lp6602
I529
aI529
aaI-1
aI1
aS'Filter'
p6603
a(lp6604
I530
aI530
aaI-1
aI1
aS'Subtype'
p6605
a(lp6606
I537
aI537
aaI-1
aI1
aS'Length'
p6607
a(lp6608
I531
aI531
aaI-1
aI1
aS'Params'
p6609
a(lp6610
I532
aI536
aaI1
aS'Size'
p6611
a(lp6612
I536
aI536
aaI-1
aI1
aS'CheckSum'
p6613
a(lp6614
I533
aI533
aaI-1
aI1
aS'CreationDate'
p6615
a(lp6616
I534
aI534
aaI-1
aI1
aS'ModDate'
p6617
a(lp6618
I535
aI535
aaI-2
aI1
aS'Type'
p6619
a(lp6620
I538
aI538
aaI-3
aI1
aS'UF'
p6621
a(lp6622
I549
aI549
aaI-1
aI1
aS'Type'
p6623
a(lp6624
I548
aI548
aaI-1
aI1
aS'Desc'
p6625
a(lp6626
I527
aI527
aaI-2
aI1
aS'Limits'
p6627
a(lp6628
I525
aI525
aaI-2
aI1
aS'IDS'
p6629
a(lp6630
I550
aI561
aaI1
aS'Names'
p6631
a(lp6632
I551
aI561
aaI1
aS'SI'
p6633
a(lp6634
I556
aI558
aaI1
aS'AU'
p6635
a(lp6636
I557
aI557
aaI-1
aI1
aS'TS'
p6637
a(lp6638
I558
aI558
aaI-2
aI1
ag101
a(lp6639
I554
aI554
aaI-1
aI1
aS'TS'
p6640
a(lp6641
I561
aI561
aaI-1
aI1
ag97
a(lp6642
I555
aI555
aaI-1
aI1
ag88
a(lp6643
I559
aI559
aaI-1
aI1
aS'TID'
p6644
a(lp6645
I560
aI560
aaI-1
aI1
aS'ID'
p6646
a(lp6647
I553
aI553
aaI-1
aI1
aS'CT'
p6648
a(lp6649
I552
aI552
aaI-3
aI1
aS'AP'
p6650
a(lp6651
I508
aI518
aaI1
aS'Names'
p6652
a(lp6653
I509
aI518
aaI1
aS'Matrix'
p6654
a(lp6655
I514
aI514
aaI-1
aI1
aS'Filter'
p6656
a(lp6657
I511
aI511
aaI-1
aI1
aS'Subtype'
p6658
a(lp6659
I517
aI517
aaI-1
aI1
aS'Length'
p6660
a(lp6661
I513
aI513
aaI-1
aI1
aS'BBox'
p6662
a(lp6663
I510
aI510
aaI-1
aI1
aS'FormType'
p6664
a(lp6665
I512
aI512
aaI-1
aI1
aS'Type'
p6666
a(lp6667
I518
aI518
aaI-1
aI1
aS'Resources'
p6668
a(lp6669
I515
aI516
aaI1
aS'ProcSet'
p6670
a(lp6671
I516
aI516
aaI-4
aI1
aS'Dests'
p6672
a(lp6673
I519
aI523
aaI1
aS'Names'
p6674
a(lp6675
I521
aI523
aaI1
ag97
a(lp6676
I523
aI523
aaI-1
aI1
ag43
a(lp6677
I522
aI522
aaI-2
aI1
aS'Limits'
p6678
a(lp6679
I520
aI520
aaI-2
aI1
aS'URLS'
p6680
a(lp6681
I642
aI643
aaI1
aS'Names'
p6682
a(lp6683
I643
aI643
aaI-2
aI1
aS'IDTree'
p6684
a(lp6685
I562
aI631
aaI1
aS'Names'
p6686
a(lp6687
I564
aI631
aaI1
ag33
a(lp6688
I565
aI589
aaI1
aS'Width'
p6689
a(lp6690
I588
aI588
aaI-1
aI1
aS'BlockAlign'
p6691
a(lp6692
I568
aI568
aaI-1
aI1
aS'TextIndent'
p6693
a(lp6694
I587
aI587
aaI-1
aI1
aS'Scope'
p6695
a(lp6696
I581
aI581
aaI-1
aI1
aS'BorderStyle'
p6697
a(lp6698
I570
aI570
aaI-1
aI1
aS'RowSpan'
p6699
a(lp6700
I580
aI580
aaI-1
aI1
aS'TextDecorationType'
p6701
a(lp6702
I586
aI586
aaI-1
aI1
aS'InlineAlign'
p6703
a(lp6704
I576
aI576
aaI-1
aI1
aS'BorderColor'
p6705
a(lp6706
I569
aI569
aaI-1
aI1
aS'SpaceBefore'
p6707
a(lp6708
I583
aI583
aaI-1
aI1
aS'Placement'
p6709
a(lp6710
I579
aI579
aaI-1
aI1
aS'ColSpan'
p6711
a(lp6712
I572
aI572
aaI-1
aI1
aS'BorderThickness'
p6713
a(lp6714
I571
aI571
aaI-1
aI1
ag101
a(lp6715
I578
aI578
aaI-1
aI1
aS'Headers'
p6716
a(lp6717
I574
aI574
aaI-1
aI1
aS'WritingMode'
p6718
a(lp6719
I589
aI589
aaI-1
aI1
aS'BackgroundColor'
p6720
a(lp6721
I567
aI567
aaI-1
aI1
aS'LineHeight'
p6722
a(lp6723
I577
aI577
aaI-1
aI1
aS'SpaceAfter'
p6724
a(lp6725
I582
aI582
aaI-1
aI1
aS'EndIndent'
p6726
a(lp6727
I573
aI573
aaI-1
aI1
aS'Height'
p6728
a(lp6729
I575
aI575
aaI-1
aI1
aS'StartIndent'
p6730
a(lp6731
I584
aI584
aaI-1
aI1
aS'TextAlign'
p6732
a(lp6733
I585
aI585
aaI-1
aI1
aS'BBox'
p6734
a(lp6735
I566
aI566
aaI-2
aI1
ag689
a(lp6736
I592
aI592
aaI-1
aI1
ag256
a(lp6737
I594
aI627
aaI1
aS'Type'
p6738
a(lp6739
I627
aI627
aaI-1
aI1
aS'Obj'
p6740
a(lp6741
I595
aI625
aaI1
aS'removed'
p6742
a(lp6743
I625
aI625
aaI-1
aI1
aS'FT'
p6744
a(lp6745
I616
aI616
aaI-1
aI1
ag29
a(lp6746
I619
aI619
aaI-1
aI1
ag682
a(lp6747
I615
aI615
aaI-1
aI2
aS'MK'
p6748
aS'CA'
p6749
a(lp6750
I618
aI618
aaI-1
aI1
aS'BG'
p6751
a(lp6752
I617
aI617
aaI-2
aI3
aS'AP'
p6753
ag43
aS'Name'
p6754
a(lp6755
I596
aI604
aaI1
aS'Matrix'
p6756
a(lp6757
I601
aI601
aaI-1
aI1
aS'Filter'
p6758
a(lp6759
I598
aI598
aaI-1
aI1
aS'Subtype'
p6760
a(lp6761
I603
aI603
aaI-1
aI1
aS'Length'
p6762
a(lp6763
I600
aI600
aaI-1
aI1
aS'BBox'
p6764
a(lp6765
I597
aI597
aaI-1
aI1
aS'FormType'
p6766
a(lp6767
I599
aI599
aaI-1
aI1
aS'Type'
p6768
a(lp6769
I604
aI604
aaI-1
aI2
aS'Resources'
p6770
aS'ProcSet'
p6771
a(lp6772
I602
aI602
aaI-4
aI2
ag90
aS'Name'
p6773
a(lp6774
I605
aI613
aaI1
aS'Matrix'
p6775
a(lp6776
I610
aI610
aaI-1
aI1
aS'Filter'
p6777
a(lp6778
I607
aI607
aaI-1
aI1
aS'Subtype'
p6779
a(lp6780
I612
aI612
aaI-1
aI1
aS'Length'
p6781
a(lp6782
I609
aI609
aaI-1
aI1
aS'BBox'
p6783
a(lp6784
I606
aI606
aaI-1
aI1
aS'FormType'
p6785
a(lp6786
I608
aI608
aaI-1
aI1
aS'Type'
p6787
a(lp6788
I613
aI613
aaI-1
aI2
aS'Resources'
p6789
aS'ProcSet'
p6790
a(lp6791
I611
aI611
aaI-5
aI1
aS'AS'
p6792
a(lp6793
I614
aI614
aaI-1
aI1
ag88
a(lp6794
I623
aI623
aaI-1
aI1
aS'Subtype'
p6795
a(lp6796
I622
aI622
aaI-1
aI1
aS'Type'
p6797
a(lp6798
I624
aI624
aaI-1
aI1
aS'Rect'
p6799
a(lp6800
I620
aI620
aaI-1
aI1
aS'StructParent'
p6801
a(lp6802
I621
aI621
aaI-2
aI1
aS'Pg'
p6803
a(lp6804
I626
aI626
aaI-2
aI1
aS'ID'
p6805
a(lp6806
I593
aI593
aaI-1
aI1
ag29
a(lp6807
I628
aI628
aaI-1
aI1
ag97
a(lp6808
I630
aI630
aaI-1
aI1
aS'Pg'
p6809
a(lp6810
I629
aI629
aaI-1
aI1
aS'Alt'
p6811
a(lp6812
I591
aI591
aaI-1
aI1
aS'ActualText'
p6813
a(lp6814
I590
aI590
aaI-1
aI1
ag88
a(lp6815
I631
aI631
aaI-2
aI1
aS'Limits'
p6816
a(lp6817
I563
aI563
aaI-2
aI1
aS'Pages'
p6818
a(lp6819
I639
aI639
aaI-2
aI1
aS'PageMode'
p6820
a(lp6821
I1552
aI1552
aabsS'_separator'
p6822
S'/'
p6823
sS'_sorted'
p6824
I00
sb.