ccopy_reg
_reconstructor
p0
(cpygtrie
StringTrie
p1
c__builtin__
object
p2
Ntp3
Rp4
(dp5
S'_root'
p6
g0
(cpygtrie
_Node
p7
g2
Ntp8
Rp9
(lp10
I1
aS'DGAPChanges'
p11
a(lp12
I452
aI456
aaI1
aS'Product'
p13
a(lp14
I454
aI454
aaI-1
aI1
aS'Version'
p15
a(lp16
I456
aI456
aaI-1
aI1
aS'Vendor'
p17
a(lp18
I455
aI455
aaI-1
aI1
aS'ModDate'
p19
a(lp20
I453
aI453
aaI-2
aI1
aS'AA'
p21
a(lp22
I2
aI2
aaI-1
aI1
aS'Linearized'
p23
a(lp24
I498
aI498
aaI-1
aI1
aS'FICL:Enfocus'
p25
a(lp26
I469
aI472
aaI1
aS'PitStop'
p27
a(lp28
I470
aI472
aaI1
aS'CC'
p29
a(lp30
I471
aI472
aaI1
aS'P'
p31
a(lp32
I472
aI472
aaI-4
aI1
aS'JT'
p33
a(lp34
I474
aI494
aaI1
aS'A'
p35
a(lp36
I475
aI477
aaI1
aS'JTM'
p37
a(lp38
I477
aI477
aaI-1
aI1
aS'Dt'
p39
a(lp40
I476
aI476
aaI-2
aI1
aS'Cn'
p41
a(lp42
I478
aI493
aaI1
aS'Type'
p43
a(lp44
I493
aI493
aaI-1
aI1
aS'D'
p45
a(lp46
I479
aI489
aaI1
aS'Fi'
p47
a(lp48
I480
aI482
aaI1
aS'Fi'
p49
a(lp50
I482
aI482
aaI-1
aI1
aS'CP'
p51
a(lp52
I481
aI481
aaI-2
aI1
ag31
a(lp53
I483
aI489
aaI1
aS'R'
p54
a(lp55
I486
aI488
aaI1
ag54
a(lp56
I488
aI488
aaI-1
aI1
aS'Po'
p57
a(lp58
I487
aI487
aaI-2
aI1
aS'W'
p59
a(lp60
I489
aI489
aaI-1
aI1
aS'JTF'
p61
a(lp62
I484
aI484
aaI-1
aI1
aS'MB'
p63
a(lp64
I485
aI485
aaI-3
aI1
aS'MS'
p65
a(lp66
I490
aI492
aaI1
aS'Me'
p67
a(lp68
I491
aI492
aaI1
aS'Dm'
p69
a(lp70
I492
aI492
aaI-4
aI1
aS'V'
p71
a(lp72
I494
aI494
aaI-2
aI1
aS'LastModified'
p73
a(lp74
I497
aI497
aaI-1
aI1
aS'MarkInfo'
p75
a(lp76
I499
aI501
aaI1
aS'LetterspaceFlags'
p77
a(lp78
I500
aI500
aaI-1
aI1
aS'Marked'
p79
a(lp80
I501
aI501
aaI-2
aI1
aS'OpenAction'
p81
a(lp82
I672
aI1263
aaI1
aS'Count'
p83
a(lp84
I767
aI767
aaI-1
aI1
aS'B'
p85
a(lp86
I758
aI763
aaI1
ag31
a(lp87
I760
aI760
aaI-1
aI1
aS'N'
p88
a(lp89
I759
aI759
aaI-1
aI1
ag54
a(lp90
I761
aI761
aaI-1
aI1
aS'T'
p91
a(lp92
I762
aI762
aaI-1
aI1
ag71
a(lp93
I763
aI763
aaI-2
aI1
aS'Group'
p94
a(lp95
I1147
aI1149
aaI1
aS'CS'
p96
a(lp97
I1147
aI1147
aaI-1
aI1
aS'I'
p98
a(lp99
I1148
aI1148
aaI-1
aI1
aS'S'
p100
a(lp101
I1149
aI1149
aaI-2
aI1
ag45
a(lp102
I769
aI1145
aaI1
aS'AA'
p103
a(lp104
I770
aI774
aaI1
aS'O'
p105
a(lp106
I770
aI774
aaI1
ag100
a(lp107
I774
aI774
aaI-1
aI1
aS'JS'
p108
a(lp109
I771
aI773
aaI1
aS'Filter'
p110
a(lp111
I772
aI772
aaI-1
aI1
aS'Length'
p112
a(lp113
I773
aI773
aaI-4
aI1
aS'ArtBox'
p114
a(lp115
I844
aI844
aaI-1
aI1
aS'BleedBox'
p116
a(lp117
I845
aI845
aaI-1
aI1
aS'Group'
p118
a(lp119
I850
aI857
aaI1
aS'CS'
p120
a(lp121
I851
aI854
aaI1
aS'Filter'
p122
a(lp123
I852
aI852
aaI-1
aI1
aS'Length'
p124
a(lp125
I853
aI853
aaI-1
aI1
ag88
a(lp126
I854
aI854
aaI-2
aI1
ag98
a(lp127
I855
aI855
aaI-1
aI1
ag100
a(lp128
I856
aI856
aaI-1
aI1
aS'Type'
p129
a(lp130
I857
aI857
aaI-2
aI1
aS'MediaBox'
p131
a(lp132
I861
aI861
aaI-1
aI1
aS'Tabs'
p133
a(lp134
I1133
aI1133
aaI-1
aI1
aS'LastModified'
p135
a(lp136
I859
aI859
aaI-1
aI1
aS'Contents'
p137
a(lp138
I846
aI848
aaI1
aS'Filter'
p139
a(lp140
I847
aI847
aaI-1
aI1
aS'Length'
p141
a(lp142
I848
aI848
aaI-2
aI1
aS'StructParents'
p143
a(lp144
I1132
aI1132
aaI-1
aI1
aS'Annots'
p145
a(lp146
I775
aI843
aaI1
ag35
a(lp147
I799
aI803
aaI1
ag100
a(lp148
I801
aI801
aaI-1
aI1
aS'Type'
p149
a(lp150
I802
aI802
aaI-1
aI1
ag45
a(lp151
I800
aI800
aaI-1
aI1
aS'URI'
p152
a(lp153
I803
aI803
aaI-2
aI1
aS'FT'
p154
a(lp155
I824
aI824
aaI-1
aI1
aS'3DV'
p156
a(lp157
I789
aI798
aaI1
aS'CO'
p158
a(lp159
I791
aI791
aaI-1
aI1
aS'C2W'
p160
a(lp161
I790
aI790
aaI-1
aI1
ag31
a(lp162
I794
aI797
aaI1
aS'PS'
p163
a(lp164
I796
aI796
aaI-1
aI1
aS'FOV'
p165
a(lp166
I795
aI795
aaI-1
aI1
aS'Subtype'
p167
a(lp168
I797
aI797
aaI-2
aI1
aS'LS'
p169
a(lp170
I792
aI792
aaI1
aS'Subtype'
p171
a(lp172
I792
aI792
aaI-2
aI1
aS'MS'
p173
a(lp174
I793
aI793
aaI-1
aI1
aS'XN'
p175
a(lp176
I798
aI798
aaI-2
aI1
aS'DA'
p177
a(lp178
I821
aI821
aaI-1
aI1
aS'Border'
p179
a(lp180
I817
aI817
aaI-1
aI1
aS'BS'
p181
a(lp182
I814
aI816
aaI1
ag100
a(lp183
I814
aI814
aaI-1
aI1
aS'Type'
p184
a(lp185
I815
aI815
aaI-1
aI1
ag59
a(lp186
I816
aI816
aaI-2
aI1
aS'Type'
p187
a(lp188
I843
aI843
aaI-1
aI1
aS'Popup'
p189
a(lp190
I834
aI834
aaI-1
aI1
aS'NM'
p191
a(lp192
I831
aI831
aaI-1
aI1
aS'Dest'
p193
a(lp194
I822
aI822
aaI-1
aI1
aS'RD'
p195
a(lp196
I836
aI836
aaI-1
aI1
aS'Ff'
p197
a(lp198
I825
aI825
aaI-1
aI1
aS'Rect'
p199
a(lp200
I837
aI837
aaI-1
aI1
aS'StructParent'
p201
a(lp202
I839
aI839
aaI-1
aI1
aS'AA'
p203
a(lp204
I804
aI806
aaI1
aS'F'
p205
a(lp206
I804
aI806
aaI1
ag100
a(lp207
I806
aI806
aaI-1
aI1
aS'JS'
p208
a(lp209
I805
aI805
aaI-3
aI1
aS'C'
p210
a(lp211
I818
aI818
aaI-1
aI1
aS'Rotate'
p212
a(lp213
I838
aI838
aaI-1
aI1
ag31
a(lp214
I833
aI833
aaI-1
aI1
ag205
a(lp215
I823
aI823
aaI-1
aI1
aS'H'
p216
a(lp217
I826
aI826
aaI-1
aI1
aS'M'
p218
a(lp219
I828
aI828
aaI-1
aI1
aS'3DD'
p220
a(lp221
I781
aI788
aaI1
aS'VA'
p222
a(lp223
I788
aI788
aaI-1
aI1
aS'AN'
p224
a(lp225
I782
aI783
aaI1
aS'PC'
p226
a(lp227
I782
aI782
aaI-1
aI1
aS'Subtype'
p228
a(lp229
I783
aI783
aaI-2
aI1
aS'Filter'
p230
a(lp231
I785
aI785
aaI-1
aI1
aS'Subtype'
p232
a(lp233
I787
aI787
aaI-1
aI1
aS'Length'
p234
a(lp235
I786
aI786
aaI-1
aI1
aS'DV'
p236
a(lp237
I784
aI784
aaI-2
aI1
aS'Subtype'
p238
a(lp239
I841
aI841
aaI-1
aI1
aS'3DA'
p240
a(lp241
I776
aI780
aaI1
ag35
a(lp242
I776
aI776
aaI-1
aI1
aS'TB'
p243
a(lp244
I780
aI780
aaI-1
aI1
ag45
a(lp245
I778
aI778
aaI-1
aI1
aS'AIS'
p246
a(lp247
I777
aI777
aaI-1
aI1
aS'DIS'
p248
a(lp249
I779
aI779
aaI-2
aI1
aS'IC'
p250
a(lp251
I827
aI827
aaI-1
aI1
aS'Q'
p252
a(lp253
I835
aI835
aaI-1
aI1
aS'AP'
p254
a(lp255
I807
aI813
aaI1
ag88
a(lp256
I807
aI813
aaI1
aS'Name'
p257
a(lp258
I808
aI813
aaI1
aS'ExtGState'
p259
a(lp260
I809
aI812
aaI1
aS'Name'
p261
a(lp262
I809
aI812
aaI1
aS'CA'
p263
a(lp264
I810
aI810
aaI-1
aI1
aS'Type'
p265
a(lp266
I811
aI811
aaI-1
aI1
aS'ca'
p267
a(lp268
I812
aI812
aaI-1
aI1
aS'AIS'
p269
a(lp270
I809
aI809
aaI-3
aI1
aS'ProcSet'
p271
a(lp272
I813
aI813
aaI-4
aI1
aS'Open'
p273
a(lp274
I832
aI832
aaI-1
aI1
aS'MK'
p275
a(lp276
I829
aI829
aaI-1
aI1
aS'MaxLen'
p277
a(lp278
I830
aI830
aaI-1
aI1
aS'CreationDate'
p279
a(lp280
I820
aI820
aaI-1
aI1
aS'Subj'
p281
a(lp282
I840
aI840
aaI-1
aI1
aS'Contents'
p283
a(lp284
I819
aI819
aaI-1
aI1
ag91
a(lp285
I842
aI842
aaI-2
aI1
aS'CropBox'
p286
a(lp287
I849
aI849
aaI-1
aI1
aS'TrimBox'
p288
a(lp289
I1134
aI1134
aaI-1
aI1
aS'eCpyResolution'
p290
a(lp291
I1145
aI1145
aaI-1
aI1
aS'Rotate'
p292
a(lp293
I1131
aI1131
aaI-1
aI1
aS'VP'
p294
a(lp295
I1136
aI1144
aaI1
aS'BBox'
p296
a(lp297
I1136
aI1136
aaI-1
aI1
aS'Measure'
p298
a(lp299
I1137
aI1144
aaI1
ag35
a(lp300
I1137
aI1138
aaI1
ag210
a(lp301
I1137
aI1137
aaI-1
aI1
aS'U'
p302
a(lp303
I1138
aI1138
aaI-2
aI1
aS'Subtype'
p304
a(lp305
I1142
aI1142
aaI-1
aI1
ag54
a(lp306
I1141
aI1141
aaI-1
aI1
ag45
a(lp307
I1139
aI1140
aaI1
ag210
a(lp308
I1139
aI1139
aaI-1
aI1
ag302
a(lp309
I1140
aI1140
aaI-2
aI1
aS'X'
p310
a(lp311
I1143
aI1144
aaI1
ag210
a(lp312
I1143
aI1143
aaI-1
aI1
ag302
a(lp313
I1144
aI1144
aaI-4
aI1
aS'Marked'
p314
a(lp315
I860
aI860
aaI-1
aI1
aS'Type'
p316
a(lp317
I1135
aI1135
aaI-1
aI1
aS'ID'
p318
a(lp319
I858
aI858
aaI-1
aI1
aS'Resources'
p320
a(lp321
I862
aI1130
aaI1
aS'XObject'
p322
a(lp323
I1046
aI1130
aaI1
aS'Name'
p324
a(lp325
I1047
aI1130
aaI1
aS'Matrix'
p326
a(lp327
I1065
aI1065
aaI-1
aI1
aS'Decode'
p328
a(lp329
I1052
aI1052
aaI-1
aI1
aS'Width'
p330
a(lp331
I1128
aI1128
aaI-1
aI1
aS'ImageMask'
p332
a(lp333
I1062
aI1062
aaI-1
aI1
aS'BBox'
p334
a(lp335
I1048
aI1048
aaI-1
aI1
aS'Type'
p336
a(lp337
I1127
aI1127
aaI-1
aI1
aS'Resources'
p338
a(lp339
I1072
aI1107
aaI1
aS'ExtGState'
p340
a(lp341
I1078
aI1081
aaI1
aS'Name'
p342
a(lp343
I1078
aI1081
aaI1
aS'OPM'
p344
a(lp345
I1079
aI1079
aaI-1
aI1
aS'Type'
p346
a(lp347
I1081
aI1081
aaI-1
aI1
aS'SM'
p348
a(lp349
I1080
aI1080
aaI-3
aI1
aS'ColorSpace'
p350
a(lp351
I1073
aI1077
aaI1
aS'Name'
p352
a(lp353
I1073
aI1077
aaI1
aS'Filter'
p354
a(lp355
I1075
aI1075
aaI-1
aI1
aS'Length'
p356
a(lp357
I1076
aI1076
aaI-1
aI1
aS'Alternate'
p358
a(lp359
I1074
aI1074
aaI-1
aI1
ag88
a(lp360
I1077
aI1077
aaI-3
aI1
aS'Font'
p361
a(lp362
I1082
aI1106
aaI1
aS'Name'
p363
a(lp364
I1082
aI1106
aaI1
aS'LastChar'
p365
a(lp366
I1103
aI1103
aaI-1
aI1
aS'Encoding'
p367
a(lp368
I1084
aI1084
aaI-1
aI1
aS'BaseFont'
p369
a(lp370
I1083
aI1083
aaI-1
aI1
aS'Widths'
p371
a(lp372
I1106
aI1106
aaI-1
aI1
aS'Subtype'
p373
a(lp374
I1104
aI1104
aaI-1
aI1
aS'FontDescriptor'
p375
a(lp376
I1086
aI1102
aaI1
aS'FontFile2'
p377
a(lp378
I1092
aI1095
aaI1
aS'Filter'
p379
a(lp380
I1093
aI1093
aaI-1
aI1
aS'Length'
p381
a(lp382
I1094
aI1094
aaI-1
aI1
aS'Length1'
p383
a(lp384
I1095
aI1095
aaI-2
aI1
aS'FontName'
p385
a(lp386
I1096
aI1096
aaI-1
aI1
aS'Descent'
p387
a(lp388
I1089
aI1089
aaI-1
aI1
aS'FontBBox'
p389
a(lp390
I1091
aI1091
aaI-1
aI1
aS'CapHeight'
p391
a(lp392
I1088
aI1088
aaI-1
aI1
aS'Leading'
p393
a(lp394
I1098
aI1098
aaI-1
aI1
aS'MaxWidth'
p395
a(lp396
I1099
aI1099
aaI-1
aI1
aS'Ascent'
p397
a(lp398
I1087
aI1087
aaI-1
aI1
aS'StemV'
p399
a(lp400
I1100
aI1100
aaI-1
aI1
aS'Flags'
p401
a(lp402
I1090
aI1090
aaI-1
aI1
aS'XHeight'
p403
a(lp404
I1102
aI1102
aaI-1
aI1
aS'ItalicAngle'
p405
a(lp406
I1097
aI1097
aaI-1
aI1
aS'Type'
p407
a(lp408
I1101
aI1101
aaI-2
aI1
aS'Type'
p409
a(lp410
I1105
aI1105
aaI-1
aI1
aS'FirstChar'
p411
a(lp412
I1085
aI1085
aaI-3
aI1
aS'ProcSet'
p413
a(lp414
I1107
aI1107
aaI-2
aI1
aS'Metadata'
p415
a(lp416
I1066
aI1069
aaI1
aS'Subtype'
p417
a(lp418
I1068
aI1068
aaI-1
aI1
aS'Length'
p419
a(lp420
I1067
aI1067
aaI-1
aI1
aS'Type'
p421
a(lp422
I1069
aI1069
aaI-2
aI1
aS'ColorSpace'
p423
a(lp424
I1050
aI1051
aaI1
aS'Length'
p425
a(lp426
I1051
aI1051
aaI-2
aI1
aS'Intent'
p427
a(lp428
I1063
aI1063
aaI-1
aI1
aS'eCpyDPIX'
p429
a(lp430
I1129
aI1129
aaI-1
aI1
aS'eCpyDPIY'
p431
a(lp432
I1130
aI1130
aaI-1
aI1
aS'Name'
p433
a(lp434
I1070
aI1070
aaI-1
aI1
aS'Filter'
p435
a(lp436
I1059
aI1059
aaI-1
aI1
aS'Subtype'
p437
a(lp438
I1126
aI1126
aaI-1
aI1
aS'Length'
p439
a(lp440
I1064
aI1064
aaI-1
aI1
aS'FormType'
p441
a(lp442
I1060
aI1060
aaI-1
aI1
aS'DecodeParms'
p443
a(lp444
I1053
aI1058
aaI1
aS'Rows'
p445
a(lp446
I1058
aI1058
aaI-1
aI1
aS'K'
p447
a(lp448
I1057
aI1057
aaI-1
aI1
aS'BlackIs1'
p449
a(lp450
I1053
aI1053
aaI-1
aI1
aS'EncodedByteAlign'
p451
a(lp452
I1055
aI1055
aaI-1
aI1
aS'Columns'
p453
a(lp454
I1054
aI1054
aaI-1
aI1
aS'EndOfLine'
p455
a(lp456
I1056
aI1056
aaI-2
aI1
aS'SMask'
p457
a(lp458
I1108
aI1125
aaI1
aS'DecodeParms'
p459
a(lp460
I1111
aI1113
aaI1
aS'Colors'
p461
a(lp462
I1112
aI1112
aaI-1
aI1
aS'BitsPerComponent'
p463
a(lp464
I1111
aI1111
aaI-1
aI1
aS'Columns'
p465
a(lp466
I1113
aI1113
aaI-2
aI1
aS'Name'
p467
a(lp468
I1122
aI1122
aaI-1
aI1
aS'Subtype'
p469
a(lp470
I1123
aI1123
aaI-1
aI1
aS'ColorSpace'
p471
a(lp472
I1110
aI1110
aaI-1
aI1
aS'Height'
p473
a(lp474
I1115
aI1115
aaI-1
aI1
aS'Filter'
p475
a(lp476
I1114
aI1114
aaI-1
aI1
aS'Width'
p477
a(lp478
I1125
aI1125
aaI-1
aI1
aS'Length'
p479
a(lp480
I1117
aI1117
aaI-1
aI1
aS'Intent'
p481
a(lp482
I1116
aI1116
aaI-1
aI1
aS'Type'
p483
a(lp484
I1124
aI1124
aaI-1
aI1
aS'BitsPerComponent'
p485
a(lp486
I1109
aI1109
aaI-1
aI1
aS'Metadata'
p487
a(lp488
I1118
aI1121
aaI1
aS'Subtype'
p489
a(lp490
I1120
aI1120
aaI-1
aI1
aS'Length'
p491
a(lp492
I1119
aI1119
aaI-1
aI1
aS'Type'
p493
a(lp494
I1121
aI1121
aaI-3
aI1
aS'OC'
p495
a(lp496
I1071
aI1071
aaI-1
aI1
aS'Height'
p497
a(lp498
I1061
aI1061
aaI-1
aI1
aS'BitsPerComponent'
p499
a(lp500
I1049
aI1049
aaI-3
aI1
aS'ColorSpace'
p501
a(lp502
I863
aI877
aaI1
aS'Name'
p503
a(lp504
I863
aI877
aaI1
aS'BitsPerSample'
p505
a(lp506
I865
aI865
aaI-1
aI1
aS'Matrix'
p507
a(lp508
I873
aI873
aaI-1
aI1
aS'WhitePoint'
p509
a(lp510
I877
aI877
aaI-1
aI1
aS'Alternate'
p511
a(lp512
I864
aI864
aaI-1
aI1
aS'Domain'
p513
a(lp514
I868
aI868
aaI-1
aI1
ag88
a(lp515
I874
aI874
aaI-1
aI1
aS'Filter'
p516
a(lp517
I869
aI869
aaI-1
aI1
aS'Length'
p518
a(lp519
I872
aI872
aaI-1
aI1
aS'Range'
p520
a(lp521
I875
aI875
aaI-1
aI1
aS'C1'
p522
a(lp523
I867
aI867
aaI-1
aI1
aS'C0'
p524
a(lp525
I866
aI866
aaI-1
aI1
aS'FunctionType'
p526
a(lp527
I870
aI870
aaI-1
aI1
aS'Gamma'
p528
a(lp529
I871
aI871
aaI-1
aI1
aS'Size'
p530
a(lp531
I876
aI876
aaI-3
aI1
aS'ProcSet'
p532
a(lp533
I1015
aI1015
aaI-1
aI1
aS'ExtGState'
p534
a(lp535
I878
aI926
aaI1
aS'Name'
p536
a(lp537
I878
aI926
aaI1
aS'SMask'
p538
a(lp539
I919
aI919
aaI-1
aI1
aS'UCR2'
p540
a(lp541
I924
aI924
aaI-1
aI1
aS'SM'
p542
a(lp543
I918
aI918
aaI-1
aI1
aS'BM'
p544
a(lp545
I881
aI881
aaI-1
aI1
aS'CA'
p546
a(lp547
I882
aI882
aaI-1
aI1
aS'TR'
p548
a(lp549
I921
aI921
aaI-1
aI1
aS'OP'
p550
a(lp551
I915
aI915
aaI-1
aI1
aS'HT'
p552
a(lp553
I883
aI914
aaI1
aS'Blue'
p554
a(lp555
I890
aI895
aaI1
aS'Frequency'
p556
a(lp557
I892
aI892
aaI-1
aI1
aS'SpotFunction'
p558
a(lp559
I894
aI894
aaI-1
aI1
aS'Angle'
p560
a(lp561
I891
aI891
aaI-1
aI1
aS'HalftoneType'
p562
a(lp563
I893
aI893
aaI-1
aI1
aS'Type'
p564
a(lp565
I895
aI895
aaI-2
aI1
aS'Gray'
p566
a(lp567
I903
aI903
aaI-1
aI1
aS'Default'
p568
a(lp569
I902
aI902
aaI-1
aI1
aS'Yellow'
p570
a(lp571
I914
aI914
aaI-1
aI1
aS'HalftoneType'
p572
a(lp573
I910
aI910
aaI-1
aI1
aS'Green'
p574
a(lp575
I904
aI909
aaI1
aS'Frequency'
p576
a(lp577
I906
aI906
aaI-1
aI1
aS'SpotFunction'
p578
a(lp579
I908
aI908
aaI-1
aI1
aS'Angle'
p580
a(lp581
I905
aI905
aaI-1
aI1
aS'HalftoneType'
p582
a(lp583
I907
aI907
aaI-1
aI1
aS'Type'
p584
a(lp585
I909
aI909
aaI-2
aI1
aS'Cyan'
p586
a(lp587
I896
aI901
aaI1
aS'Frequency'
p588
a(lp589
I898
aI898
aaI-1
aI1
aS'SpotFunction'
p590
a(lp591
I900
aI900
aaI-1
aI1
aS'Angle'
p592
a(lp593
I897
aI897
aaI-1
aI1
aS'HalftoneType'
p594
a(lp595
I899
aI899
aaI-1
aI1
aS'Type'
p596
a(lp597
I901
aI901
aaI-2
aI1
aS'Black'
p598
a(lp599
I884
aI889
aaI1
aS'Frequency'
p600
a(lp601
I886
aI886
aaI-1
aI1
aS'SpotFunction'
p602
a(lp603
I888
aI888
aaI-1
aI1
aS'Angle'
p604
a(lp605
I885
aI885
aaI-1
aI1
aS'HalftoneType'
p606
a(lp607
I887
aI887
aaI-1
aI1
aS'Type'
p608
a(lp609
I889
aI889
aaI-2
aI1
aS'Magenta'
p610
a(lp611
I911
aI911
aaI-1
aI1
aS'Type'
p612
a(lp613
I913
aI913
aaI-1
aI1
aS'Red'
p614
a(lp615
I912
aI912
aaI-2
aI1
aS'BG2'
p616
a(lp617
I880
aI880
aaI-1
aI1
aS'TK'
p618
a(lp619
I920
aI920
aaI-1
aI1
aS'AIS'
p620
a(lp621
I879
aI879
aaI-1
aI1
aS'OPM'
p622
a(lp623
I916
aI916
aaI-1
aI1
aS'SA'
p624
a(lp625
I917
aI917
aaI-1
aI1
aS'TR2'
p626
a(lp627
I922
aI922
aaI-1
aI1
aS'Type'
p628
a(lp629
I923
aI923
aaI-1
aI1
aS'ca'
p630
a(lp631
I925
aI925
aaI-1
aI1
aS'op'
p632
a(lp633
I926
aI926
aaI-3
aI1
aS'Shading'
p634
a(lp635
I1023
aI1045
aaI1
aS'Name'
p636
a(lp637
I1023
aI1045
aaI1
aS'Function'
p638
a(lp639
I1029
aI1044
aaI1
aS'Encode'
p640
a(lp641
I1032
aI1032
aaI-1
aI1
aS'Domain'
p642
a(lp643
I1031
aI1031
aaI-1
aI1
aS'FunctionType'
p644
a(lp645
I1033
aI1033
aaI-1
aI1
aS'Bounds'
p646
a(lp647
I1030
aI1030
aaI-1
aI1
aS'Functions'
p648
a(lp649
I1034
aI1044
aaI1
aS'Decode'
p650
a(lp651
I1036
aI1036
aaI-1
aI1
aS'BitsPerSample'
p652
a(lp653
I1035
aI1035
aaI-1
aI1
aS'Domain'
p654
a(lp655
I1037
aI1037
aaI-1
aI1
aS'Filter'
p656
a(lp657
I1039
aI1039
aaI-1
aI1
aS'Length'
p658
a(lp659
I1041
aI1041
aaI-1
aI1
aS'Encode'
p660
a(lp661
I1038
aI1038
aaI-1
aI1
aS'Range'
p662
a(lp663
I1043
aI1043
aaI-1
aI1
aS'FunctionType'
p664
a(lp665
I1040
aI1040
aaI-1
aI1
aS'Order'
p666
a(lp667
I1042
aI1042
aaI-1
aI1
aS'Size'
p668
a(lp669
I1044
aI1044
aaI-3
aI1
aS'Domain'
p670
a(lp671
I1027
aI1027
aaI-1
aI1
aS'Extend'
p672
a(lp673
I1028
aI1028
aaI-1
aI1
aS'ColorSpace'
p674
a(lp675
I1025
aI1025
aaI-1
aI1
aS'AntiAlias'
p676
a(lp677
I1024
aI1024
aaI-1
aI1
aS'Coords'
p678
a(lp679
I1026
aI1026
aaI-1
aI1
aS'ShadingType'
p680
a(lp681
I1045
aI1045
aaI-3
aI1
aS'Font'
p682
a(lp683
I927
aI1014
aaI1
aS'Name'
p684
a(lp685
I928
aI1014
aaI1
aS'LastChar'
p686
a(lp687
I1007
aI1007
aaI-1
aI1
aS'Name'
p688
a(lp689
I1008
aI1008
aaI-1
aI1
aS'Encoding'
p690
a(lp691
I967
aI970
aaI1
aS'BaseEncoding'
p692
a(lp693
I968
aI968
aaI-1
aI1
aS'Differences'
p694
a(lp695
I969
aI969
aaI-1
aI1
aS'Type'
p696
a(lp697
I970
aI970
aaI-2
aI1
aS'BaseFont'
p698
a(lp699
I929
aI929
aaI-1
aI1
aS'Widths'
p700
a(lp701
I1014
aI1014
aaI-1
aI1
aS'DescendantFonts'
p702
a(lp703
I930
aI966
aaI1
aS'DW2'
p704
a(lp705
I938
aI938
aaI-1
aI1
aS'CIDToGIDMap'
p706
a(lp707
I936
aI936
aaI-1
aI1
aS'FontDescriptor'
p708
a(lp709
I939
aI963
aaI1
aS'FontFile2'
p710
a(lp711
I949
aI952
aaI1
aS'Filter'
p712
a(lp713
I950
aI950
aaI-1
aI1
aS'Length'
p714
a(lp715
I951
aI951
aaI-1
aI1
aS'Length1'
p716
a(lp717
I952
aI952
aaI-2
aI1
aS'FontFile3'
p718
a(lp719
I953
aI956
aaI1
aS'Filter'
p720
a(lp721
I954
aI954
aaI-1
aI1
aS'Subtype'
p722
a(lp723
I956
aI956
aaI-1
aI1
aS'Length'
p724
a(lp725
I955
aI955
aaI-2
aI1
aS'FontName'
p726
a(lp727
I957
aI957
aaI-1
aI1
aS'Descent'
p728
a(lp729
I945
aI945
aaI-1
aI1
aS'FontBBox'
p730
a(lp731
I947
aI947
aaI-1
aI1
aS'FontFamily'
p732
a(lp733
I948
aI948
aaI-1
aI1
aS'CapHeight'
p734
a(lp735
I944
aI944
aaI-1
aI1
aS'Ascent'
p736
a(lp737
I940
aI940
aaI-1
aI1
aS'FontStretch'
p738
a(lp739
I958
aI958
aaI-1
aI1
aS'FontWeight'
p740
a(lp741
I959
aI959
aaI-1
aI1
aS'StemV'
p742
a(lp743
I961
aI961
aaI-1
aI1
aS'Flags'
p744
a(lp745
I946
aI946
aaI-1
aI1
aS'XHeight'
p746
a(lp747
I963
aI963
aaI-1
aI1
aS'CIDSet'
p748
a(lp749
I941
aI943
aaI1
aS'Filter'
p750
a(lp751
I942
aI942
aaI-1
aI1
aS'Length'
p752
a(lp753
I943
aI943
aaI-2
aI1
aS'Type'
p754
a(lp755
I962
aI962
aaI-1
aI1
aS'ItalicAngle'
p756
a(lp757
I960
aI960
aaI-2
aI1
aS'BaseFont'
p758
a(lp759
I931
aI931
aaI-1
aI1
aS'CIDSystemInfo'
p760
a(lp761
I932
aI935
aaI1
aS'Ordering'
p762
a(lp763
I933
aI933
aaI-1
aI1
aS'Supplement'
p764
a(lp765
I935
aI935
aaI-1
aI1
aS'Registry'
p766
a(lp767
I934
aI934
aaI-2
aI1
aS'Subtype'
p768
a(lp769
I964
aI964
aaI-1
aI1
ag59
a(lp770
I966
aI966
aaI-1
aI1
aS'DW'
p771
a(lp772
I937
aI937
aaI-1
aI1
aS'Type'
p773
a(lp774
I965
aI965
aaI-2
aI1
aS'Subtype'
p775
a(lp776
I1009
aI1009
aaI-1
aI1
aS'ToUnicode'
p777
a(lp778
I1010
aI1012
aaI1
aS'Filter'
p779
a(lp780
I1011
aI1011
aaI-1
aI1
aS'Length'
p781
a(lp782
I1012
aI1012
aaI-2
aI1
aS'FontDescriptor'
p783
a(lp784
I972
aI1006
aaI1
aS'Descent'
p785
a(lp786
I977
aI977
aaI-1
aI1
aS'FontBBox'
p787
a(lp788
I979
aI979
aaI-1
aI1
aS'Leading'
p789
a(lp790
I1000
aI1000
aaI-1
aI1
aS'StemH'
p791
a(lp792
I1003
aI1003
aaI-1
aI1
aS'StemV'
p793
a(lp794
I1004
aI1004
aaI-1
aI1
aS'AvgWidth'
p795
a(lp796
I974
aI974
aaI-1
aI1
aS'XHeight'
p797
a(lp798
I1006
aI1006
aaI-1
aI1
aS'Type'
p799
a(lp800
I1005
aI1005
aaI-1
aI1
aS'FontStretch'
p801
a(lp802
I997
aI997
aaI-1
aI1
aS'FontFile2'
p803
a(lp804
I987
aI990
aaI1
aS'Filter'
p805
a(lp806
I988
aI988
aaI-1
aI1
aS'Length'
p807
a(lp808
I989
aI989
aaI-1
aI1
aS'Length1'
p809
a(lp810
I990
aI990
aaI-2
aI1
aS'FontFile3'
p811
a(lp812
I991
aI995
aaI1
aS'Filter'
p813
a(lp814
I992
aI992
aaI-1
aI1
aS'Subtype'
p815
a(lp816
I995
aI995
aaI-1
aI1
aS'Length'
p817
a(lp818
I993
aI993
aaI-1
aI1
aS'Length1'
p819
a(lp820
I994
aI994
aaI-2
aI1
aS'FontName'
p821
a(lp822
I996
aI996
aaI-1
aI1
aS'MaxWidth'
p823
a(lp824
I1001
aI1001
aaI-1
aI1
aS'CapHeight'
p825
a(lp826
I975
aI975
aaI-1
aI1
aS'FontFamily'
p827
a(lp828
I980
aI980
aaI-1
aI1
aS'ItalicAngle'
p829
a(lp830
I999
aI999
aaI-1
aI1
aS'FontFile'
p831
a(lp832
I981
aI986
aaI1
aS'Filter'
p833
a(lp834
I982
aI982
aaI-1
aI1
aS'Length2'
p835
a(lp836
I985
aI985
aaI-1
aI1
aS'Length'
p837
a(lp838
I983
aI983
aaI-1
aI1
aS'Length3'
p839
a(lp840
I986
aI986
aaI-1
aI1
aS'Length1'
p841
a(lp842
I984
aI984
aaI-2
aI1
aS'Flags'
p843
a(lp844
I978
aI978
aaI-1
aI1
aS'CharSet'
p845
a(lp846
I976
aI976
aaI-1
aI1
aS'FontWeight'
p847
a(lp848
I998
aI998
aaI-1
aI1
aS'MissingWidth'
p849
a(lp850
I1002
aI1002
aaI-1
aI1
aS'Ascent'
p851
a(lp852
I973
aI973
aaI-2
aI1
aS'Type'
p853
a(lp854
I1013
aI1013
aaI-1
aI1
aS'FirstChar'
p855
a(lp856
I971
aI971
aaI-3
aI1
aS'Properties'
p857
a(lp858
I1016
aI1022
aaI1
aS'Name'
p859
a(lp860
I1016
aI1022
aaI1
aS'OCGs'
p861
a(lp862
I1021
aI1021
aaI-1
aI1
aS'Type'
p863
a(lp864
I1022
aI1022
aaI-1
aI1
aS'Metadata'
p865
a(lp866
I1017
aI1020
aaI1
aS'Subtype'
p867
a(lp868
I1019
aI1019
aaI-1
aI1
aS'Length'
p869
a(lp870
I1018
aI1018
aaI-1
aI1
aS'Type'
p871
a(lp872
I1020
aI1020
aaI-6
aI1
aS'MediaBox'
p873
a(lp874
I1153
aI1153
aaI-1
aI1
aS'Tabs'
p875
a(lp876
I1259
aI1259
aaI-1
aI1
aS'Typp'
p877
a(lp878
I1261
aI1261
aaI-1
aI1
aS'Dssd'
p879
a(lp880
I1146
aI1146
aaI-1
aI1
aS'StructParents'
p881
a(lp882
I1258
aI1258
aaI-1
aI1
aS'Annots'
p883
a(lp884
I674
aI757
aaI1
aS'BE'
p885
a(lp886
I708
aI708
aaI1
ag100
a(lp887
I708
aI708
aaI-2
aI1
aS'DA'
p888
a(lp889
I716
aI716
aaI-1
aI1
aS'State'
p890
a(lp891
I751
aI751
aaI-1
aI1
ag35
a(lp892
I675
aI691
aaI1
aS'URI'
p893
a(lp894
I691
aI691
aaI-1
aI1
aS'AN'
p895
a(lp896
I676
aI676
aaI-1
aI1
ag100
a(lp897
I689
aI689
aaI-1
aI1
ag54
a(lp898
I678
aI688
aaI1
ag210
a(lp899
I679
aI686
aaI1
ag31
a(lp900
I685
aI685
aaI1
aS'TF'
p901
a(lp902
I685
aI685
aaI-2
aI1
ag100
a(lp903
I686
aI686
aaI-1
aI1
ag45
a(lp904
I681
aI684
aaI1
aS'FS'
p905
a(lp906
I683
aI683
aaI-1
aI1
aS'Type'
p907
a(lp908
I684
aI684
aaI-1
aI1
ag205
a(lp909
I682
aI682
aaI-2
aI1
aS'CT'
p910
a(lp911
I680
aI680
aaI-2
aI1
ag100
a(lp912
I688
aI688
aaI-1
aI1
ag88
a(lp913
I687
aI687
aaI-2
aI1
aS'Type'
p914
a(lp915
I690
aI690
aaI-1
aI1
aS'OP'
p916
a(lp917
I677
aI677
aaI-2
aI1
aS'BS'
p918
a(lp919
I710
aI711
aaI1
ag100
a(lp920
I710
aI710
aaI-1
aI1
ag59
a(lp921
I711
aI711
aaI-2
aI1
aS'Type'
p922
a(lp923
I757
aI757
aaI-1
aI1
aS'FN'
p924
a(lp925
I719
aI719
aaI-1
aI1
aS'Popup'
p926
a(lp927
I748
aI748
aaI-1
aI1
aS'NM'
p928
a(lp929
I744
aI744
aaI-1
aI1
aS'BKC'
p930
a(lp931
I709
aI709
aaI-1
aI1
aS'Dest'
p932
a(lp933
I717
aI717
aaI-1
aI1
aS'Rect'
p934
a(lp935
I750
aI750
aaI-1
aI1
aS'StructParent'
p936
a(lp937
I753
aI753
aaI-1
aI1
aS'AA'
p938
a(lp939
I692
aI697
aaI1
aS'PV'
p940
a(lp941
I693
aI697
aaI1
ag100
a(lp942
I696
aI696
aaI-1
aI1
ag205
a(lp943
I694
aI694
aaI1
ag205
a(lp944
I694
aI694
aaI-2
aI1
aS'Type'
p945
a(lp946
I697
aI697
aaI-1
aI1
aS'NewWindow'
p947
a(lp948
I695
aI695
aaI-3
aI1
ag210
a(lp949
I713
aI713
aaI-1
aI1
aS'Name'
p950
a(lp951
I745
aI745
aaI-1
aI1
ag31
a(lp952
I747
aI747
aaI-1
aI1
ag205
a(lp953
I718
aI718
aaI-1
aI1
ag216
a(lp954
I735
aI735
aaI-1
aI1
ag218
a(lp955
I737
aI737
aaI-1
aI1
aS'IT'
p956
a(lp957
I736
aI736
aaI-1
aI1
aS'FoxitTag'
p958
a(lp959
I720
aI734
aaI1
aS'FontName'
p960
a(lp961
I724
aI724
aaI-1
aI1
aS'TextMatrix'
p962
a(lp963
I733
aI733
aaI-1
aI1
aS'License'
p964
a(lp965
I727
aI727
aaI-1
aI1
aS'BoxWidth'
p966
a(lp967
I721
aI721
aaI-1
aI1
aS'HorzScale'
p968
a(lp969
I726
aI726
aaI-1
aI1
aS'OriginY'
p970
a(lp971
I731
aI731
aaI-1
aI1
aS'OriginX'
p972
a(lp973
I730
aI730
aaI-1
aI1
aS'LineFeed'
p974
a(lp975
I728
aI728
aaI-1
aI1
aS'CharSpace'
p976
a(lp977
I723
aI723
aaI-1
aI1
aS'FontSize'
p978
a(lp979
I725
aI725
aaI-1
aI1
aS'MenderFlag'
p980
a(lp981
I729
aI729
aaI-1
aI1
aS'Text'
p982
a(lp983
I732
aI732
aaI-1
aI1
aS'CharColor'
p984
a(lp985
I722
aI722
aaI-1
aI1
aS'bChangeBox'
p986
a(lp987
I734
aI734
aaI-2
aI1
aS'Subtype'
p988
a(lp989
I755
aI755
aaI-1
aI1
aS'Open'
p990
a(lp991
I746
aI746
aaI-1
aI1
ag91
a(lp992
I756
aI756
aaI-1
aI1
ag252
a(lp993
I749
aI749
aaI-1
aI1
aS'AP'
p994
a(lp995
I698
aI707
aaI1
ag88
a(lp996
I699
aI707
aaI1
aS'Name'
p997
a(lp998
I700
aI707
aaI1
aS'ExtGState'
p999
a(lp1000
I701
aI705
aaI1
aS'Name'
p1001
a(lp1002
I701
aI705
aaI1
aS'CA'
p1003
a(lp1004
I703
aI703
aaI-1
aI1
aS'Type'
p1005
a(lp1006
I704
aI704
aaI-1
aI1
aS'ca'
p1007
a(lp1008
I705
aI705
aaI-1
aI1
aS'AIS'
p1009
a(lp1010
I702
aI702
aaI-3
aI1
aS'Font'
p1011
a(lp1012
I706
aI707
aaI1
aS'Name'
p1013
a(lp1014
I707
aI707
aaI-5
aI1
aS'Border'
p1015
a(lp1016
I712
aI712
aaI-1
aI1
aS'MK'
p1017
a(lp1018
I738
aI743
aaI1
aS'BC'
p1019
a(lp1020
I738
aI738
aaI-1
aI1
ag54
a(lp1021
I743
aI743
aaI-1
aI1
aS'IF'
p1022
a(lp1023
I739
aI742
aaI1
ag35
a(lp1024
I739
aI739
aaI-1
aI1
aS'FB'
p1025
a(lp1026
I740
aI740
aaI-1
aI1
aS'SW'
p1027
a(lp1028
I742
aI742
aaI-1
aI1
ag100
a(lp1029
I741
aI741
aaI-3
aI1
aS'StateModel'
p1030
a(lp1031
I752
aI752
aaI-1
aI1
aS'CreationDate'
p1032
a(lp1033
I715
aI715
aaI-1
aI1
aS'Subj'
p1034
a(lp1035
I754
aI754
aaI-1
aI1
aS'Contents'
p1036
a(lp1037
I714
aI714
aaI-2
aI1
aS'CropBox'
p1038
a(lp1039
I768
aI768
aaI-1
aI1
aS'JS'
p1040
a(lp1041
I1150
aI1152
aaI1
aS'Filter'
p1042
a(lp1043
I1151
aI1151
aaI-1
aI1
aS'Length'
p1044
a(lp1045
I1152
aI1152
aaI-2
aI1
ag100
a(lp1046
I1257
aI1257
aaI-1
aI1
aS'Rotate'
p1047
a(lp1048
I1256
aI1256
aaI-1
aI1
aS'Contents'
p1049
a(lp1050
I764
aI766
aaI1
aS'Filter'
p1051
a(lp1052
I765
aI765
aaI-1
aI1
aS'Length'
p1053
a(lp1054
I766
aI766
aaI-2
aI1
aS'Win'
p1055
a(lp1056
I1262
aI1263
aaI1
ag31
a(lp1057
I1263
aI1263
aaI-1
aI1
ag205
a(lp1058
I1262
aI1262
aaI-2
aI1
aS'<nn>'
p1059
a(lp1060
I673
aI673
aaI-1
aI1
aS'Type'
p1061
a(lp1062
I1260
aI1260
aaI-1
aI1
aS'Resources'
p1063
a(lp1064
I1154
aI1255
aaI1
aS'XObject'
p1065
a(lp1066
I1243
aI1255
aaI1
aS'Name'
p1067
a(lp1068
I1244
aI1255
aaI1
aS'DecodeParms'
p1069
a(lp1070
I1247
aI1248
aaI1
ag447
a(lp1071
I1248
aI1248
aaI-1
aI1
aS'Columns'
p1072
a(lp1073
I1247
aI1247
aaI-2
aI1
aS'Subtype'
p1074
a(lp1075
I1253
aI1253
aaI-1
aI1
aS'ColorSpace'
p1076
a(lp1077
I1246
aI1246
aaI-1
aI1
aS'ImageMask'
p1078
a(lp1079
I1251
aI1251
aaI-1
aI1
aS'Height'
p1080
a(lp1081
I1250
aI1250
aaI-1
aI1
aS'Filter'
p1082
a(lp1083
I1249
aI1249
aaI-1
aI1
aS'Width'
p1084
a(lp1085
I1255
aI1255
aaI-1
aI1
aS'Length'
p1086
a(lp1087
I1252
aI1252
aaI-1
aI1
aS'Type'
p1088
a(lp1089
I1254
aI1254
aaI-1
aI1
aS'BitsPerComponent'
p1090
a(lp1091
I1245
aI1245
aaI-3
aI1
aS'ColorSpace'
p1092
a(lp1093
I1155
aI1162
aaI1
aS'Name'
p1094
a(lp1095
I1155
aI1162
aaI1
aS'Matrix'
p1096
a(lp1097
I1160
aI1160
aaI-1
aI1
aS'WhitePoint'
p1098
a(lp1099
I1162
aI1162
aaI-1
aI1
aS'Alternate'
p1100
a(lp1101
I1156
aI1156
aaI-1
aI1
ag88
a(lp1102
I1161
aI1161
aaI-1
aI1
aS'Filter'
p1103
a(lp1104
I1157
aI1157
aaI-1
aI1
aS'Length'
p1105
a(lp1106
I1159
aI1159
aaI-1
aI1
aS'Gamma'
p1107
a(lp1108
I1158
aI1158
aaI-3
aI1
aS'ProcSet'
p1109
a(lp1110
I1241
aI1241
aaI-1
aI1
aS'ExtGState'
p1111
a(lp1112
I1163
aI1181
aaI1
aS'Name'
p1113
a(lp1114
I1164
aI1181
aaI1
aS'SMask'
p1115
a(lp1116
I1174
aI1174
aaI-1
aI1
aS'UCR2'
p1117
a(lp1118
I1179
aI1179
aaI-1
aI1
aS'SM'
p1119
a(lp1120
I1173
aI1173
aaI-1
aI1
aS'BM'
p1121
a(lp1122
I1167
aI1167
aaI-1
aI1
aS'CA'
p1123
a(lp1124
I1168
aI1168
aaI-1
aI1
aS'TR'
p1125
a(lp1126
I1176
aI1176
aaI-1
aI1
aS'OP'
p1127
a(lp1128
I1170
aI1170
aaI-1
aI1
aS'HT'
p1129
a(lp1130
I1169
aI1169
aaI-1
aI1
aS'BG2'
p1131
a(lp1132
I1166
aI1166
aaI-1
aI1
aS'TK'
p1133
a(lp1134
I1175
aI1175
aaI-1
aI1
aS'AIS'
p1135
a(lp1136
I1165
aI1165
aaI-1
aI1
aS'OPM'
p1137
a(lp1138
I1171
aI1171
aaI-1
aI1
aS'SA'
p1139
a(lp1140
I1172
aI1172
aaI-1
aI1
aS'TR2'
p1141
a(lp1142
I1177
aI1177
aaI-1
aI1
aS'Type'
p1143
a(lp1144
I1178
aI1178
aaI-1
aI1
aS'ca'
p1145
a(lp1146
I1180
aI1180
aaI-1
aI1
aS'op'
p1147
a(lp1148
I1181
aI1181
aaI-3
aI1
aS'Font'
p1149
a(lp1150
I1182
aI1240
aaI1
aS'Name'
p1151
a(lp1152
I1183
aI1240
aaI1
aS'LastChar'
p1153
a(lp1154
I1233
aI1233
aaI-1
aI1
aS'Name'
p1155
a(lp1156
I1234
aI1234
aaI-1
aI1
aS'Encoding'
p1157
a(lp1158
I1208
aI1211
aaI1
aS'BaseEncoding'
p1159
a(lp1160
I1209
aI1209
aaI-1
aI1
aS'Differences'
p1161
a(lp1162
I1210
aI1210
aaI-1
aI1
aS'Type'
p1163
a(lp1164
I1211
aI1211
aaI-2
aI1
aS'BaseFont'
p1165
a(lp1166
I1184
aI1184
aaI-1
aI1
aS'Widths'
p1167
a(lp1168
I1240
aI1240
aaI-1
aI1
aS'DescendantFonts'
p1169
a(lp1170
I1185
aI1207
aaI1
ag59
a(lp1171
I1207
aI1207
aaI-1
aI1
aS'BaseFont'
p1172
a(lp1173
I1186
aI1186
aaI-1
aI1
aS'CIDSystemInfo'
p1174
a(lp1175
I1187
aI1189
aaI1
aS'Ordering'
p1176
a(lp1177
I1187
aI1187
aaI-1
aI1
aS'Supplement'
p1178
a(lp1179
I1189
aI1189
aaI-1
aI1
aS'Registry'
p1180
a(lp1181
I1188
aI1188
aaI-2
aI1
aS'Subtype'
p1182
a(lp1183
I1205
aI1205
aaI-1
aI1
aS'FontDescriptor'
p1184
a(lp1185
I1191
aI1204
aaI1
aS'FontFile2'
p1186
a(lp1187
I1197
aI1200
aaI1
aS'Filter'
p1188
a(lp1189
I1198
aI1198
aaI-1
aI1
aS'Length'
p1190
a(lp1191
I1199
aI1199
aaI-1
aI1
aS'Length1'
p1192
a(lp1193
I1200
aI1200
aaI-2
aI1
aS'FontName'
p1194
a(lp1195
I1201
aI1201
aaI-1
aI1
aS'Descent'
p1196
a(lp1197
I1194
aI1194
aaI-1
aI1
aS'FontBBox'
p1198
a(lp1199
I1196
aI1196
aaI-1
aI1
aS'CapHeight'
p1200
a(lp1201
I1193
aI1193
aaI-1
aI1
aS'Ascent'
p1202
a(lp1203
I1192
aI1192
aaI-1
aI1
aS'StemV'
p1204
a(lp1205
I1203
aI1203
aaI-1
aI1
aS'Flags'
p1206
a(lp1207
I1195
aI1195
aaI-1
aI1
aS'ItalicAngle'
p1208
a(lp1209
I1202
aI1202
aaI-1
aI1
aS'Type'
p1210
a(lp1211
I1204
aI1204
aaI-2
aI1
aS'DW'
p1212
a(lp1213
I1190
aI1190
aaI-1
aI1
aS'Type'
p1214
a(lp1215
I1206
aI1206
aaI-2
aI1
aS'Subtype'
p1216
a(lp1217
I1235
aI1235
aaI-1
aI1
aS'ToUnicode'
p1218
a(lp1219
I1236
aI1238
aaI1
aS'Filter'
p1220
a(lp1221
I1237
aI1237
aaI-1
aI1
aS'Length'
p1222
a(lp1223
I1238
aI1238
aaI-2
aI1
aS'FontDescriptor'
p1224
a(lp1225
I1213
aI1232
aaI1
aS'FontFile2'
p1226
a(lp1227
I1220
aI1223
aaI1
aS'Filter'
p1228
a(lp1229
I1221
aI1221
aaI-1
aI1
aS'Length'
p1230
a(lp1231
I1222
aI1222
aaI-1
aI1
aS'Length1'
p1232
a(lp1233
I1223
aI1223
aaI-2
aI1
aS'FontFile3'
p1234
a(lp1235
I1224
aI1227
aaI1
aS'Filter'
p1236
a(lp1237
I1225
aI1225
aaI-1
aI1
aS'Subtype'
p1238
a(lp1239
I1227
aI1227
aaI-1
aI1
aS'Length'
p1240
a(lp1241
I1226
aI1226
aaI-2
aI1
aS'FontName'
p1242
a(lp1243
I1228
aI1228
aaI-1
aI1
aS'Descent'
p1244
a(lp1245
I1217
aI1217
aaI-1
aI1
aS'FontBBox'
p1246
a(lp1247
I1219
aI1219
aaI-1
aI1
aS'CapHeight'
p1248
a(lp1249
I1215
aI1215
aaI-1
aI1
aS'Ascent'
p1250
a(lp1251
I1214
aI1214
aaI-1
aI1
aS'CharSet'
p1252
a(lp1253
I1216
aI1216
aaI-1
aI1
aS'StemV'
p1254
a(lp1255
I1230
aI1230
aaI-1
aI1
aS'Flags'
p1256
a(lp1257
I1218
aI1218
aaI-1
aI1
aS'XHeight'
p1258
a(lp1259
I1232
aI1232
aaI-1
aI1
aS'ItalicAngle'
p1260
a(lp1261
I1229
aI1229
aaI-1
aI1
aS'Type'
p1262
a(lp1263
I1231
aI1231
aaI-2
aI1
aS'Type'
p1264
a(lp1265
I1239
aI1239
aaI-1
aI1
aS'FirstChar'
p1266
a(lp1267
I1212
aI1212
aaI-3
aI1
aS'Properties'
p1268
a(lp1269
I1242
aI1242
aaI1
aS'Name'
p1270
a(lp1271
I1242
aI1242
aaI-4
aI1
aS'Version'
p1272
a(lp1273
I3495
aI3495
aaI-1
aI1
aS'<nn>'
p1274
a(lp1275
I1
aI1
aaI-1
aI1
aS'AcroForm'
p1276
a(lp1277
I3
aI451
aaI1
aS'NeedAppearances'
p1278
a(lp1279
I444
aI444
aaI-1
aI1
aS'CO'
p1280
a(lp1281
I4
aI37
aaI1
aS'AA'
p1282
a(lp1283
I5
aI18
aaI1
ag210
a(lp1284
I5
aI9
aaI1
ag100
a(lp1285
I9
aI9
aaI-1
aI1
aS'JS'
p1286
a(lp1287
I6
aI8
aaI1
aS'Filter'
p1288
a(lp1289
I7
aI7
aaI-1
aI1
aS'Length'
p1290
a(lp1291
I8
aI8
aaI-3
aI1
ag205
a(lp1292
I10
aI12
aaI1
ag100
a(lp1293
I12
aI12
aaI-1
aI1
aS'JS'
p1294
a(lp1295
I11
aI11
aaI-2
aI1
ag447
a(lp1296
I13
aI15
aaI1
ag100
a(lp1297
I15
aI15
aaI-1
aI1
aS'JS'
p1298
a(lp1299
I14
aI14
aaI-2
aI1
ag71
a(lp1300
I16
aI18
aaI1
ag100
a(lp1301
I18
aI18
aaI-1
aI1
aS'JS'
p1302
a(lp1303
I17
aI17
aaI-3
aI1
aS'AP'
p1304
a(lp1305
I19
aI22
aaI1
ag88
a(lp1306
I19
aI22
aaI1
aS'Name'
p1307
a(lp1308
I20
aI22
aaI1
aS'Font'
p1309
a(lp1310
I21
aI21
aaI1
aS'Name'
p1311
a(lp1312
I21
aI21
aaI-2
aI1
aS'ProcSet'
p1313
a(lp1314
I22
aI22
aaI-4
aI1
aS'FT'
p1315
a(lp1316
I25
aI25
aaI-1
aI1
aS'Ff'
p1317
a(lp1318
I26
aI26
aaI-1
aI1
ag205
a(lp1319
I24
aI24
aaI-1
aI1
aS'TU'
p1320
a(lp1321
I35
aI35
aaI-1
aI1
aS'MK'
p1322
a(lp1323
I27
aI27
aaI-1
aI1
aS'DA'
p1324
a(lp1325
I23
aI23
aaI-1
aI1
ag252
a(lp1326
I30
aI30
aaI-1
aI1
ag31
a(lp1327
I29
aI29
aaI-1
aI1
ag91
a(lp1328
I34
aI34
aaI-1
aI1
aS'Maxlen'
p1329
a(lp1330
I28
aI28
aaI-1
aI1
ag71
a(lp1331
I37
aI37
aaI-1
aI1
aS'Subtype'
p1332
a(lp1333
I33
aI33
aaI-1
aI1
aS'Type'
p1334
a(lp1335
I36
aI36
aaI-1
aI1
aS'Rect'
p1336
a(lp1337
I31
aI31
aaI-1
aI1
aS'StructParent'
p1338
a(lp1339
I32
aI32
aaI-2
aI1
aS'XFA'
p1340
a(lp1341
I446
aI451
aaI1
aS'Filter'
p1342
a(lp1343
I447
aI447
aaI-1
aI1
aS'Length'
p1344
a(lp1345
I448
aI448
aaI-1
aI1
aS'Type'
p1346
a(lp1347
I449
aI449
aaI-1
aI1
aS'Xength'
p1348
a(lp1349
I450
aI450
aaI-1
aI1
aS'Xilter'
p1350
a(lp1351
I451
aI451
aaI-2
aI1
aS'Fields'
p1352
a(lp1353
I129
aI443
aaI1
ag35
a(lp1354
I130
aI141
aaI1
aS'Fields'
p1355
a(lp1356
I131
aI131
aaI-1
aI1
ag100
a(lp1357
I137
aI137
aaI-1
aI1
ag88
a(lp1358
I135
aI135
aaI-1
aI1
aS'State'
p1359
a(lp1360
I138
aI138
aaI-1
aI1
aS'Flags'
p1361
a(lp1362
I132
aI132
aaI-1
aI1
ag91
a(lp1363
I139
aI139
aaI-1
aI1
aS'PreserveRB'
p1364
a(lp1365
I136
aI136
aaI-1
aI1
ag216
a(lp1366
I133
aI133
aaI-1
aI1
aS'JS'
p1367
a(lp1368
I134
aI134
aaI-1
aI1
aS'Type'
p1369
a(lp1370
I140
aI140
aaI-1
aI1
aS'URI'
p1371
a(lp1372
I141
aI141
aaI-2
aI1
aS'FT'
p1373
a(lp1374
I314
aI314
aaI-1
aI1
aS'DA'
p1375
a(lp1376
I299
aI299
aaI-1
aI1
aS'Maxlen'
p1377
a(lp1378
I334
aI334
aaI-1
aI1
aS'BS'
p1379
a(lp1380
I296
aI297
aaI1
ag100
a(lp1381
I296
aI296
aaI-1
aI1
ag59
a(lp1382
I297
aI297
aaI-2
aI1
aS'DV'
p1383
a(lp1384
I312
aI312
aaI-1
aI1
aS'Type'
p1385
a(lp1386
I424
aI424
aaI-1
aI1
aS'Opt'
p1387
a(lp1388
I336
aI336
aaI-1
aI1
aS'NM'
p1389
a(lp1390
I335
aI335
aaI-1
aI1
aS'DR'
p1391
a(lp1392
I300
aI311
aaI1
aS'Font'
p1393
a(lp1394
I305
aI311
aaI1
aS'Name'
p1395
a(lp1396
I306
aI311
aaI1
aS'BaseFont'
p1397
a(lp1398
I307
aI307
aaI-1
aI1
aS'Subtype'
p1399
a(lp1400
I310
aI310
aaI-1
aI1
aS'Type'
p1401
a(lp1402
I311
aI311
aaI-1
aI1
aS'Name'
p1403
a(lp1404
I309
aI309
aaI-1
aI1
aS'Encoding'
p1405
a(lp1406
I308
aI308
aaI-3
aI1
aS'Encoding'
p1407
a(lp1408
I301
aI304
aaI1
aS'PDFDocEncoding'
p1409
a(lp1410
I302
aI304
aaI1
aS'Differences'
p1411
a(lp1412
I303
aI303
aaI-1
aI1
aS'Type'
p1413
a(lp1414
I304
aI304
aaI-4
aI1
aS'TU'
p1415
a(lp1416
I423
aI423
aaI-1
aI1
aS'Ff'
p1417
a(lp1418
I315
aI315
aaI-1
aI1
aS'Rect'
p1419
a(lp1420
I419
aI419
aaI-1
aI1
aS'StructParent'
p1421
a(lp1422
I420
aI420
aaI-1
aI1
aS'AA'
p1423
a(lp1424
I142
aI157
aaI1
aS'Bl'
p1425
a(lp1426
I143
aI145
aaI1
ag100
a(lp1427
I145
aI145
aaI-1
aI1
aS'JS'
p1428
a(lp1429
I144
aI144
aaI-2
aI1
ag447
a(lp1430
I152
aI154
aaI1
ag100
a(lp1431
I154
aI154
aaI-1
aI1
aS'JS'
p1432
a(lp1433
I153
aI153
aaI-2
aI1
ag71
a(lp1434
I155
aI157
aaI1
ag100
a(lp1435
I157
aI157
aaI-1
aI1
aS'JS'
p1436
a(lp1437
I156
aI156
aaI-2
aI1
ag205
a(lp1438
I146
aI148
aaI1
ag100
a(lp1439
I148
aI148
aaI-1
aI1
aS'JS'
p1440
a(lp1441
I147
aI147
aaI-2
aI1
aS'Fo'
p1442
a(lp1443
I149
aI151
aaI1
ag100
a(lp1444
I151
aI151
aaI-1
aI1
aS'JS'
p1445
a(lp1446
I150
aI150
aaI-3
aI1
aS'AP'
p1447
a(lp1448
I158
aI294
aaI1
ag54
a(lp1449
I288
aI294
aaI1
aS'Subtype'
p1450
a(lp1451
I294
aI294
aaI-1
aI1
aS'Length'
p1452
a(lp1453
I290
aI290
aaI-1
aI1
aS'BBox'
p1454
a(lp1455
I289
aI289
aaI-1
aI1
aS'Resources'
p1456
a(lp1457
I292
aI293
aaI1
aS'Font'
p1458
a(lp1459
I293
aI293
aaI1
aS'Name'
p1460
a(lp1461
I293
aI293
aaI-2
aI1
aS'Encoding'
p1462
a(lp1463
I292
aI292
aaI1
aS'PDFDocEncoding'
p1464
a(lp1465
I292
aI292
aaI-3
aI1
aS'Matrix'
p1466
a(lp1467
I291
aI291
aaI-2
aI1
ag45
a(lp1468
I158
aI177
aaI1
aS'Name'
p1469
a(lp1470
I159
aI177
aaI1
aS'Matrix'
p1471
a(lp1472
I167
aI167
aaI-1
aI1
aS'Encoding'
p1473
a(lp1474
I161
aI161
aaI1
aS'PDFDocEncoding'
p1475
a(lp1476
I161
aI161
aaI-2
aI1
aS'MK'
p1477
a(lp1478
I166
aI166
aaI1
aS'CA'
p1479
a(lp1480
I166
aI166
aaI-2
aI1
aS'Filter'
p1481
a(lp1482
I162
aI162
aaI-1
aI1
aS'Subtype'
p1483
a(lp1484
I176
aI176
aaI-1
aI1
aS'Length'
p1485
a(lp1486
I165
aI165
aaI-1
aI1
aS'BBox'
p1487
a(lp1488
I160
aI160
aaI-1
aI1
aS'FormType'
p1489
a(lp1490
I164
aI164
aaI-1
aI1
aS'Font'
p1491
a(lp1492
I163
aI163
aaI1
aS'Name'
p1493
a(lp1494
I163
aI163
aaI-2
aI1
aS'Type'
p1495
a(lp1496
I177
aI177
aaI-1
aI1
aS'Resources'
p1497
a(lp1498
I168
aI175
aaI1
aS'Font'
p1499
a(lp1500
I168
aI174
aaI1
aS'Name'
p1501
a(lp1502
I168
aI174
aaI1
aS'Name'
p1503
a(lp1504
I172
aI172
aaI-1
aI1
aS'BaseFont'
p1505
a(lp1506
I169
aI169
aaI-1
aI1
aS'LastChar'
p1507
a(lp1508
I171
aI171
aaI-1
aI1
aS'Subtype'
p1509
a(lp1510
I173
aI173
aaI-1
aI1
aS'Type'
p1511
a(lp1512
I174
aI174
aaI-1
aI1
aS'FirstChar'
p1513
a(lp1514
I170
aI170
aaI-3
aI1
aS'ProcSet'
p1515
a(lp1516
I175
aI175
aaI-4
aI1
ag88
a(lp1517
I178
aI287
aaI1
aS'Name'
p1518
a(lp1519
I179
aI287
aaI1
aS'XObject'
p1520
a(lp1521
I222
aI287
aaI1
aS'Name'
p1522
a(lp1523
I223
aI287
aaI1
aS'Matrix'
p1524
a(lp1525
I228
aI228
aaI-1
aI1
aS'Filter'
p1526
a(lp1527
I225
aI225
aaI-1
aI1
aS'Subtype'
p1528
a(lp1529
I286
aI286
aaI-1
aI1
aS'Length'
p1530
a(lp1531
I227
aI227
aaI-1
aI1
aS'BBox'
p1532
a(lp1533
I224
aI224
aaI-1
aI1
aS'FormType'
p1534
a(lp1535
I226
aI226
aaI-1
aI1
aS'Type'
p1536
a(lp1537
I287
aI287
aaI-1
aI1
aS'Resources'
p1538
a(lp1539
I229
aI285
aaI1
aS'XObject'
p1540
a(lp1541
I231
aI285
aaI1
aS'Name'
p1542
a(lp1543
I232
aI285
aaI1
aS'Matrix'
p1544
a(lp1545
I237
aI237
aaI-1
aI1
aS'Filter'
p1546
a(lp1547
I234
aI234
aaI-1
aI1
aS'Subtype'
p1548
a(lp1549
I284
aI284
aaI-1
aI1
aS'Length'
p1550
a(lp1551
I236
aI236
aaI-1
aI1
aS'BBox'
p1552
a(lp1553
I233
aI233
aaI-1
aI1
aS'FormType'
p1554
a(lp1555
I235
aI235
aaI-1
aI1
aS'Type'
p1556
a(lp1557
I285
aI285
aaI-1
aI1
aS'Resources'
p1558
a(lp1559
I238
aI283
aaI1
aS'ExtGState'
p1560
a(lp1561
I239
aI243
aaI1
aS'Name'
p1562
a(lp1563
I240
aI243
aaI1
aS'CA'
p1564
a(lp1565
I241
aI241
aaI-1
aI1
aS'Type'
p1566
a(lp1567
I242
aI242
aaI-1
aI1
aS'ca'
p1568
a(lp1569
I243
aI243
aaI-3
aI1
aS'Font'
p1570
a(lp1571
I244
aI244
aaI1
aS'Name'
p1572
a(lp1573
I244
aI244
aaI-2
aI1
aS'XObject'
p1574
a(lp1575
I246
aI283
aaI1
aS'Name'
p1576
a(lp1577
I247
aI283
aaI1
aS'Group'
p1578
a(lp1579
I252
aI254
aaI1
ag447
a(lp1580
I253
aI253
aaI-1
aI1
ag100
a(lp1581
I254
aI254
aaI-2
aI1
aS'Matrix'
p1582
a(lp1583
I257
aI257
aaI-1
aI1
aS'Subtype'
p1584
a(lp1585
I281
aI281
aaI-1
aI1
aS'ColorSpace'
p1586
a(lp1587
I250
aI250
aaI-1
aI1
aS'Height'
p1588
a(lp1589
I255
aI255
aaI-1
aI1
aS'Filter'
p1590
a(lp1591
I251
aI251
aaI-1
aI1
aS'Width'
p1592
a(lp1593
I283
aI283
aaI-1
aI1
aS'Length'
p1594
a(lp1595
I256
aI256
aaI-1
aI1
aS'BitsPerComponent'
p1596
a(lp1597
I249
aI249
aaI-1
aI1
aS'BBox'
p1598
a(lp1599
I248
aI248
aaI-1
aI1
aS'Type'
p1600
a(lp1601
I282
aI282
aaI-1
aI1
aS'Resources'
p1602
a(lp1603
I259
aI280
aaI1
aS'ExtGState'
p1604
a(lp1605
I260
aI271
aaI1
aS'Name'
p1606
a(lp1607
I261
aI271
aaI1
aS'SMask'
p1608
a(lp1609
I268
aI268
aaI-1
aI1
aS'BM'
p1610
a(lp1611
I263
aI263
aaI-1
aI1
aS'CA'
p1612
a(lp1613
I264
aI264
aaI-1
aI1
aS'AIS'
p1614
a(lp1615
I262
aI262
aaI-1
aI1
aS'OPM'
p1616
a(lp1617
I266
aI266
aaI-1
aI1
aS'SA'
p1618
a(lp1619
I267
aI267
aaI-1
aI1
aS'OP'
p1620
a(lp1621
I265
aI265
aaI-1
aI1
aS'Type'
p1622
a(lp1623
I269
aI269
aaI-1
aI1
aS'ca'
p1624
a(lp1625
I270
aI270
aaI-1
aI1
aS'op'
p1626
a(lp1627
I271
aI271
aaI-3
aI1
aS'Properties'
p1628
a(lp1629
I272
aI280
aaI1
aS'Name'
p1630
a(lp1631
I273
aI280
aaI1
aS'Title'
p1632
a(lp1633
I279
aI279
aaI-1
aI1
aS'Color'
p1634
a(lp1635
I274
aI274
aaI-1
aI1
aS'Editable'
p1636
a(lp1637
I276
aI276
aaI-1
aI1
aS'Dimmed'
p1638
a(lp1639
I275
aI275
aaI-1
aI1
aS'Visible'
p1640
a(lp1641
I280
aI280
aaI-1
aI1
aS'Printed'
p1642
a(lp1643
I278
aI278
aaI-1
aI1
aS'Preview'
p1644
a(lp1645
I277
aI277
aaI-4
aI1
aS'Name'
p1646
a(lp1647
I258
aI258
aaI-3
aI1
aS'ProcSet'
p1648
a(lp1649
I245
aI245
aaI-4
aI1
aS'ProcSet'
p1650
a(lp1651
I230
aI230
aaI-4
aI1
aS'Matrix'
p1652
a(lp1653
I216
aI216
aaI-1
aI1
aS'Encoding'
p1654
a(lp1655
I181
aI181
aaI1
aS'PDFDocEncoding'
p1656
a(lp1657
I181
aI181
aaI-2
aI1
aS'MK'
p1658
a(lp1659
I215
aI215
aaI1
aS'CA'
p1660
a(lp1661
I215
aI215
aaI-2
aI1
aS'ProcSet'
p1662
a(lp1663
I217
aI217
aaI-1
aI1
aS'Filter'
p1664
a(lp1665
I182
aI182
aaI-1
aI1
aS'Subtype'
p1666
a(lp1667
I220
aI220
aaI-1
aI1
aS'Length'
p1668
a(lp1669
I214
aI214
aaI-1
aI1
aS'BBox'
p1670
a(lp1671
I180
aI180
aaI-1
aI1
aS'FormType'
p1672
a(lp1673
I213
aI213
aaI-1
aI1
aS'Font'
p1674
a(lp1675
I183
aI212
aaI1
aS'Name'
p1676
a(lp1677
I183
aI212
aaI1
aS'LastChar'
p1678
a(lp1679
I205
aI205
aaI-1
aI1
aS'Name'
p1680
a(lp1681
I206
aI206
aaI-1
aI1
aS'Encoding'
p1682
a(lp1683
I185
aI188
aaI1
aS'BaseEncoding'
p1684
a(lp1685
I186
aI186
aaI-1
aI1
aS'Differences'
p1686
a(lp1687
I187
aI187
aaI-1
aI1
aS'Type'
p1688
a(lp1689
I188
aI188
aaI-2
aI1
aS'BaseFont'
p1690
a(lp1691
I184
aI184
aaI-1
aI1
aS'Widths'
p1692
a(lp1693
I212
aI212
aaI-1
aI1
aS'Subtype'
p1694
a(lp1695
I207
aI207
aaI-1
aI1
aS'ToUnicode'
p1696
a(lp1697
I208
aI210
aaI1
aS'Filter'
p1698
a(lp1699
I209
aI209
aaI-1
aI1
aS'Length'
p1700
a(lp1701
I210
aI210
aaI-2
aI1
aS'FontDescriptor'
p1702
a(lp1703
I190
aI204
aaI1
aS'FontName'
p1704
a(lp1705
I197
aI197
aaI-1
aI1
aS'Descent'
p1706
a(lp1707
I193
aI193
aaI-1
aI1
aS'FontBBox'
p1708
a(lp1709
I195
aI195
aaI-1
aI1
aS'FontFamily'
p1710
a(lp1711
I196
aI196
aaI-1
aI1
aS'CapHeight'
p1712
a(lp1713
I192
aI192
aaI-1
aI1
aS'Ascent'
p1714
a(lp1715
I191
aI191
aaI-1
aI1
aS'StemH'
p1716
a(lp1717
I201
aI201
aaI-1
aI1
aS'FontWeight'
p1718
a(lp1719
I199
aI199
aaI-1
aI1
aS'StemV'
p1720
a(lp1721
I202
aI202
aaI-1
aI1
aS'Flags'
p1722
a(lp1723
I194
aI194
aaI-1
aI1
aS'XHeight'
p1724
a(lp1725
I204
aI204
aaI-1
aI1
aS'ItalicAngle'
p1726
a(lp1727
I200
aI200
aaI-1
aI1
aS'Type'
p1728
a(lp1729
I203
aI203
aaI-1
aI1
aS'FontStretch'
p1730
a(lp1731
I198
aI198
aaI-2
aI1
aS'Type'
p1732
a(lp1733
I211
aI211
aaI-1
aI1
aS'FirstChar'
p1734
a(lp1735
I189
aI189
aaI-3
aI1
aS'Type'
p1736
a(lp1737
I221
aI221
aaI-1
aI1
aS'Resources'
p1738
a(lp1739
I218
aI219
aaI1
aS'Font'
p1740
a(lp1741
I218
aI218
aaI1
aS'Name'
p1742
a(lp1743
I218
aI218
aaI-2
aI1
aS'ProcSet'
p1744
a(lp1745
I219
aI219
aaI-5
aI1
ag205
a(lp1746
I313
aI313
aaI-1
aI1
ag98
a(lp1747
I317
aI317
aaI-1
aI1
ag216
a(lp1748
I316
aI316
aaI-1
aI1
ag218
a(lp1749
I322
aI322
aaI-1
aI1
ag252
a(lp1750
I418
aI418
aaI-1
aI1
ag31
a(lp1751
I337
aI417
aaI1
aS'Rotate'
p1752
a(lp1753
I414
aI414
aaI-1
aI1
aS'StructParents'
p1754
a(lp1755
I415
aI415
aaI-1
aI1
aS'Tabs'
p1756
a(lp1757
I416
aI416
aaI-1
aI1
aS'MediaBox'
p1758
a(lp1759
I356
aI356
aaI-1
aI1
aS'Annots'
p1760
a(lp1761
I338
aI351
aaI1
ag35
a(lp1762
I339
aI341
aaI1
ag100
a(lp1763
I340
aI340
aaI-1
aI1
aS'URI'
p1764
a(lp1765
I341
aI341
aaI-2
aI1
ag210
a(lp1766
I346
aI346
aaI-1
aI1
ag216
a(lp1767
I347
aI347
aaI-1
aI1
ag218
a(lp1768
I348
aI348
aaI-1
aI1
aS'Subtype'
p1769
a(lp1770
I350
aI350
aaI-1
aI1
aS'Border'
p1771
a(lp1772
I345
aI345
aaI-1
aI1
aS'BS'
p1773
a(lp1774
I342
aI344
aaI1
ag100
a(lp1775
I342
aI342
aaI-1
aI1
aS'Type'
p1776
a(lp1777
I343
aI343
aaI-1
aI1
ag59
a(lp1778
I344
aI344
aaI-2
aI1
aS'Type'
p1779
a(lp1780
I351
aI351
aaI-1
aI1
aS'Rect'
p1781
a(lp1782
I349
aI349
aaI-2
aI1
aS'CropBox'
p1783
a(lp1784
I355
aI355
aaI-1
aI1
aS'Resources'
p1785
a(lp1786
I357
aI413
aaI1
aS'ExtGState'
p1787
a(lp1788
I362
aI371
aaI1
aS'Name'
p1789
a(lp1790
I362
aI371
aaI1
aS'UCR2'
p1791
a(lp1792
I370
aI370
aaI-1
aI1
aS'HT'
p1793
a(lp1794
I364
aI364
aaI-1
aI1
aS'BG2'
p1795
a(lp1796
I363
aI363
aaI-1
aI1
aS'SM'
p1797
a(lp1798
I368
aI368
aaI-1
aI1
aS'OPM'
p1799
a(lp1800
I366
aI366
aaI-1
aI1
aS'SA'
p1801
a(lp1802
I367
aI367
aaI-1
aI1
aS'OP'
p1803
a(lp1804
I365
aI365
aaI-1
aI1
aS'Type'
p1805
a(lp1806
I369
aI369
aaI-1
aI1
aS'op'
p1807
a(lp1808
I371
aI371
aaI-3
aI1
aS'ColorSpace'
p1809
a(lp1810
I358
aI361
aaI1
aS'Name'
p1811
a(lp1812
I358
aI361
aaI1
aS'WhitePoint'
p1813
a(lp1814
I361
aI361
aaI-1
aI1
aS'Matrix'
p1815
a(lp1816
I360
aI360
aaI-1
aI1
aS'Gamma'
p1817
a(lp1818
I359
aI359
aaI-3
aI1
aS'Font'
p1819
a(lp1820
I372
aI412
aaI1
aS'Name'
p1821
a(lp1822
I372
aI412
aaI1
aS'LastChar'
p1823
a(lp1824
I405
aI405
aaI-1
aI1
aS'Name'
p1825
a(lp1826
I406
aI406
aaI-1
aI1
aS'Encoding'
p1827
a(lp1828
I374
aI377
aaI1
aS'BaseEncoding'
p1829
a(lp1830
I375
aI375
aaI-1
aI1
aS'Differences'
p1831
a(lp1832
I376
aI376
aaI-1
aI1
aS'Type'
p1833
a(lp1834
I377
aI377
aaI-2
aI1
aS'BaseFont'
p1835
a(lp1836
I373
aI373
aaI-1
aI1
aS'Widths'
p1837
a(lp1838
I412
aI412
aaI-1
aI1
aS'Subtype'
p1839
a(lp1840
I407
aI407
aaI-1
aI1
aS'ToUnicode'
p1841
a(lp1842
I408
aI410
aaI1
aS'Filter'
p1843
a(lp1844
I409
aI409
aaI-1
aI1
aS'Length'
p1845
a(lp1846
I410
aI410
aaI-2
aI1
aS'FontDescriptor'
p1847
a(lp1848
I379
aI404
aaI1
aS'FontFile'
p1849
a(lp1850
I387
aI391
aaI1
aS'Length3'
p1851
a(lp1852
I391
aI391
aaI-1
aI1
aS'Length2'
p1853
a(lp1854
I390
aI390
aaI-1
aI1
aS'Length'
p1855
a(lp1856
I388
aI388
aaI-1
aI1
aS'Length1'
p1857
a(lp1858
I389
aI389
aaI-2
aI1
aS'FontName'
p1859
a(lp1860
I396
aI396
aaI-1
aI1
aS'Descent'
p1861
a(lp1862
I384
aI384
aaI-1
aI1
aS'FontBBox'
p1863
a(lp1864
I386
aI386
aaI-1
aI1
aS'FontFile3'
p1865
a(lp1866
I392
aI395
aaI1
aS'Filter'
p1867
a(lp1868
I393
aI393
aaI-1
aI1
aS'Subtype'
p1869
a(lp1870
I395
aI395
aaI-1
aI1
aS'Length'
p1871
a(lp1872
I394
aI394
aaI-2
aI1
aS'CapHeight'
p1873
a(lp1874
I382
aI382
aaI-1
aI1
aS'Leading'
p1875
a(lp1876
I398
aI398
aaI-1
aI1
aS'CharSet'
p1877
a(lp1878
I383
aI383
aaI-1
aI1
aS'StemH'
p1879
a(lp1880
I401
aI401
aaI-1
aI1
aS'Ascent'
p1881
a(lp1882
I380
aI380
aaI-1
aI1
aS'MaxWidth'
p1883
a(lp1884
I399
aI399
aaI-1
aI1
aS'StemV'
p1885
a(lp1886
I402
aI402
aaI-1
aI1
aS'AvgWidth'
p1887
a(lp1888
I381
aI381
aaI-1
aI1
aS'XHeight'
p1889
a(lp1890
I404
aI404
aaI-1
aI1
aS'MissingWidth'
p1891
a(lp1892
I400
aI400
aaI-1
aI1
aS'Flags'
p1893
a(lp1894
I385
aI385
aaI-1
aI1
aS'ItalicAngle'
p1895
a(lp1896
I397
aI397
aaI-1
aI1
aS'Type'
p1897
a(lp1898
I403
aI403
aaI-2
aI1
aS'Type'
p1899
a(lp1900
I411
aI411
aaI-1
aI1
aS'FirstChar'
p1901
a(lp1902
I378
aI378
aaI-3
aI1
aS'ProcSet'
p1903
a(lp1904
I413
aI413
aaI-2
aI1
aS'Type'
p1905
a(lp1906
I417
aI417
aaI-1
aI1
aS'Contents'
p1907
a(lp1908
I352
aI354
aaI1
aS'Filter'
p1909
a(lp1910
I353
aI353
aaI-1
aI1
aS'Length'
p1911
a(lp1912
I354
aI354
aaI-3
aI1
aS'AS'
p1913
a(lp1914
I295
aI295
aaI-1
aI1
ag91
a(lp1915
I422
aI422
aaI-1
aI1
ag71
a(lp1916
I425
aI443
aaI1
aS'Name'
p1917
a(lp1918
I430
aI430
aaI-1
aI1
aS'Prop_Build'
p1919
a(lp1920
I431
aI441
aaI1
aS'Filter'
p1921
a(lp1922
I436
aI438
aaI1
aS'Date'
p1923
a(lp1924
I436
aI436
aaI-1
aI1
ag54
a(lp1925
I438
aI438
aaI-1
aI1
aS'Name'
p1926
a(lp1927
I437
aI437
aaI-2
aI1
aS'App'
p1928
a(lp1929
I431
aI435
aaI1
aS'REx'
p1930
a(lp1931
I434
aI434
aaI-1
aI1
ag54
a(lp1932
I433
aI433
aaI-1
aI1
aS'OS'
p1933
a(lp1934
I432
aI432
aaI-1
aI1
aS'Name'
p1935
a(lp1936
I431
aI431
aaI-1
aI1
aS'TrustedMode'
p1937
a(lp1938
I435
aI435
aaI-2
aI1
aS'PubSec'
p1939
a(lp1940
I439
aI441
aaI1
aS'Date'
p1941
a(lp1942
I439
aI439
aaI-1
aI1
aS'NonEFontNoWarn'
p1943
a(lp1944
I440
aI440
aaI-1
aI1
ag54
a(lp1945
I441
aI441
aaI-3
aI1
ag218
a(lp1946
I429
aI429
aaI-1
aI1
aS'Filter'
p1947
a(lp1948
I428
aI428
aaI-1
aI1
aS'ByteRange'
p1949
a(lp1950
I426
aI426
aaI-1
aI1
aS'Type'
p1951
a(lp1952
I443
aI443
aaI-1
aI1
aS'SubFilter'
p1953
a(lp1954
I442
aI442
aaI-1
aI1
aS'Contents'
p1955
a(lp1956
I427
aI427
aaI-2
aI1
aS'Subtype'
p1957
a(lp1958
I421
aI421
aaI-1
aI1
aS'Lock'
p1959
a(lp1960
I318
aI321
aaI1
aS'Action'
p1961
a(lp1962
I319
aI319
aaI-1
aI1
aS'Fields'
p1963
a(lp1964
I320
aI320
aaI-1
aI1
aS'Type'
p1965
a(lp1966
I321
aI321
aaI-2
aI1
aS'MK'
p1967
a(lp1968
I323
aI332
aaI1
aS'AC'
p1969
a(lp1970
I324
aI324
aaI-1
aI1
aS'BG'
p1971
a(lp1972
I326
aI326
aaI-1
aI1
aS'BC'
p1973
a(lp1974
I325
aI325
aaI-1
aI1
aS'CA'
p1975
a(lp1976
I327
aI327
aaI-1
aI1
aS'TP'
p1977
a(lp1978
I332
aI332
aaI-1
aI1
ag54
a(lp1979
I330
aI330
aaI-1
aI1
aS'RC'
p1980
a(lp1981
I331
aI331
aaI-1
aI1
aS'IF'
p1982
a(lp1983
I328
aI329
aaI1
ag35
a(lp1984
I329
aI329
aaI-3
aI1
aS'MaxLen'
p1985
a(lp1986
I333
aI333
aaI-1
aI1
aS'Border'
p1987
a(lp1988
I298
aI298
aaI-2
aI1
aS'DR'
p1989
a(lp1990
I39
aI128
aaI1
aS'XObject'
p1991
a(lp1992
I121
aI128
aaI1
aS'Name'
p1993
a(lp1994
I121
aI128
aaI1
aS'Matrix'
p1995
a(lp1996
I125
aI125
aaI-1
aI1
aS'Subtype'
p1997
a(lp1998
I127
aI127
aaI-1
aI1
aS'Length'
p1999
a(lp2000
I124
aI124
aaI-1
aI1
aS'BBox'
p2001
a(lp2002
I122
aI122
aaI-1
aI1
aS'FormType'
p2003
a(lp2004
I123
aI123
aaI-1
aI1
aS'Type'
p2005
a(lp2006
I128
aI128
aaI-1
aI1
aS'Resources'
p2007
a(lp2008
I126
aI126
aaI1
aS'ProcSet'
p2009
a(lp2010
I126
aI126
aaI-4
aI1
aS'Font'
p2011
a(lp2012
I44
aI119
aaI1
aS'Name'
p2013
a(lp2014
I45
aI119
aaI1
aS'LastChar'
p2015
a(lp2016
I112
aI112
aaI-1
aI1
aS'Name'
p2017
a(lp2018
I113
aI113
aaI-1
aI1
aS'Encoding'
p2019
a(lp2020
I77
aI80
aaI1
aS'BaseEncoding'
p2021
a(lp2022
I78
aI78
aaI-1
aI1
aS'Differences'
p2023
a(lp2024
I79
aI79
aaI-1
aI1
aS'Type'
p2025
a(lp2026
I80
aI80
aaI-2
aI1
aS'BaseFont'
p2027
a(lp2028
I46
aI46
aaI-1
aI1
aS'Widths'
p2029
a(lp2030
I119
aI119
aaI-1
aI1
aS'DescendantFonts'
p2031
a(lp2032
I47
aI76
aaI1
aS'CIDToGIDMap'
p2033
a(lp2034
I52
aI52
aaI-1
aI1
ag59
a(lp2035
I76
aI76
aaI-1
aI1
aS'BaseFont'
p2036
a(lp2037
I48
aI48
aaI-1
aI1
aS'CIDSystemInfo'
p2038
a(lp2039
I49
aI51
aaI1
aS'Ordering'
p2040
a(lp2041
I49
aI49
aaI-1
aI1
aS'Supplement'
p2042
a(lp2043
I51
aI51
aaI-1
aI1
aS'Registry'
p2044
a(lp2045
I50
aI50
aaI-2
aI1
aS'Subtype'
p2046
a(lp2047
I74
aI74
aaI-1
aI1
aS'FontDescriptor'
p2048
a(lp2049
I54
aI73
aaI1
aS'FontFile2'
p2050
a(lp2051
I61
aI64
aaI1
aS'Filter'
p2052
a(lp2053
I62
aI62
aaI-1
aI1
aS'Length'
p2054
a(lp2055
I63
aI63
aaI-1
aI1
aS'Length1'
p2056
a(lp2057
I64
aI64
aaI-2
aI1
aS'FontName'
p2058
a(lp2059
I65
aI65
aaI-1
aI1
aS'Descent'
p2060
a(lp2061
I58
aI58
aaI-1
aI1
aS'FontBBox'
p2062
a(lp2063
I60
aI60
aaI-1
aI1
aS'CapHeight'
p2064
a(lp2065
I57
aI57
aaI-1
aI1
aS'Leading'
p2066
a(lp2067
I67
aI67
aaI-1
aI1
aS'MaxWidth'
p2068
a(lp2069
I68
aI68
aaI-1
aI1
aS'StemH'
p2070
a(lp2071
I70
aI70
aaI-1
aI1
aS'Ascent'
p2072
a(lp2073
I55
aI55
aaI-1
aI1
aS'StemV'
p2074
a(lp2075
I71
aI71
aaI-1
aI1
aS'AvgWidth'
p2076
a(lp2077
I56
aI56
aaI-1
aI1
aS'XHeight'
p2078
a(lp2079
I73
aI73
aaI-1
aI1
aS'MissingWidth'
p2080
a(lp2081
I69
aI69
aaI-1
aI1
aS'Flags'
p2082
a(lp2083
I59
aI59
aaI-1
aI1
aS'ItalicAngle'
p2084
a(lp2085
I66
aI66
aaI-1
aI1
aS'Type'
p2086
a(lp2087
I72
aI72
aaI-2
aI1
aS'DW'
p2088
a(lp2089
I53
aI53
aaI-1
aI1
aS'Type'
p2090
a(lp2091
I75
aI75
aaI-2
aI1
aS'Subtype'
p2092
a(lp2093
I114
aI114
aaI-1
aI1
aS'ToUnicode'
p2094
a(lp2095
I115
aI117
aaI1
aS'Filter'
p2096
a(lp2097
I116
aI116
aaI-1
aI1
aS'Length'
p2098
a(lp2099
I117
aI117
aaI-2
aI1
aS'FontDescriptor'
p2100
a(lp2101
I82
aI111
aaI1
aS'FontFile2'
p2102
a(lp2103
I96
aI99
aaI1
aS'Filter'
p2104
a(lp2105
I97
aI97
aaI-1
aI1
aS'Length'
p2106
a(lp2107
I98
aI98
aaI-1
aI1
aS'Length1'
p2108
a(lp2109
I99
aI99
aaI-2
aI1
aS'FontFile'
p2110
a(lp2111
I90
aI95
aaI1
aS'Filter'
p2112
a(lp2113
I91
aI91
aaI-1
aI1
aS'Length2'
p2114
a(lp2115
I94
aI94
aaI-1
aI1
aS'Length'
p2116
a(lp2117
I92
aI92
aaI-1
aI1
aS'Length3'
p2118
a(lp2119
I95
aI95
aaI-1
aI1
aS'Length1'
p2120
a(lp2121
I93
aI93
aaI-2
aI1
aS'FontName'
p2122
a(lp2123
I104
aI104
aaI-1
aI1
aS'Descent'
p2124
a(lp2125
I86
aI86
aaI-1
aI1
aS'FontBBox'
p2126
a(lp2127
I88
aI88
aaI-1
aI1
aS'FontFile3'
p2128
a(lp2129
I100
aI103
aaI1
aS'Filter'
p2130
a(lp2131
I101
aI101
aaI-1
aI1
aS'Subtype'
p2132
a(lp2133
I103
aI103
aaI-1
aI1
aS'Length'
p2134
a(lp2135
I102
aI102
aaI-2
aI1
aS'CapHeight'
p2136
a(lp2137
I84
aI84
aaI-1
aI1
aS'Ascent'
p2138
a(lp2139
I83
aI83
aaI-1
aI1
aS'CharSet'
p2140
a(lp2141
I85
aI85
aaI-1
aI1
aS'StemH'
p2142
a(lp2143
I108
aI108
aaI-1
aI1
aS'FontStretch'
p2144
a(lp2145
I105
aI105
aaI-1
aI1
aS'FontWeight'
p2146
a(lp2147
I106
aI106
aaI-1
aI1
aS'StemV'
p2148
a(lp2149
I109
aI109
aaI-1
aI1
aS'Flags'
p2150
a(lp2151
I87
aI87
aaI-1
aI1
aS'XHeight'
p2152
a(lp2153
I111
aI111
aaI-1
aI1
aS'ItalicAngle'
p2154
a(lp2155
I107
aI107
aaI-1
aI1
aS'Type'
p2156
a(lp2157
I110
aI110
aaI-1
aI1
aS'FontFamily'
p2158
a(lp2159
I89
aI89
aaI-2
aI1
aS'Type'
p2160
a(lp2161
I118
aI118
aaI-1
aI1
aS'FirstChar'
p2162
a(lp2163
I81
aI81
aaI-3
aI1
aS'Encoding'
p2164
a(lp2165
I40
aI43
aaI1
aS'PDFDocEncoding'
p2166
a(lp2167
I41
aI43
aaI1
aS'Differences'
p2168
a(lp2169
I42
aI42
aaI-1
aI1
aS'Type'
p2170
a(lp2171
I43
aI43
aaI-3
aI1
aS'ProcSet'
p2172
a(lp2173
I120
aI120
aaI-2
aI1
aS'DA'
p2174
a(lp2175
I38
aI38
aaI-1
aI1
aS'SigFlags'
p2176
a(lp2177
I445
aI445
aaI-2
aI1
aS'Type'
p2178
a(lp2179
I3492
aI3492
aaI-1
aI1
aS'L'
p2180
a(lp2181
I495
aI495
aaI-1
aI1
aS'Metadata'
p2182
a(lp2183
I502
aI505
aaI1
aS'Subtype'
p2184
a(lp2185
I504
aI504
aaI-1
aI1
aS'Length'
p2186
a(lp2187
I503
aI503
aaI-1
aI1
aS'Type'
p2188
a(lp2189
I505
aI505
aaI-2
aI1
aS'DefaultRGB'
p2190
a(lp2191
I460
aI463
aaI1
aS'WhitePoint'
p2192
a(lp2193
I463
aI463
aaI-1
aI1
aS'Matrix'
p2194
a(lp2195
I462
aI462
aaI-1
aI1
aS'Gamma'
p2196
a(lp2197
I461
aI461
aaI-2
aI1
aS'SpiderInfo'
p2198
a(lp2199
I2904
aI2920
aaI1
ag210
a(lp2200
I2905
aI2919
aaI1
aS'URL'
p2201
a(lp2202
I2919
aI2919
aaI-1
aI1
ag216
a(lp2203
I2906
aI2906
aaI-1
aI1
ag100
a(lp2204
I2907
aI2918
aaI1
aS'G'
p2205
a(lp2206
I2908
aI2918
aaI1
aS'AS'
p2207
a(lp2208
I2911
aI2911
aaI-1
aI1
aS'PS'
p2209
a(lp2210
I2916
aI2916
aaI-1
aI1
aS'AH'
p2211
a(lp2212
I2909
aI2909
aaI-1
aI1
ag218
a(lp2213
I2914
aI2914
aaI-1
aI1
aS'AL'
p2214
a(lp2215
I2910
aI2910
aaI-1
aI1
aS'SU'
p2216
a(lp2217
I2918
aI2918
aaI-1
aI1
ag100
a(lp2218
I2917
aI2917
aaI-1
aI1
aS'AT'
p2219
a(lp2220
I2912
aI2912
aaI-1
aI1
aS'CB'
p2221
a(lp2222
I2913
aI2913
aaI-1
aI1
aS'PO'
p2223
a(lp2224
I2915
aI2915
aaI-4
aI1
ag71
a(lp2225
I2920
aI2920
aaI-2
aI1
aS'OutputIntents'
p2226
a(lp2227
I1532
aI1540
aaI1
aS'Info'
p2228
a(lp2229
I1536
aI1536
aaI-1
aI1
aS'RegistryName'
p2230
a(lp2231
I1538
aI1538
aaI-1
aI1
ag100
a(lp2232
I1539
aI1539
aaI-1
aI1
aS'Type'
p2233
a(lp2234
I1540
aI1540
aaI-1
aI1
aS'OutputConditionIdentifier'
p2235
a(lp2236
I1537
aI1537
aaI-1
aI1
aS'DestOutputProfile'
p2237
a(lp2238
I1532
aI1535
aaI1
aS'Filter'
p2239
a(lp2240
I1533
aI1533
aaI-1
aI1
aS'Length'
p2241
a(lp2242
I1534
aI1534
aaI-1
aI1
ag88
a(lp2243
I1535
aI1535
aaI-3
aI1
aS'NeedsRendering'
p2244
a(lp2245
I648
aI648
aaI-1
aI1
aS'Threads'
p2246
a(lp2247
I3484
aI3491
aaI1
aS'FP'
p2248
a(lp2249
I3486
aI3486
aaI-1
aI1
ag98
a(lp2250
I3491
aI3491
aaI1
aS'Title'
p2251
a(lp2252
I3491
aI3491
aaI-2
aI1
aS'FR'
p2253
a(lp2254
I3489
aI3489
aaI-1
aI1
aS'FT'
p2255
a(lp2256
I3490
aI3490
aaI-1
aI1
ag205
a(lp2257
I3487
aI3487
aaI1
aS' 1'
p2258
a(lp2259
I3487
aI3487
aaI-3
aI1
aS'ViewerPreferences'
p2260
a(lp2261
I3496
aI3509
aaI1
aS'Direction'
p2262
a(lp2263
I3498
aI3498
aaI-1
aI1
aS'Rights'
p2264
a(lp2265
I3504
aI3509
aaI1
aS'TimeOfUbiquitization'
p2266
a(lp2267
I3508
aI3508
aaI-1
aI1
aS'Form'
p2268
a(lp2269
I3505
aI3505
aaI-1
aI1
aS'RightsID'
p2270
a(lp2271
I3507
aI3507
aaI-1
aI1
aS'Version'
p2272
a(lp2273
I3509
aI3509
aaI-1
aI1
aS'Msg'
p2274
a(lp2275
I3506
aI3506
aaI-1
aI1
aS'Document'
p2276
a(lp2277
I3504
aI3504
aaI-2
aI1
aS'FitWindow'
p2278
a(lp2279
I3499
aI3499
aaI-1
aI1
aS'PageDirection'
p2280
a(lp2281
I3503
aI3503
aaI-1
aI1
aS'HideToolbar'
p2282
a(lp2283
I3501
aI3501
aaI-1
aI1
aS'HideMenubar'
p2284
a(lp2285
I3500
aI3500
aaI-1
aI1
aS'<nn>'
p2286
a(lp2287
I3497
aI3497
aaI-1
aI1
aS'HideWindowUI'
p2288
a(lp2289
I3502
aI3502
aaI-2
aI1
aS'DefaultGray'
p2290
a(lp2291
I457
aI459
aaI1
aS'WhitePoint'
p2292
a(lp2293
I459
aI459
aaI-1
aI1
aS'Gamma'
p2294
a(lp2295
I458
aI458
aaI-2
aI1
aS'Lang'
p2296
a(lp2297
I496
aI496
aaI-1
aI1
aS'Outlines'
p2298
a(lp2299
I1264
aI1531
aaI1
ag35
a(lp2300
I1265
aI1321
aaI1
ag100
a(lp2301
I1320
aI1320
aaI-1
aI1
ag45
a(lp2302
I1266
aI1319
aaI1
aS'Rotate'
p2303
a(lp2304
I1318
aI1318
aaI-1
aI1
aS'MediaBox'
p2305
a(lp2306
I1283
aI1283
aaI-1
aI1
aS'Annots'
p2307
a(lp2308
I1267
aI1278
aaI1
ag35
a(lp2309
I1268
aI1270
aaI1
ag100
a(lp2310
I1270
aI1270
aaI-1
aI1
ag45
a(lp2311
I1269
aI1269
aaI-2
aI1
ag216
a(lp2312
I1275
aI1275
aaI-1
aI1
aS'Subtype'
p2313
a(lp2314
I1277
aI1277
aaI-1
aI1
aS'Border'
p2315
a(lp2316
I1274
aI1274
aaI-1
aI1
aS'BS'
p2317
a(lp2318
I1271
aI1273
aaI1
ag100
a(lp2319
I1271
aI1271
aaI-1
aI1
aS'Type'
p2320
a(lp2321
I1272
aI1272
aaI-1
aI1
ag59
a(lp2322
I1273
aI1273
aaI-2
aI1
aS'Type'
p2323
a(lp2324
I1278
aI1278
aaI-1
aI1
aS'Rect'
p2325
a(lp2326
I1276
aI1276
aaI-2
aI1
aS'CropBox'
p2327
a(lp2328
I1282
aI1282
aaI-1
aI1
aS'Resources'
p2329
a(lp2330
I1284
aI1317
aaI1
aS'ExtGState'
p2331
a(lp2332
I1285
aI1289
aaI1
aS'Name'
p2333
a(lp2334
I1285
aI1289
aaI1
aS'SA'
p2335
a(lp2336
I1288
aI1288
aaI-1
aI1
aS'Type'
p2337
a(lp2338
I1289
aI1289
aaI-1
aI1
aS'HT'
p2339
a(lp2340
I1286
aI1286
aaI-1
aI1
aS'OP'
p2341
a(lp2342
I1287
aI1287
aaI-3
aI1
aS'Font'
p2343
a(lp2344
I1290
aI1316
aaI1
aS'Name'
p2345
a(lp2346
I1290
aI1316
aaI1
aS'LastChar'
p2347
a(lp2348
I1312
aI1312
aaI-1
aI1
aS'Name'
p2349
a(lp2350
I1313
aI1313
aaI-1
aI1
aS'Encoding'
p2351
a(lp2352
I1292
aI1294
aaI1
aS'Differences'
p2353
a(lp2354
I1293
aI1293
aaI-1
aI1
aS'Type'
p2355
a(lp2356
I1294
aI1294
aaI-2
aI1
aS'BaseFont'
p2357
a(lp2358
I1291
aI1291
aaI-1
aI1
aS'Widths'
p2359
a(lp2360
I1316
aI1316
aaI-1
aI1
aS'Subtype'
p2361
a(lp2362
I1314
aI1314
aaI-1
aI1
aS'FontDescriptor'
p2363
a(lp2364
I1296
aI1311
aaI1
aS'FontName'
p2365
a(lp2366
I1303
aI1303
aaI-1
aI1
aS'Descent'
p2367
a(lp2368
I1300
aI1300
aaI-1
aI1
aS'MaxWidth'
p2369
a(lp2370
I1306
aI1306
aaI-1
aI1
aS'CapHeight'
p2371
a(lp2372
I1299
aI1299
aaI-1
aI1
aS'Leading'
p2373
a(lp2374
I1305
aI1305
aaI-1
aI1
aS'StemH'
p2375
a(lp2376
I1308
aI1308
aaI-1
aI1
aS'Ascent'
p2377
a(lp2378
I1297
aI1297
aaI-1
aI1
aS'StemV'
p2379
a(lp2380
I1309
aI1309
aaI-1
aI1
aS'AvgWidth'
p2381
a(lp2382
I1298
aI1298
aaI-1
aI1
aS'XHeight'
p2383
a(lp2384
I1311
aI1311
aaI-1
aI1
aS'MissingWidth'
p2385
a(lp2386
I1307
aI1307
aaI-1
aI1
aS'Flags'
p2387
a(lp2388
I1301
aI1301
aaI-1
aI1
aS'FontBBox'
p2389
a(lp2390
I1302
aI1302
aaI-1
aI1
aS'Type'
p2391
a(lp2392
I1310
aI1310
aaI-1
aI1
aS'ItalicAngle'
p2393
a(lp2394
I1304
aI1304
aaI-2
aI1
aS'Type'
p2395
a(lp2396
I1315
aI1315
aaI-1
aI1
aS'FirstChar'
p2397
a(lp2398
I1295
aI1295
aaI-3
aI1
aS'ProcSet'
p2399
a(lp2400
I1317
aI1317
aaI-2
aI1
aS'Type'
p2401
a(lp2402
I1319
aI1319
aaI-1
aI1
aS'Contents'
p2403
a(lp2404
I1279
aI1281
aaI1
aS'Filter'
p2405
a(lp2406
I1280
aI1280
aaI-1
aI1
aS'Length'
p2407
a(lp2408
I1281
aI1281
aaI-3
aI1
aS'URI'
p2409
a(lp2410
I1321
aI1321
aaI-2
aI1
aS'Count'
p2411
a(lp2412
I1323
aI1323
aaI-1
aI1
ag210
a(lp2413
I1322
aI1322
aaI-1
aI1
aS'Title'
p2414
a(lp2415
I1530
aI1530
aaI-1
aI1
aS'Dest'
p2416
a(lp2417
I1324
aI1519
aaI1
aS'BleedBox'
p2418
a(lp2419
I1335
aI1335
aaI-1
aI1
aS'E'
p2420
a(lp2421
I1340
aI1340
aaI-1
aI1
aS'Thumb'
p2422
a(lp2423
I1509
aI1517
aaI1
aS'ColorSpace'
p2424
a(lp2425
I1511
aI1513
aaI1
aS'Filter'
p2426
a(lp2427
I1512
aI1512
aaI-1
aI1
aS'Length'
p2428
a(lp2429
I1513
aI1513
aaI-2
aI1
aS'Height'
p2430
a(lp2431
I1515
aI1515
aaI-1
aI1
aS'Filter'
p2432
a(lp2433
I1514
aI1514
aaI-1
aI1
aS'Width'
p2434
a(lp2435
I1517
aI1517
aaI-1
aI1
aS'Length'
p2436
a(lp2437
I1516
aI1516
aaI-1
aI1
aS'BitsPerComponent'
p2438
a(lp2439
I1510
aI1510
aaI-2
aI1
aS'MediaBox'
p2440
a(lp2441
I1345
aI1345
aaI-1
aI1
aS'LastModified'
p2442
a(lp2443
I1343
aI1343
aaI-1
aI1
aS'StructParents'
p2444
a(lp2445
I1508
aI1508
aaI-1
aI1
aS'Annots'
p2446
a(lp2447
I1325
aI1334
aaI1
ag35
a(lp2448
I1326
aI1328
aaI1
ag100
a(lp2449
I1327
aI1327
aaI-1
aI1
aS'URI'
p2450
a(lp2451
I1328
aI1328
aaI-2
aI1
ag210
a(lp2452
I1330
aI1330
aaI-1
aI1
aS'Dest'
p2453
a(lp2454
I1331
aI1331
aaI-1
aI1
aS'Border'
p2455
a(lp2456
I1329
aI1329
aaI-1
aI1
aS'Subtype'
p2457
a(lp2458
I1333
aI1333
aaI-1
aI1
aS'Type'
p2459
a(lp2460
I1334
aI1334
aaI-1
aI1
aS'Rect'
p2461
a(lp2462
I1332
aI1332
aaI-2
aI1
aS'CropBox'
p2463
a(lp2464
I1339
aI1339
aaI-1
aI1
aS'Filter'
p2465
a(lp2466
I1341
aI1341
aaI-1
aI1
aS'Contents'
p2467
a(lp2468
I1336
aI1338
aaI1
aS'Filter'
p2469
a(lp2470
I1337
aI1337
aaI-1
aI1
aS'Length'
p2471
a(lp2472
I1338
aI1338
aaI-2
aI1
ag100
a(lp2473
I1507
aI1507
aaI-1
aI1
aS'Rotate'
p2474
a(lp2475
I1506
aI1506
aaI-1
aI1
aS'Length'
p2476
a(lp2477
I1344
aI1344
aaI-1
aI1
ag105
a(lp2478
I1346
aI1346
aaI-1
aI1
ag71
a(lp2479
I1519
aI1519
aaI-1
aI1
aS'Type'
p2480
a(lp2481
I1518
aI1518
aaI-1
aI1
aS'Id'
p2482
a(lp2483
I1342
aI1342
aaI-1
aI1
aS'Resources'
p2484
a(lp2485
I1347
aI1505
aaI1
aS'XObject'
p2486
a(lp2487
I1454
aI1505
aaI1
aS'Name'
p2488
a(lp2489
I1454
aI1505
aaI1
aS'DecodeParms'
p2490
a(lp2491
I1458
aI1459
aaI1
ag447
a(lp2492
I1459
aI1459
aaI-1
aI1
aS'Columns'
p2493
a(lp2494
I1458
aI1458
aaI-2
aI1
aS'Matrix'
p2495
a(lp2496
I1465
aI1465
aaI-1
aI1
aS'Subtype'
p2497
a(lp2498
I1503
aI1503
aaI-1
aI1
aS'ColorSpace'
p2499
a(lp2500
I1457
aI1457
aaI-1
aI1
aS'ImageMask'
p2501
a(lp2502
I1463
aI1463
aaI-1
aI1
aS'Height'
p2503
a(lp2504
I1462
aI1462
aaI-1
aI1
aS'Filter'
p2505
a(lp2506
I1460
aI1460
aaI-1
aI1
aS'Width'
p2507
a(lp2508
I1505
aI1505
aaI-1
aI1
aS'Length'
p2509
a(lp2510
I1464
aI1464
aaI-1
aI1
aS'BitsPerComponent'
p2511
a(lp2512
I1456
aI1456
aaI-1
aI1
aS'BBox'
p2513
a(lp2514
I1455
aI1455
aaI-1
aI1
aS'FormType'
p2515
a(lp2516
I1461
aI1461
aaI-1
aI1
aS'Type'
p2517
a(lp2518
I1504
aI1504
aaI-1
aI1
aS'Resources'
p2519
a(lp2520
I1467
aI1502
aaI1
aS'ExtGState'
p2521
a(lp2522
I1469
aI1469
aaI1
aS'Name'
p2523
a(lp2524
I1469
aI1469
aaI-2
aI1
aS'ColorSpace'
p2525
a(lp2526
I1468
aI1468
aaI1
aS'Name'
p2527
a(lp2528
I1468
aI1468
aaI-2
aI1
aS'Font'
p2529
a(lp2530
I1470
aI1494
aaI1
aS'Name'
p2531
a(lp2532
I1470
aI1494
aaI1
aS'LastChar'
p2533
a(lp2534
I1491
aI1491
aaI-1
aI1
aS'Encoding'
p2535
a(lp2536
I1472
aI1472
aaI-1
aI1
aS'BaseFont'
p2537
a(lp2538
I1471
aI1471
aaI-1
aI1
aS'Widths'
p2539
a(lp2540
I1494
aI1494
aaI-1
aI1
aS'Subtype'
p2541
a(lp2542
I1492
aI1492
aaI-1
aI1
aS'FontDescriptor'
p2543
a(lp2544
I1474
aI1490
aaI1
aS'FontFile3'
p2545
a(lp2546
I1481
aI1484
aaI1
aS'Filter'
p2547
a(lp2548
I1482
aI1482
aaI-1
aI1
aS'Subtype'
p2549
a(lp2550
I1484
aI1484
aaI-1
aI1
aS'Length'
p2551
a(lp2552
I1483
aI1483
aaI-2
aI1
aS'FontName'
p2553
a(lp2554
I1485
aI1485
aaI-1
aI1
aS'Descent'
p2555
a(lp2556
I1478
aI1478
aaI-1
aI1
aS'FontBBox'
p2557
a(lp2558
I1480
aI1480
aaI-1
aI1
aS'CapHeight'
p2559
a(lp2560
I1476
aI1476
aaI-1
aI1
aS'Ascent'
p2561
a(lp2562
I1475
aI1475
aaI-1
aI1
aS'CharSet'
p2563
a(lp2564
I1477
aI1477
aaI-1
aI1
aS'StemH'
p2565
a(lp2566
I1487
aI1487
aaI-1
aI1
aS'StemV'
p2567
a(lp2568
I1488
aI1488
aaI-1
aI1
aS'Flags'
p2569
a(lp2570
I1479
aI1479
aaI-1
aI1
aS'XHeight'
p2571
a(lp2572
I1490
aI1490
aaI-1
aI1
aS'ItalicAngle'
p2573
a(lp2574
I1486
aI1486
aaI-1
aI1
aS'Type'
p2575
a(lp2576
I1489
aI1489
aaI-2
aI1
aS'Type'
p2577
a(lp2578
I1493
aI1493
aaI-1
aI1
aS'FirstChar'
p2579
a(lp2580
I1473
aI1473
aaI-3
aI1
aS'Properties'
p2581
a(lp2582
I1496
aI1502
aaI1
aS'Name'
p2583
a(lp2584
I1496
aI1502
aaI1
aS'Title'
p2585
a(lp2586
I1501
aI1501
aaI-1
aI1
aS'Color'
p2587
a(lp2588
I1496
aI1496
aaI-1
aI1
aS'Editable'
p2589
a(lp2590
I1498
aI1498
aaI-1
aI1
aS'Dimmed'
p2591
a(lp2592
I1497
aI1497
aaI-1
aI1
aS'Visible'
p2593
a(lp2594
I1502
aI1502
aaI-1
aI1
aS'Printed'
p2595
a(lp2596
I1500
aI1500
aaI-1
aI1
aS'Preview'
p2597
a(lp2598
I1499
aI1499
aaI-3
aI1
aS'ProcSet'
p2599
a(lp2600
I1495
aI1495
aaI-2
aI1
aS'Name'
p2601
a(lp2602
I1466
aI1466
aaI-3
aI1
aS'ColorSpace'
p2603
a(lp2604
I1348
aI1361
aaI1
aS'Name'
p2605
a(lp2606
I1349
aI1361
aaI1
aS'Domain'
p2607
a(lp2608
I1353
aI1353
aaI-1
aI1
aS'Matrix'
p2609
a(lp2610
I1358
aI1358
aaI-1
aI1
aS'WhitePoint'
p2611
a(lp2612
I1361
aI1361
aaI-1
aI1
aS'Alternate'
p2613
a(lp2614
I1350
aI1350
aaI-1
aI1
aS'Length'
p2615
a(lp2616
I1357
aI1357
aaI-1
aI1
ag88
a(lp2617
I1359
aI1359
aaI-1
aI1
aS'Filter'
p2618
a(lp2619
I1354
aI1354
aaI-1
aI1
aS'Range'
p2620
a(lp2621
I1360
aI1360
aaI-1
aI1
aS'C1'
p2622
a(lp2623
I1352
aI1352
aaI-1
aI1
aS'C0'
p2624
a(lp2625
I1351
aI1351
aaI-1
aI1
aS'FunctionType'
p2626
a(lp2627
I1355
aI1355
aaI-1
aI1
aS'Gamma'
p2628
a(lp2629
I1356
aI1356
aaI-3
aI1
aS'ProcSet'
p2630
a(lp2631
I1443
aI1443
aaI-1
aI1
aS'ExtGState'
p2632
a(lp2633
I1362
aI1375
aaI1
aS'Name'
p2634
a(lp2635
I1363
aI1375
aaI1
aS'SMask'
p2636
a(lp2637
I1371
aI1371
aaI-1
aI1
aS'UCR2'
p2638
a(lp2639
I1374
aI1374
aaI-1
aI1
aS'BM'
p2640
a(lp2641
I1365
aI1365
aaI-1
aI1
aS'OP'
p2642
a(lp2643
I1367
aI1367
aaI-1
aI1
aS'BG2'
p2644
a(lp2645
I1364
aI1364
aaI-1
aI1
aS'HT2'
p2646
a(lp2647
I1366
aI1366
aaI-1
aI1
aS'SM'
p2648
a(lp2649
I1370
aI1370
aaI-1
aI1
aS'OPM'
p2650
a(lp2651
I1368
aI1368
aaI-1
aI1
aS'SA'
p2652
a(lp2653
I1369
aI1369
aaI-1
aI1
aS'TR2'
p2654
a(lp2655
I1372
aI1372
aaI-1
aI1
aS'Type'
p2656
a(lp2657
I1373
aI1373
aaI-1
aI1
aS'op'
p2658
a(lp2659
I1375
aI1375
aaI-3
aI1
aS'Font'
p2660
a(lp2661
I1376
aI1442
aaI1
aS'Name'
p2662
a(lp2663
I1376
aI1442
aaI1
aS'LastChar'
p2664
a(lp2665
I1435
aI1435
aaI-1
aI1
aS'Name'
p2666
a(lp2667
I1436
aI1436
aaI-1
aI1
aS'Encoding'
p2668
a(lp2669
I1401
aI1403
aaI1
aS'Differences'
p2670
a(lp2671
I1402
aI1402
aaI-1
aI1
aS'Type'
p2672
a(lp2673
I1403
aI1403
aaI-2
aI1
aS'BaseFont'
p2674
a(lp2675
I1377
aI1377
aaI-1
aI1
aS'Widths'
p2676
a(lp2677
I1442
aI1442
aaI-1
aI1
aS'DescendantFonts'
p2678
a(lp2679
I1378
aI1400
aaI1
ag59
a(lp2680
I1400
aI1400
aaI-1
aI1
aS'BaseFont'
p2681
a(lp2682
I1379
aI1379
aaI-1
aI1
aS'CIDSystemInfo'
p2683
a(lp2684
I1380
aI1382
aaI1
aS'Ordering'
p2685
a(lp2686
I1380
aI1380
aaI-1
aI1
aS'Supplement'
p2687
a(lp2688
I1382
aI1382
aaI-1
aI1
aS'Registry'
p2689
a(lp2690
I1381
aI1381
aaI-2
aI1
aS'Subtype'
p2691
a(lp2692
I1398
aI1398
aaI-1
aI1
aS'FontDescriptor'
p2693
a(lp2694
I1384
aI1397
aaI1
aS'FontFile2'
p2695
a(lp2696
I1390
aI1393
aaI1
aS'Filter'
p2697
a(lp2698
I1391
aI1391
aaI-1
aI1
aS'Length'
p2699
a(lp2700
I1392
aI1392
aaI-1
aI1
aS'Length1'
p2701
a(lp2702
I1393
aI1393
aaI-2
aI1
aS'FontName'
p2703
a(lp2704
I1394
aI1394
aaI-1
aI1
aS'Descent'
p2705
a(lp2706
I1387
aI1387
aaI-1
aI1
aS'FontBBox'
p2707
a(lp2708
I1389
aI1389
aaI-1
aI1
aS'CapHeight'
p2709
a(lp2710
I1386
aI1386
aaI-1
aI1
aS'Ascent'
p2711
a(lp2712
I1385
aI1385
aaI-1
aI1
aS'StemV'
p2713
a(lp2714
I1396
aI1396
aaI-1
aI1
aS'Flags'
p2715
a(lp2716
I1388
aI1388
aaI-1
aI1
aS'ItalicAngle'
p2717
a(lp2718
I1395
aI1395
aaI-1
aI1
aS'Type'
p2719
a(lp2720
I1397
aI1397
aaI-2
aI1
aS'DW'
p2721
a(lp2722
I1383
aI1383
aaI-1
aI1
aS'Type'
p2723
a(lp2724
I1399
aI1399
aaI-2
aI1
aS'Subtype'
p2725
a(lp2726
I1437
aI1437
aaI-1
aI1
aS'ToUnicode'
p2727
a(lp2728
I1438
aI1440
aaI1
aS'Filter'
p2729
a(lp2730
I1439
aI1439
aaI-1
aI1
aS'Length'
p2731
a(lp2732
I1440
aI1440
aaI-2
aI1
aS'FontDescriptor'
p2733
a(lp2734
I1405
aI1434
aaI1
aS'FontFile2'
p2735
a(lp2736
I1419
aI1422
aaI1
aS'Filter'
p2737
a(lp2738
I1420
aI1420
aaI-1
aI1
aS'Length'
p2739
a(lp2740
I1421
aI1421
aaI-1
aI1
aS'Length1'
p2741
a(lp2742
I1422
aI1422
aaI-2
aI1
aS'FontFile'
p2743
a(lp2744
I1413
aI1418
aaI1
aS'Filter'
p2745
a(lp2746
I1414
aI1414
aaI-1
aI1
aS'Length2'
p2747
a(lp2748
I1417
aI1417
aaI-1
aI1
aS'Length'
p2749
a(lp2750
I1415
aI1415
aaI-1
aI1
aS'Length3'
p2751
a(lp2752
I1418
aI1418
aaI-1
aI1
aS'Length1'
p2753
a(lp2754
I1416
aI1416
aaI-2
aI1
aS'FontName'
p2755
a(lp2756
I1427
aI1427
aaI-1
aI1
aS'Descent'
p2757
a(lp2758
I1409
aI1409
aaI-1
aI1
aS'FontBBox'
p2759
a(lp2760
I1411
aI1411
aaI-1
aI1
aS'FontFile3'
p2761
a(lp2762
I1423
aI1426
aaI1
aS'Filter'
p2763
a(lp2764
I1424
aI1424
aaI-1
aI1
aS'Subtype'
p2765
a(lp2766
I1426
aI1426
aaI-1
aI1
aS'Length'
p2767
a(lp2768
I1425
aI1425
aaI-2
aI1
aS'CapHeight'
p2769
a(lp2770
I1407
aI1407
aaI-1
aI1
aS'Ascent'
p2771
a(lp2772
I1406
aI1406
aaI-1
aI1
aS'CharSet'
p2773
a(lp2774
I1408
aI1408
aaI-1
aI1
aS'StemH'
p2775
a(lp2776
I1431
aI1431
aaI-1
aI1
aS'FontStretch'
p2777
a(lp2778
I1428
aI1428
aaI-1
aI1
aS'FontWeight'
p2779
a(lp2780
I1429
aI1429
aaI-1
aI1
aS'StemV'
p2781
a(lp2782
I1432
aI1432
aaI-1
aI1
aS'Flags'
p2783
a(lp2784
I1410
aI1410
aaI-1
aI1
aS'XHeight'
p2785
a(lp2786
I1434
aI1434
aaI-1
aI1
aS'ItalicAngle'
p2787
a(lp2788
I1430
aI1430
aaI-1
aI1
aS'Type'
p2789
a(lp2790
I1433
aI1433
aaI-1
aI1
aS'FontFamily'
p2791
a(lp2792
I1412
aI1412
aaI-2
aI1
aS'Type'
p2793
a(lp2794
I1441
aI1441
aaI-1
aI1
aS'FirstChar'
p2795
a(lp2796
I1404
aI1404
aaI-3
aI1
aS'Properties'
p2797
a(lp2798
I1444
aI1453
aaI1
aS'Name'
p2799
a(lp2800
I1444
aI1453
aaI1
aS'Title'
p2801
a(lp2802
I1451
aI1451
aaI-1
aI1
aS'Color'
p2803
a(lp2804
I1445
aI1445
aaI-1
aI1
aS'Editable'
p2805
a(lp2806
I1447
aI1447
aaI-1
aI1
aS'Dimmed'
p2807
a(lp2808
I1446
aI1446
aaI-1
aI1
aS'OCGs'
p2809
a(lp2810
I1448
aI1448
aaI-1
aI1
aS'Visible'
p2811
a(lp2812
I1453
aI1453
aaI-1
aI1
aS'Printed'
p2813
a(lp2814
I1450
aI1450
aaI-1
aI1
aS'Preview'
p2815
a(lp2816
I1449
aI1449
aaI-1
aI1
aS'Type'
p2817
a(lp2818
I1452
aI1452
aaI-5
aI1
ag205
a(lp2819
I1520
aI1520
aaI-1
aI1
aS'Type'
p2820
a(lp2821
I1531
aI1531
aaI-1
aI1
aS'SE'
p2822
a(lp2823
I1521
aI1529
aaI1
aS'Info'
p2824
a(lp2825
I1522
aI1523
aaI1
aS'Name'
p2826
a(lp2827
I1523
aI1523
aaI-2
aI1
ag100
a(lp2828
I1529
aI1529
aaI-1
aI1
aS'Pg'
p2829
a(lp2830
I1528
aI1528
aaI-1
aI1
aS'Metadata'
p2831
a(lp2832
I1524
aI1527
aaI1
aS'Subtype'
p2833
a(lp2834
I1526
aI1526
aaI-1
aI1
aS'Length'
p2835
a(lp2836
I1525
aI1525
aaI-1
aI1
aS'Type'
p2837
a(lp2838
I1527
aI1527
aaI-4
aI1
ag2420
a(lp2839
I465
aI465
aaI-1
aI1
ag216
a(lp2840
I473
aI473
aaI-1
aI1
aS'URI'
p2841
a(lp2842
I3493
aI3494
aaI1
aS'Base'
p2843
a(lp2844
I3494
aI3494
aaI-2
aI1
ag105
a(lp2845
I649
aI649
aaI-1
aI1
aS'StructTreeRoot'
p2846
a(lp2847
I2921
aI3482
aaI1
ag35
a(lp2848
I2923
aI2953
aaI1
aS'ColumnGap'
p2849
a(lp2850
I2933
aI2933
aaI-1
aI1
aS'Width'
p2851
a(lp2852
I2952
aI2952
aaI-1
aI1
aS'BaselineShift'
p2853
a(lp2854
I2926
aI2926
aaI-1
aI1
aS'BlockAlign'
p2855
a(lp2856
I2927
aI2927
aaI-1
aI1
aS'BBox'
p2857
a(lp2858
I2924
aI2924
aaI-1
aI1
aS'Scope'
p2859
a(lp2860
I2944
aI2944
aaI-1
aI1
aS'BorderStyle'
p2861
a(lp2862
I2929
aI2929
aaI-1
aI1
aS'ColumnCount'
p2863
a(lp2864
I2932
aI2932
aaI-1
aI1
aS'RowSpan'
p2865
a(lp2866
I2943
aI2943
aaI-1
aI1
aS'ColSpan'
p2867
a(lp2868
I2931
aI2931
aaI-1
aI1
aS'TextDecorationType'
p2869
a(lp2870
I2950
aI2950
aaI-1
aI1
aS'BorderThickness'
p2871
a(lp2872
I2930
aI2930
aaI-1
aI1
aS'TextDecorationColor'
p2873
a(lp2874
I2949
aI2949
aaI-1
aI1
aS'BorderColor'
p2875
a(lp2876
I2928
aI2928
aaI-1
aI1
aS'EndIndent'
p2877
a(lp2878
I2935
aI2935
aaI-1
aI1
aS'Placement'
p2879
a(lp2880
I2942
aI2942
aaI-1
aI1
aS'InlineAlign'
p2881
a(lp2882
I2938
aI2938
aaI-1
aI1
ag105
a(lp2883
I2941
aI2941
aaI-1
aI1
aS'Headers'
p2884
a(lp2885
I2936
aI2936
aaI-1
aI1
aS'WritingMode'
p2886
a(lp2887
I2953
aI2953
aaI-1
aI1
aS'BackgroundColor'
p2888
a(lp2889
I2925
aI2925
aaI-1
aI1
aS'LineHeight'
p2890
a(lp2891
I2939
aI2939
aaI-1
aI1
aS'SpaceAfter'
p2892
a(lp2893
I2945
aI2945
aaI-1
aI1
aS'SpaceBefore'
p2894
a(lp2895
I2946
aI2946
aaI-1
aI1
aS'Height'
p2896
a(lp2897
I2937
aI2937
aaI-1
aI1
aS'ListNumbering'
p2898
a(lp2899
I2940
aI2940
aaI-1
aI1
aS'StartIndent'
p2900
a(lp2901
I2947
aI2947
aaI-1
aI1
aS'ColumnWidths'
p2902
a(lp2903
I2934
aI2934
aaI-1
aI1
aS'TextAlign'
p2904
a(lp2905
I2948
aI2948
aaI-1
aI1
aS'TextIndent'
p2906
a(lp2907
I2951
aI2951
aaI-2
aI1
aS'JS'
p2908
a(lp2909
I3085
aI3088
aaI1
aS'Filter'
p2910
a(lp2911
I3087
aI3087
aaI-1
aI1
aS'<nn>'
p2912
a(lp2913
I3086
aI3086
aaI-1
aI1
aS'Length'
p2914
a(lp2915
I3088
aI3088
aaI-2
aI1
aS'ParentTreeNextKey'
p2916
a(lp2917
I3267
aI3267
aaI-1
aI1
aS'Pg'
p2918
a(lp2919
I3268
aI3443
aaI1
aS'BleedBox'
p2920
a(lp2921
I3286
aI3286
aaI-1
aI1
aS'StructParents'
p2922
a(lp2923
I3440
aI3440
aaI-1
aI1
aS'Tabs'
p2924
a(lp2925
I3441
aI3441
aaI-1
aI1
aS'MediaBox'
p2926
a(lp2927
I3291
aI3291
aaI-1
aI1
aS'Annots'
p2928
a(lp2929
I3269
aI3285
aaI1
ag35
a(lp2930
I3270
aI3273
aaI1
ag100
a(lp2931
I3272
aI3272
aaI-1
aI1
ag45
a(lp2932
I3271
aI3271
aaI-1
aI1
aS'URI'
p2933
a(lp2934
I3273
aI3273
aaI-2
aI1
ag210
a(lp2935
I3278
aI3278
aaI-1
aI1
ag31
a(lp2936
I3281
aI3281
aaI-1
aI1
ag216
a(lp2937
I3279
aI3279
aaI-1
aI1
ag218
a(lp2938
I3280
aI3280
aaI-1
aI1
aS'Subtype'
p2939
a(lp2940
I3284
aI3284
aaI-1
aI1
aS'Border'
p2941
a(lp2942
I3277
aI3277
aaI-1
aI1
aS'BS'
p2943
a(lp2944
I3274
aI3276
aaI1
ag100
a(lp2945
I3274
aI3274
aaI-1
aI1
aS'Type'
p2946
a(lp2947
I3275
aI3275
aaI-1
aI1
ag59
a(lp2948
I3276
aI3276
aaI-2
aI1
aS'Type'
p2949
a(lp2950
I3285
aI3285
aaI-1
aI1
aS'Rect'
p2951
a(lp2952
I3282
aI3282
aaI-1
aI1
aS'StructParent'
p2953
a(lp2954
I3283
aI3283
aaI-2
aI1
aS'CropBox'
p2955
a(lp2956
I3290
aI3290
aaI-1
aI1
aS'Rotate'
p2957
a(lp2958
I3439
aI3439
aaI-1
aI1
aS'Resources'
p2959
a(lp2960
I3292
aI3438
aaI1
aS'XObject'
p2961
a(lp2962
I3393
aI3438
aaI1
aS'Name'
p2963
a(lp2964
I3393
aI3438
aaI1
aS'Subtype'
p2965
a(lp2966
I3436
aI3436
aaI-1
aI1
aS'ColorSpace'
p2967
a(lp2968
I3396
aI3396
aaI-1
aI1
aS'OC'
p2969
a(lp2970
I3400
aI3400
aaI-1
aI1
aS'Height'
p2971
a(lp2972
I3398
aI3398
aaI-1
aI1
aS'Filter'
p2973
a(lp2974
I3397
aI3397
aaI-1
aI1
aS'Width'
p2975
a(lp2976
I3438
aI3438
aaI-1
aI1
aS'Length'
p2977
a(lp2978
I3399
aI3399
aaI-1
aI1
aS'BitsPerComponent'
p2979
a(lp2980
I3395
aI3395
aaI-1
aI1
aS'BBox'
p2981
a(lp2982
I3394
aI3394
aaI-1
aI1
aS'Type'
p2983
a(lp2984
I3437
aI3437
aaI-1
aI1
aS'Resources'
p2985
a(lp2986
I3401
aI3435
aaI1
aS'ExtGState'
p2987
a(lp2988
I3401
aI3409
aaI1
aS'Name'
p2989
a(lp2990
I3401
aI3409
aaI1
aS'UCR2'
p2991
a(lp2992
I3408
aI3408
aaI-1
aI1
aS'BG2'
p2993
a(lp2994
I3402
aI3402
aaI-1
aI1
aS'SM'
p2995
a(lp2996
I3406
aI3406
aaI-1
aI1
aS'OPM'
p2997
a(lp2998
I3404
aI3404
aaI-1
aI1
aS'SA'
p2999
a(lp3000
I3405
aI3405
aaI-1
aI1
aS'OP'
p3001
a(lp3002
I3403
aI3403
aaI-1
aI1
aS'Type'
p3003
a(lp3004
I3407
aI3407
aaI-1
aI1
aS'op'
p3005
a(lp3006
I3409
aI3409
aaI-3
aI1
aS'Font'
p3007
a(lp3008
I3410
aI3434
aaI1
aS'Name'
p3009
a(lp3010
I3410
aI3434
aaI1
aS'LastChar'
p3011
a(lp3012
I3431
aI3431
aaI-1
aI1
aS'Encoding'
p3013
a(lp3014
I3412
aI3412
aaI-1
aI1
aS'BaseFont'
p3015
a(lp3016
I3411
aI3411
aaI-1
aI1
aS'Widths'
p3017
a(lp3018
I3434
aI3434
aaI-1
aI1
aS'Subtype'
p3019
a(lp3020
I3432
aI3432
aaI-1
aI1
aS'FontDescriptor'
p3021
a(lp3022
I3414
aI3430
aaI1
aS'FontFile3'
p3023
a(lp3024
I3421
aI3424
aaI1
aS'Filter'
p3025
a(lp3026
I3422
aI3422
aaI-1
aI1
aS'Subtype'
p3027
a(lp3028
I3424
aI3424
aaI-1
aI1
aS'Length'
p3029
a(lp3030
I3423
aI3423
aaI-2
aI1
aS'FontName'
p3031
a(lp3032
I3425
aI3425
aaI-1
aI1
aS'Descent'
p3033
a(lp3034
I3418
aI3418
aaI-1
aI1
aS'FontBBox'
p3035
a(lp3036
I3420
aI3420
aaI-1
aI1
aS'CapHeight'
p3037
a(lp3038
I3416
aI3416
aaI-1
aI1
aS'Ascent'
p3039
a(lp3040
I3415
aI3415
aaI-1
aI1
aS'CharSet'
p3041
a(lp3042
I3417
aI3417
aaI-1
aI1
aS'StemH'
p3043
a(lp3044
I3427
aI3427
aaI-1
aI1
aS'StemV'
p3045
a(lp3046
I3428
aI3428
aaI-1
aI1
aS'Flags'
p3047
a(lp3048
I3419
aI3419
aaI-1
aI1
aS'XHeight'
p3049
a(lp3050
I3430
aI3430
aaI-1
aI1
aS'ItalicAngle'
p3051
a(lp3052
I3426
aI3426
aaI-1
aI1
aS'Type'
p3053
a(lp3054
I3429
aI3429
aaI-2
aI1
aS'Type'
p3055
a(lp3056
I3433
aI3433
aaI-1
aI1
aS'FirstChar'
p3057
a(lp3058
I3413
aI3413
aaI-3
aI1
aS'ProcSet'
p3059
a(lp3060
I3435
aI3435
aaI-4
aI1
aS'ColorSpace'
p3061
a(lp3062
I3292
aI3303
aaI1
aS'Name'
p3063
a(lp3064
I3292
aI3303
aaI1
aS'Decode'
p3065
a(lp3066
I3295
aI3295
aaI-1
aI1
aS'BitsPerSample'
p3067
a(lp3068
I3294
aI3294
aaI-1
aI1
aS'Alternate'
p3069
a(lp3070
I3293
aI3293
aaI-1
aI1
aS'Domain'
p3071
a(lp3072
I3296
aI3296
aaI-1
aI1
ag88
a(lp3073
I3301
aI3301
aaI-1
aI1
aS'Filter'
p3074
a(lp3075
I3298
aI3298
aaI-1
aI1
aS'Length'
p3076
a(lp3077
I3300
aI3300
aaI-1
aI1
aS'Encode'
p3078
a(lp3079
I3297
aI3297
aaI-1
aI1
aS'Range'
p3080
a(lp3081
I3302
aI3302
aaI-1
aI1
aS'FunctionType'
p3082
a(lp3083
I3299
aI3299
aaI-1
aI1
aS'Size'
p3084
a(lp3085
I3303
aI3303
aaI-3
aI1
aS'ProcSet'
p3086
a(lp3087
I3389
aI3389
aaI-1
aI1
aS'ExtGState'
p3088
a(lp3089
I3304
aI3314
aaI1
aS'Name'
p3090
a(lp3091
I3304
aI3314
aaI1
aS'UCR2'
p3092
a(lp3093
I3313
aI3313
aaI-1
aI1
aS'OP'
p3094
a(lp3095
I3307
aI3307
aaI-1
aI1
aS'HT'
p3096
a(lp3097
I3306
aI3306
aaI-1
aI1
aS'BG2'
p3098
a(lp3099
I3305
aI3305
aaI-1
aI1
aS'SM'
p3100
a(lp3101
I3310
aI3310
aaI-1
aI1
aS'OPM'
p3102
a(lp3103
I3308
aI3308
aaI-1
aI1
aS'SA'
p3104
a(lp3105
I3309
aI3309
aaI-1
aI1
aS'TR2'
p3106
a(lp3107
I3311
aI3311
aaI-1
aI1
aS'Type'
p3108
a(lp3109
I3312
aI3312
aaI-1
aI1
aS'op'
p3110
a(lp3111
I3314
aI3314
aaI-3
aI1
aS'Font'
p3112
a(lp3113
I3315
aI3388
aaI1
aS'Name'
p3114
a(lp3115
I3315
aI3388
aaI1
aS'LastChar'
p3116
a(lp3117
I3381
aI3381
aaI-1
aI1
aS'Name'
p3118
a(lp3119
I3382
aI3382
aaI-1
aI1
aS'Encoding'
p3120
a(lp3121
I3349
aI3352
aaI1
aS'BaseEncoding'
p3122
a(lp3123
I3350
aI3350
aaI-1
aI1
aS'Differences'
p3124
a(lp3125
I3351
aI3351
aaI-1
aI1
aS'Type'
p3126
a(lp3127
I3352
aI3352
aaI-2
aI1
aS'BaseFont'
p3128
a(lp3129
I3316
aI3316
aaI-1
aI1
aS'Widths'
p3130
a(lp3131
I3388
aI3388
aaI-1
aI1
aS'DescendantFonts'
p3132
a(lp3133
I3317
aI3348
aaI1
aS'CIDToGIDMap'
p3134
a(lp3135
I3322
aI3322
aaI-1
aI1
ag59
a(lp3136
I3348
aI3348
aaI-1
aI1
aS'BaseFont'
p3137
a(lp3138
I3318
aI3318
aaI-1
aI1
aS'CIDSystemInfo'
p3139
a(lp3140
I3319
aI3321
aaI1
aS'Ordering'
p3141
a(lp3142
I3319
aI3319
aaI-1
aI1
aS'Supplement'
p3143
a(lp3144
I3321
aI3321
aaI-1
aI1
aS'Registry'
p3145
a(lp3146
I3320
aI3320
aaI-2
aI1
aS'Subtype'
p3147
a(lp3148
I3346
aI3346
aaI-1
aI1
aS'FontDescriptor'
p3149
a(lp3150
I3324
aI3345
aaI1
aS'FontFile2'
p3151
a(lp3152
I3335
aI3338
aaI1
aS'Filter'
p3153
a(lp3154
I3336
aI3336
aaI-1
aI1
aS'Length'
p3155
a(lp3156
I3337
aI3337
aaI-1
aI1
aS'Length1'
p3157
a(lp3158
I3338
aI3338
aaI-2
aI1
aS'FontName'
p3159
a(lp3160
I3339
aI3339
aaI-1
aI1
aS'Descent'
p3161
a(lp3162
I3331
aI3331
aaI-1
aI1
aS'FontBBox'
p3163
a(lp3164
I3333
aI3333
aaI-1
aI1
aS'FontFamily'
p3165
a(lp3166
I3334
aI3334
aaI-1
aI1
aS'CapHeight'
p3167
a(lp3168
I3330
aI3330
aaI-1
aI1
aS'Ascent'
p3169
a(lp3170
I3325
aI3325
aaI-1
aI1
aS'MaxWidth'
p3171
a(lp3172
I3343
aI3343
aaI-1
aI1
aS'FontStretch'
p3173
a(lp3174
I3340
aI3340
aaI-1
aI1
aS'FontWeight'
p3175
a(lp3176
I3341
aI3341
aaI-1
aI1
aS'StemV'
p3177
a(lp3178
I3344
aI3344
aaI-1
aI1
aS'AvgWidth'
p3179
a(lp3180
I3326
aI3326
aaI-1
aI1
aS'Flags'
p3181
a(lp3182
I3332
aI3332
aaI-1
aI1
aS'CIDSet'
p3183
a(lp3184
I3327
aI3329
aaI1
aS'Filter'
p3185
a(lp3186
I3328
aI3328
aaI-1
aI1
aS'Length'
p3187
a(lp3188
I3329
aI3329
aaI-2
aI1
aS'Type'
p3189
a(lp3190
I3345
aI3345
aaI-1
aI1
aS'ItalicAngle'
p3191
a(lp3192
I3342
aI3342
aaI-2
aI1
aS'DW'
p3193
a(lp3194
I3323
aI3323
aaI-1
aI1
aS'Type'
p3195
a(lp3196
I3347
aI3347
aaI-2
aI1
aS'Subtype'
p3197
a(lp3198
I3383
aI3383
aaI-1
aI1
aS'ToUnicode'
p3199
a(lp3200
I3384
aI3386
aaI1
aS'Filter'
p3201
a(lp3202
I3385
aI3385
aaI-1
aI1
aS'Length'
p3203
a(lp3204
I3386
aI3386
aaI-2
aI1
aS'FontDescriptor'
p3205
a(lp3206
I3354
aI3380
aaI1
aS'FontFile2'
p3207
a(lp3208
I3363
aI3366
aaI1
aS'Filter'
p3209
a(lp3210
I3364
aI3364
aaI-1
aI1
aS'Length'
p3211
a(lp3212
I3365
aI3365
aaI-1
aI1
aS'Length1'
p3213
a(lp3214
I3366
aI3366
aaI-2
aI1
aS'FontFile3'
p3215
a(lp3216
I3367
aI3371
aaI1
aS'Filter'
p3217
a(lp3218
I3368
aI3368
aaI-1
aI1
aS'Subtype'
p3219
a(lp3220
I3371
aI3371
aaI-1
aI1
aS'Length'
p3221
a(lp3222
I3369
aI3369
aaI-1
aI1
aS'Length1'
p3223
a(lp3224
I3370
aI3370
aaI-2
aI1
aS'FontName'
p3225
a(lp3226
I3372
aI3372
aaI-1
aI1
aS'Descent'
p3227
a(lp3228
I3359
aI3359
aaI-1
aI1
aS'FontBBox'
p3229
a(lp3230
I3361
aI3361
aaI-1
aI1
aS'FontFamily'
p3231
a(lp3232
I3362
aI3362
aaI-1
aI1
aS'CapHeight'
p3233
a(lp3234
I3357
aI3357
aaI-1
aI1
aS'Ascent'
p3235
a(lp3236
I3355
aI3355
aaI-1
aI1
aS'CharSet'
p3237
a(lp3238
I3358
aI3358
aaI-1
aI1
aS'StemH'
p3239
a(lp3240
I3377
aI3377
aaI-1
aI1
aS'FontWeight'
p3241
a(lp3242
I3374
aI3374
aaI-1
aI1
aS'StemV'
p3243
a(lp3244
I3378
aI3378
aaI-1
aI1
aS'AvgWidth'
p3245
a(lp3246
I3356
aI3356
aaI-1
aI1
aS'MaxWidth'
p3247
a(lp3248
I3376
aI3376
aaI-1
aI1
aS'XHeight'
p3249
a(lp3250
I3380
aI3380
aaI-1
aI1
aS'Flags'
p3251
a(lp3252
I3360
aI3360
aaI-1
aI1
aS'ItalicAngle'
p3253
a(lp3254
I3375
aI3375
aaI-1
aI1
aS'Type'
p3255
a(lp3256
I3379
aI3379
aaI-1
aI1
aS'FontStretch'
p3257
a(lp3258
I3373
aI3373
aaI-2
aI1
aS'Type'
p3259
a(lp3260
I3387
aI3387
aaI-1
aI1
aS'FirstChar'
p3261
a(lp3262
I3353
aI3353
aaI-3
aI1
aS'Properties'
p3263
a(lp3264
I3390
aI3392
aaI1
aS'Name'
p3265
a(lp3266
I3390
aI3392
aaI1
aS'OCGs'
p3267
a(lp3268
I3391
aI3391
aaI-1
aI1
aS'Type'
p3269
a(lp3270
I3392
aI3392
aaI-4
aI1
aS'Trans'
p3271
a(lp3272
I3442
aI3442
aaI-1
aI1
aS'Type'
p3273
a(lp3274
I3443
aI3443
aaI-1
aI1
aS'Contents'
p3275
a(lp3276
I3287
aI3289
aaI1
aS'Filter'
p3277
a(lp3278
I3288
aI3288
aaI-1
aI1
aS'Length'
p3279
a(lp3280
I3289
aI3289
aaI-3
aI1
ag2420
a(lp3281
I2970
aI2970
aaI-1
aI1
aS'<nn>'
p3282
a(lp3283
I2922
aI2922
aaI-1
aI1
aS'Type'
p3284
a(lp3285
I3482
aI3482
aaI-1
aI1
aS'Metadata'
p3286
a(lp3287
I3092
aI3095
aaI1
aS'Subtype'
p3288
a(lp3289
I3094
aI3094
aaI-1
aI1
aS'Length'
p3290
a(lp3291
I3093
aI3093
aaI-1
aI1
aS'Type'
p3292
a(lp3293
I3095
aI3095
aaI-2
aI1
aS'ParentTree'
p3294
a(lp3295
I3154
aI3266
aaI1
aS'Limits'
p3296
a(lp3297
I3155
aI3155
aaI-1
aI1
aS'Nums'
p3298
a(lp3299
I3156
aI3266
aaI1
ag35
a(lp3300
I3157
aI3195
aaI1
aS'FontStyle'
p3301
a(lp3302
I3173
aI3173
aaI-1
aI1
aS'ColumnGap'
p3303
a(lp3304
I3167
aI3167
aaI-1
aI1
aS'Width'
p3305
a(lp3306
I3194
aI3194
aaI-1
aI1
aS'BaselineShift'
p3307
a(lp3308
I3160
aI3160
aaI-1
aI1
aS'BlockAlign'
p3309
a(lp3310
I3161
aI3161
aaI-1
aI1
aS'BBox'
p3311
a(lp3312
I3158
aI3158
aaI-1
aI1
aS'Scope'
p3313
a(lp3314
I3183
aI3183
aaI-1
aI1
aS'BorderStyle'
p3315
a(lp3316
I3163
aI3163
aaI-1
aI1
aS'ColumnCount'
p3317
a(lp3318
I3166
aI3166
aaI-1
aI1
aS'RowSpan'
p3319
a(lp3320
I3182
aI3182
aaI-1
aI1
aS'FontFamily'
p3321
a(lp3322
I3171
aI3171
aaI-1
aI1
aS'ColSpan'
p3323
a(lp3324
I3165
aI3165
aaI-1
aI1
aS'TextDecorationType'
p3325
a(lp3326
I3191
aI3191
aaI-1
aI1
aS'BorderThickness'
p3327
a(lp3328
I3164
aI3164
aaI-1
aI1
aS'TextAlign'
p3329
a(lp3330
I3188
aI3188
aaI-1
aI1
aS'TextDecorationColor'
p3331
a(lp3332
I3190
aI3190
aaI-1
aI1
aS'BorderColor'
p3333
a(lp3334
I3162
aI3162
aaI-1
aI1
aS'EndIndent'
p3335
a(lp3336
I3170
aI3170
aaI-1
aI1
aS'Placement'
p3337
a(lp3338
I3181
aI3181
aaI-1
aI1
aS'InlineAlign'
p3339
a(lp3340
I3177
aI3177
aaI-1
aI1
ag105
a(lp3341
I3180
aI3180
aaI-1
aI1
aS'Headers'
p3342
a(lp3343
I3175
aI3175
aaI-1
aI1
aS'WritingMode'
p3344
a(lp3345
I3195
aI3195
aaI-1
aI1
aS'FontSize'
p3346
a(lp3347
I3172
aI3172
aaI-1
aI1
aS'BackgroundColor'
p3348
a(lp3349
I3159
aI3159
aaI-1
aI1
aS'LineHeight'
p3350
a(lp3351
I3178
aI3178
aaI-1
aI1
aS'TextColor'
p3352
a(lp3353
I3189
aI3189
aaI-1
aI1
aS'SpaceAfter'
p3354
a(lp3355
I3184
aI3184
aaI-1
aI1
aS'SpaceBefore'
p3356
a(lp3357
I3185
aI3185
aaI-1
aI1
aS'StrikeOut'
p3358
a(lp3359
I3187
aI3187
aaI-1
aI1
aS'Encoding'
p3360
a(lp3361
I3169
aI3169
aaI-1
aI1
aS'Height'
p3362
a(lp3363
I3176
aI3176
aaI-1
aI1
aS'ListNumbering'
p3364
a(lp3365
I3179
aI3179
aaI-1
aI1
aS'FontWeight'
p3366
a(lp3367
I3174
aI3174
aaI-1
aI1
aS'StartIndent'
p3368
a(lp3369
I3186
aI3186
aaI-1
aI1
aS'ColumnWidths'
p3370
a(lp3371
I3168
aI3168
aaI-1
aI1
aS'Underline'
p3372
a(lp3373
I3193
aI3193
aaI-1
aI1
aS'TextIndent'
p3374
a(lp3375
I3192
aI3192
aaI-2
aI1
aS'Lang'
p3376
a(lp3377
I3204
aI3204
aaI-1
aI1
ag210
a(lp3378
I3198
aI3198
aaI-1
aI1
ag2420
a(lp3379
I3200
aI3200
aaI-1
aI1
aS'Stm'
p3380
a(lp3381
I3264
aI3264
aaI-1
aI1
aS'ActualText'
p3382
a(lp3383
I3196
aI3196
aaI-1
aI1
aS'ParentTree'
p3384
a(lp3385
I3260
aI3260
aaI-1
aI1
aS'MCID'
p3386
a(lp3387
I3205
aI3205
aaI-1
aI1
aS'ClassMap'
p3388
a(lp3389
I3199
aI3199
aaI-1
aI1
aS'ParentTreeNextKey'
p3390
a(lp3391
I3261
aI3261
aaI-1
aI1
ag100
a(lp3392
I3263
aI3263
aaI-1
aI1
aS'Pg'
p3393
a(lp3394
I3262
aI3262
aaI-1
aI1
aS'IDTree'
p3395
a(lp3396
I3202
aI3203
aaI1
aS'Names'
p3397
a(lp3398
I3203
aI3203
aaI-2
aI1
aS'Obj'
p3399
a(lp3400
I3206
aI3259
aaI1
aS'FT'
p3401
a(lp3402
I3241
aI3241
aaI-1
aI1
aS'DA'
p3403
a(lp3404
I3239
aI3239
aaI-1
aI1
aS'Pg'
p3405
a(lp3406
I3249
aI3249
aaI-1
aI1
aS'BS'
p3407
a(lp3408
I3234
aI3236
aaI1
ag100
a(lp3409
I3234
aI3234
aaI-1
aI1
aS'Type'
p3410
a(lp3411
I3235
aI3235
aaI-1
aI1
ag59
a(lp3412
I3236
aI3236
aaI-2
aI1
aS'Type'
p3413
a(lp3414
I3257
aI3257
aaI-1
aI1
aS'ggPlaceHolder'
p3415
a(lp3416
I3258
aI3258
aaI-1
aI1
aS'TU'
p3417
a(lp3418
I3256
aI3256
aaI-1
aI1
aS'Ff'
p3419
a(lp3420
I3242
aI3242
aaI-1
aI1
aS'Rect'
p3421
a(lp3422
I3252
aI3252
aaI-1
aI1
aS'StructParent'
p3423
a(lp3424
I3253
aI3253
aaI-1
aI1
ag35
a(lp3425
I3207
aI3212
aaI1
ag100
a(lp3426
I3210
aI3210
aaI-1
aI1
aS'IsMap'
p3427
a(lp3428
I3209
aI3209
aaI-1
aI1
aS'Type'
p3429
a(lp3430
I3211
aI3211
aaI-1
aI1
ag45
a(lp3431
I3208
aI3208
aaI-1
aI1
aS'URI'
p3432
a(lp3433
I3212
aI3212
aaI-2
aI1
ag210
a(lp3434
I3238
aI3238
aaI-1
aI1
ag31
a(lp3435
I3248
aI3248
aaI-1
aI1
ag205
a(lp3436
I3240
aI3240
aaI-1
aI1
ag216
a(lp3437
I3243
aI3243
aaI-1
aI1
ag218
a(lp3438
I3244
aI3244
aaI-1
aI1
ag252
a(lp3439
I3251
aI3251
aaI-1
aI1
aS'Subtype'
p3440
a(lp3441
I3254
aI3254
aaI-1
aI1
aS'AS'
p3442
a(lp3443
I3233
aI3233
aaI-1
aI1
ag91
a(lp3444
I3255
aI3255
aaI-1
aI1
aS'removed'
p3445
a(lp3446
I3259
aI3259
aaI-1
aI1
aS'PlaceHolder'
p3447
a(lp3448
I3250
aI3250
aaI-1
aI1
aS'AP'
p3449
a(lp3450
I3213
aI3232
aaI1
ag45
a(lp3451
I3213
aI3222
aaI1
aS'Name'
p3452
a(lp3453
I3213
aI3222
aaI1
aS'Matrix'
p3454
a(lp3455
I3218
aI3218
aaI-1
aI1
aS'Filter'
p3456
a(lp3457
I3215
aI3215
aaI-1
aI1
aS'Subtype'
p3458
a(lp3459
I3221
aI3221
aaI-1
aI1
aS'Length'
p3460
a(lp3461
I3217
aI3217
aaI-1
aI1
aS'BBox'
p3462
a(lp3463
I3214
aI3214
aaI-1
aI1
aS'FormType'
p3464
a(lp3465
I3216
aI3216
aaI-1
aI1
aS'Type'
p3466
a(lp3467
I3222
aI3222
aaI-1
aI1
aS'Resources'
p3468
a(lp3469
I3219
aI3220
aaI1
aS'Font'
p3470
a(lp3471
I3219
aI3219
aaI1
aS'Name'
p3472
a(lp3473
I3219
aI3219
aaI-2
aI1
aS'ProcSet'
p3474
a(lp3475
I3220
aI3220
aaI-4
aI1
ag88
a(lp3476
I3223
aI3232
aaI1
aS'Name'
p3477
a(lp3478
I3223
aI3232
aaI1
aS'Matrix'
p3479
a(lp3480
I3228
aI3228
aaI-1
aI1
aS'Filter'
p3481
a(lp3482
I3225
aI3225
aaI-1
aI1
aS'Subtype'
p3483
a(lp3484
I3231
aI3231
aaI-1
aI1
aS'Length'
p3485
a(lp3486
I3227
aI3227
aaI-1
aI1
aS'BBox'
p3487
a(lp3488
I3224
aI3224
aaI-1
aI1
aS'FormType'
p3489
a(lp3490
I3226
aI3226
aaI-1
aI1
aS'Type'
p3491
a(lp3492
I3232
aI3232
aaI-1
aI1
aS'Resources'
p3493
a(lp3494
I3229
aI3230
aaI1
aS'Font'
p3495
a(lp3496
I3229
aI3229
aaI1
aS'Name'
p3497
a(lp3498
I3229
aI3229
aaI-2
aI1
aS'ProcSet'
p3499
a(lp3500
I3230
aI3230
aaI-5
aI1
aS'MK'
p3501
a(lp3502
I3245
aI3246
aaI1
aS'CA'
p3503
a(lp3504
I3246
aI3246
aaI-2
aI1
aS'MaxLen'
p3505
a(lp3506
I3247
aI3247
aaI-1
aI1
aS'Border'
p3507
a(lp3508
I3237
aI3237
aaI-2
aI1
aS'Alt'
p3509
a(lp3510
I3197
aI3197
aaI-1
aI1
aS'Type'
p3511
a(lp3512
I3266
aI3266
aaI-1
aI1
aS'ID'
p3513
a(lp3514
I3201
aI3201
aaI-1
aI1
ag91
a(lp3515
I3265
aI3265
aaI-3
aI1
aS'MCID'
p3516
a(lp3517
I3091
aI3091
aaI-1
aI1
aS'Info'
p3518
a(lp3519
I3077
aI3084
aaI1
aS'Name'
p3520
a(lp3521
I3078
aI3084
aaI1
ag252
a(lp3522
I3079
aI3081
aaI1
aS'Filter'
p3523
a(lp3524
I3080
aI3080
aaI-1
aI1
aS'Length'
p3525
a(lp3526
I3081
aI3081
aaI-2
aI1
aS'q'
p3527
a(lp3528
I3082
aI3084
aaI1
aS'Filter'
p3529
a(lp3530
I3083
aI3083
aaI-1
aI1
aS'Length'
p3531
a(lp3532
I3084
aI3084
aaI-4
aI1
aS'RestoreTree'
p3533
a(lp3534
I3444
aI3474
aaI1
aS'Type'
p3535
a(lp3536
I3474
aI3474
aaI-1
aI1
aS'Nums'
p3537
a(lp3538
I3445
aI3473
aaI1
ag35
a(lp3539
I3446
aI3459
aaI1
aS'EndIndent'
p3540
a(lp3541
I3449
aI3449
aaI-1
aI1
aS'SpaceBefore'
p3542
a(lp3543
I3455
aI3455
aaI-1
aI1
aS'InlineAlign'
p3544
a(lp3545
I3451
aI3451
aaI-1
aI1
ag105
a(lp3546
I3453
aI3453
aaI-1
aI1
aS'Height'
p3547
a(lp3548
I3450
aI3450
aaI-1
aI1
aS'Width'
p3549
a(lp3550
I3459
aI3459
aaI-1
aI1
aS'BlockAlign'
p3551
a(lp3552
I3448
aI3448
aaI-1
aI1
aS'TextIndent'
p3553
a(lp3554
I3458
aI3458
aaI-1
aI1
aS'LineHeight'
p3555
a(lp3556
I3452
aI3452
aaI-1
aI1
aS'StartIndent'
p3557
a(lp3558
I3456
aI3456
aaI-1
aI1
aS'TextAlign'
p3559
a(lp3560
I3457
aI3457
aaI-1
aI1
aS'SpaceAfter'
p3561
a(lp3562
I3454
aI3454
aaI-1
aI1
aS'BBox'
p3563
a(lp3564
I3447
aI3447
aaI-2
aI1
ag447
a(lp3565
I3461
aI3467
aaI1
aS'Obj'
p3566
a(lp3567
I3463
aI3463
aaI-1
aI1
ag447
a(lp3568
I3462
aI3462
aaI-1
aI1
ag31
a(lp3569
I3464
aI3464
aaI-1
aI1
ag100
a(lp3570
I3466
aI3466
aaI-1
aI1
aS'Pg'
p3571
a(lp3572
I3465
aI3465
aaI-1
aI1
aS'Type'
p3573
a(lp3574
I3467
aI3467
aaI-2
aI1
ag31
a(lp3575
I3468
aI3471
aaI1
ag31
a(lp3576
I3470
aI3470
aaI-1
aI1
ag447
a(lp3577
I3469
aI3469
aaI-1
aI1
ag100
a(lp3578
I3471
aI3471
aaI-2
aI1
ag100
a(lp3579
I3473
aI3473
aaI-1
aI1
aS'Pg'
p3580
a(lp3581
I3472
aI3472
aaI-1
aI1
aS'Alt'
p3582
a(lp3583
I3460
aI3460
aaI-3
aI1
ag210
a(lp3584
I2956
aI2956
aaI-1
aI1
aS'Obj'
p3585
a(lp3586
I3096
aI3152
aaI1
aS'FT'
p3587
a(lp3588
I3134
aI3134
aaI-1
aI1
aS'DA'
p3589
a(lp3590
I3131
aI3131
aaI-1
aI1
aS'Pg'
p3591
a(lp3592
I3143
aI3143
aaI-1
aI1
aS'BS'
p3593
a(lp3594
I3126
aI3128
aaI1
ag100
a(lp3595
I3126
aI3126
aaI-1
aI1
aS'Type'
p3596
a(lp3597
I3127
aI3127
aaI-1
aI1
ag59
a(lp3598
I3128
aI3128
aaI-2
aI1
aS'Type'
p3599
a(lp3600
I3150
aI3150
aaI-1
aI1
aS'Dest'
p3601
a(lp3602
I3132
aI3132
aaI-1
aI1
aS'PlaceHolder'
p3603
a(lp3604
I3144
aI3144
aaI-1
aI1
aS'TU'
p3605
a(lp3606
I3149
aI3149
aaI-1
aI1
aS'Ff'
p3607
a(lp3608
I3135
aI3135
aaI-1
aI1
aS'Rect'
p3609
a(lp3610
I3145
aI3145
aaI-1
aI1
aS'StructParent'
p3611
a(lp3612
I3146
aI3146
aaI-1
aI1
ag35
a(lp3613
I3097
aI3104
aaI1
ag100
a(lp3614
I3103
aI3103
aaI-1
aI1
ag205
a(lp3615
I3099
aI3101
aaI1
aS'UF'
p3616
a(lp3617
I3101
aI3101
aaI-1
aI1
aS'Type'
p3618
a(lp3619
I3100
aI3100
aaI-1
aI1
ag205
a(lp3620
I3099
aI3099
aaI-2
aI1
ag45
a(lp3621
I3098
aI3098
aaI-1
aI1
aS'URI'
p3622
a(lp3623
I3104
aI3104
aaI-1
aI1
aS'IsMap'
p3624
a(lp3625
I3102
aI3102
aaI-2
aI1
ag210
a(lp3626
I3130
aI3130
aaI-1
aI1
ag31
a(lp3627
I3142
aI3142
aaI-1
aI1
ag205
a(lp3628
I3133
aI3133
aaI-1
aI1
ag216
a(lp3629
I3136
aI3136
aaI-1
aI1
aS'Subtype'
p3630
a(lp3631
I3147
aI3147
aaI-1
aI1
aS'AS'
p3632
a(lp3633
I3125
aI3125
aaI-1
aI1
ag91
a(lp3634
I3148
aI3148
aaI-1
aI1
aS'removed'
p3635
a(lp3636
I3152
aI3152
aaI-1
aI1
aS'ggPlaceHolder'
p3637
a(lp3638
I3151
aI3151
aaI-1
aI1
aS'AP'
p3639
a(lp3640
I3105
aI3124
aaI1
ag45
a(lp3641
I3105
aI3114
aaI1
aS'Name'
p3642
a(lp3643
I3105
aI3114
aaI1
aS'Matrix'
p3644
a(lp3645
I3110
aI3110
aaI-1
aI1
aS'Filter'
p3646
a(lp3647
I3107
aI3107
aaI-1
aI1
aS'Subtype'
p3648
a(lp3649
I3113
aI3113
aaI-1
aI1
aS'Length'
p3650
a(lp3651
I3109
aI3109
aaI-1
aI1
aS'BBox'
p3652
a(lp3653
I3106
aI3106
aaI-1
aI1
aS'FormType'
p3654
a(lp3655
I3108
aI3108
aaI-1
aI1
aS'Type'
p3656
a(lp3657
I3114
aI3114
aaI-1
aI1
aS'Resources'
p3658
a(lp3659
I3111
aI3112
aaI1
aS'Font'
p3660
a(lp3661
I3111
aI3111
aaI1
aS'Name'
p3662
a(lp3663
I3111
aI3111
aaI-2
aI1
aS'ProcSet'
p3664
a(lp3665
I3112
aI3112
aaI-4
aI1
ag88
a(lp3666
I3115
aI3124
aaI1
aS'Name'
p3667
a(lp3668
I3115
aI3124
aaI1
aS'Matrix'
p3669
a(lp3670
I3120
aI3120
aaI-1
aI1
aS'Filter'
p3671
a(lp3672
I3117
aI3117
aaI-1
aI1
aS'Subtype'
p3673
a(lp3674
I3123
aI3123
aaI-1
aI1
aS'Length'
p3675
a(lp3676
I3119
aI3119
aaI-1
aI1
aS'BBox'
p3677
a(lp3678
I3116
aI3116
aaI-1
aI1
aS'FormType'
p3679
a(lp3680
I3118
aI3118
aaI-1
aI1
aS'Type'
p3681
a(lp3682
I3124
aI3124
aaI-1
aI1
aS'Resources'
p3683
a(lp3684
I3121
aI3122
aaI1
aS'Font'
p3685
a(lp3686
I3121
aI3121
aaI1
aS'Name'
p3687
a(lp3688
I3121
aI3121
aaI-2
aI1
aS'ProcSet'
p3689
a(lp3690
I3122
aI3122
aaI-5
aI1
aS'MK'
p3691
a(lp3692
I3137
aI3140
aaI1
aS'CA'
p3693
a(lp3694
I3140
aI3140
aaI-1
aI1
aS'BG'
p3695
a(lp3696
I3139
aI3139
aaI-1
aI1
aS'BC'
p3697
a(lp3698
I3138
aI3138
aaI-2
aI1
aS'MaxLen'
p3699
a(lp3700
I3141
aI3141
aaI-1
aI1
aS'Border'
p3701
a(lp3702
I3129
aI3129
aaI-2
aI1
aS'Filter'
p3703
a(lp3704
I2971
aI2971
aaI-1
aI1
aS'SpdrArt'
p3705
a(lp3706
I3480
aI3480
aaI1
ag105
a(lp3707
I3480
aI3480
aaI-2
aI1
aS'ClassMap'
p3708
a(lp3709
I2957
aI2969
aaI1
aS'Name'
p3710
a(lp3711
I2958
aI2969
aaI1
aS'EndIndent'
p3712
a(lp3713
I2960
aI2960
aaI-1
aI1
aS'SpaceBefore'
p3714
a(lp3715
I2964
aI2964
aaI-1
aI1
aS'BaselineShift'
p3716
a(lp3717
I2959
aI2959
aaI-1
aI1
ag105
a(lp3718
I2962
aI2962
aaI-1
aI1
aS'TextDecorationType'
p3719
a(lp3720
I2967
aI2967
aaI-1
aI1
aS'WritingMode'
p3721
a(lp3722
I2969
aI2969
aaI-1
aI1
aS'StartIndent'
p3723
a(lp3724
I2965
aI2965
aaI-1
aI1
aS'LineHeight'
p3725
a(lp3726
I2961
aI2961
aaI-1
aI1
aS'TextAlign'
p3727
a(lp3728
I2966
aI2966
aaI-1
aI1
aS'SpaceAfter'
p3729
a(lp3730
I2963
aI2963
aaI-1
aI1
aS'TextIndent'
p3731
a(lp3732
I2968
aI2968
aaI-3
aI1
aS'Length'
p3733
a(lp3734
I3090
aI3090
aaI-1
aI1
ag91
a(lp3735
I3481
aI3481
aaI-1
aI1
aS'ID'
p3736
a(lp3737
I2972
aI2972
aaI-1
aI1
ag100
a(lp3738
I3479
aI3479
aaI-1
aI1
aS'Lang'
p3739
a(lp3740
I3089
aI3089
aaI-1
aI1
aS'RoleMap'
p3741
a(lp3742
I3475
aI3477
aaI1
aS'Name'
p3743
a(lp3744
I3478
aI3477
aaI1
aS' 1'
p3745
a(lp3746
I3477
aI3477
aaI-3
aI1
aS'IDTree'
p3747
a(lp3748
I2973
aI3076
aaI1
aS'Names'
p3749
a(lp3750
I2975
aI3076
aaI1
ag35
a(lp3751
I2976
aI2987
aaI1
aS'BorderColor'
p3752
a(lp3753
I2978
aI2978
aaI-1
aI1
aS'RowSpan'
p3754
a(lp3755
I2986
aI2986
aaI-1
aI1
aS'Headers'
p3756
a(lp3757
I2982
aI2982
aaI-1
aI1
aS'InlineAlign'
p3758
a(lp3759
I2984
aI2984
aaI-1
aI1
aS'BorderThickness'
p3760
a(lp3761
I2980
aI2980
aaI-1
aI1
ag105
a(lp3762
I2985
aI2985
aaI-1
aI1
aS'Height'
p3763
a(lp3764
I2983
aI2983
aaI-1
aI1
aS'Width'
p3765
a(lp3766
I2987
aI2987
aaI-1
aI1
aS'BlockAlign'
p3767
a(lp3768
I2977
aI2977
aaI-1
aI1
aS'ColSpan'
p3769
a(lp3770
I2981
aI2981
aaI-1
aI1
aS'BorderStyle'
p3771
a(lp3772
I2979
aI2979
aaI-2
aI1
aS'Lang'
p3773
a(lp3774
I3021
aI3021
aaI-1
aI1
ag447
a(lp3775
I2989
aI3020
aaI1
ag2420
a(lp3776
I2990
aI2990
aaI-1
aI1
ag447
a(lp3777
I2991
aI3016
aaI1
ag35
a(lp3778
I2992
aI2996
aaI1
aS'SpaceBefore'
p3779
a(lp3780
I2996
aI2996
aaI-1
aI1
ag105
a(lp3781
I2994
aI2994
aaI-1
aI1
aS'BBox'
p3782
a(lp3783
I2993
aI2993
aaI-1
aI1
aS'SpaceAfter'
p3784
a(lp3785
I2995
aI2995
aaI-2
aI1
aS'Obj'
p3786
a(lp3787
I3012
aI3012
aaI-1
aI1
ag447
a(lp3788
I2997
aI3011
aaI1
ag35
a(lp3789
I2998
aI3001
aaI1
ag105
a(lp3790
I3000
aI3000
aaI-1
aI1
aS'BBox'
p3791
a(lp3792
I2999
aI2999
aaI-1
aI1
aS'SpaceAfter'
p3793
a(lp3794
I3001
aI3001
aaI-2
aI1
ag31
a(lp3795
I3010
aI3010
aaI-1
aI1
ag447
a(lp3796
I3002
aI3009
aaI1
ag31
a(lp3797
I3007
aI3007
aaI-1
aI1
ag447
a(lp3798
I3003
aI3006
aaI1
ag31
a(lp3799
I3004
aI3004
aaI-1
aI1
ag100
a(lp3800
I3005
aI3005
aaI-1
aI1
ag91
a(lp3801
I3006
aI3006
aaI-2
aI1
ag100
a(lp3802
I3008
aI3008
aaI-1
aI1
ag91
a(lp3803
I3009
aI3009
aaI-2
aI1
ag100
a(lp3804
I3011
aI3011
aaI-2
aI1
ag31
a(lp3805
I3013
aI3013
aaI-1
aI1
ag100
a(lp3806
I3015
aI3015
aaI-1
aI1
aS'Pg'
p3807
a(lp3808
I3014
aI3014
aaI-1
aI1
aS'Type'
p3809
a(lp3810
I3016
aI3016
aaI-2
aI1
ag31
a(lp3811
I3017
aI3017
aaI-1
aI1
ag100
a(lp3812
I3019
aI3019
aaI-1
aI1
ag91
a(lp3813
I3020
aI3020
aaI-1
aI1
aS'Pg'
p3814
a(lp3815
I3018
aI3018
aaI-2
aI1
ag31
a(lp3816
I3022
aI3073
aaI1
aS'Lang'
p3817
a(lp3818
I3047
aI3047
aaI-1
aI1
ag31
a(lp3819
I3048
aI3071
aaI1
aS'Lang'
p3820
a(lp3821
I3063
aI3063
aaI-1
aI1
ag31
a(lp3822
I3064
aI3070
aaI1
ag31
a(lp3823
I3069
aI3069
aaI-1
aI1
ag447
a(lp3824
I3065
aI3068
aaI1
ag31
a(lp3825
I3067
aI3067
aaI-1
aI1
ag447
a(lp3826
I3066
aI3066
aaI-1
aI1
ag100
a(lp3827
I3068
aI3068
aaI-2
aI1
ag100
a(lp3828
I3070
aI3070
aaI-2
aI1
ag447
a(lp3829
I3049
aI3062
aaI1
aS'Lang'
p3830
a(lp3831
I3060
aI3060
aaI-1
aI1
ag31
a(lp3832
I3061
aI3061
aaI-1
aI1
ag447
a(lp3833
I3050
aI3059
aaI1
ag35
a(lp3834
I3051
aI3053
aaI1
aS'Headers'
p3835
a(lp3836
I3052
aI3052
aaI-1
aI1
ag105
a(lp3837
I3053
aI3053
aaI-2
aI1
aS'Lang'
p3838
a(lp3839
I3057
aI3057
aaI-1
aI1
ag447
a(lp3840
I3054
aI3056
aaI1
ag31
a(lp3841
I3055
aI3055
aaI-1
aI1
ag100
a(lp3842
I3056
aI3056
aaI-2
aI1
ag100
a(lp3843
I3059
aI3059
aaI-1
aI1
ag31
a(lp3844
I3058
aI3058
aaI-2
aI1
ag100
a(lp3845
I3062
aI3062
aaI-2
aI1
ag100
a(lp3846
I3071
aI3071
aaI-2
aI1
ag447
a(lp3847
I3023
aI3046
aaI1
ag35
a(lp3848
I3024
aI3034
aaI1
aS'BorderColor'
p3849
a(lp3850
I3026
aI3026
aaI-1
aI1
aS'Headers'
p3851
a(lp3852
I3029
aI3029
aaI-1
aI1
aS'InlineAlign'
p3853
a(lp3854
I3031
aI3031
aaI-1
aI1
ag105
a(lp3855
I3032
aI3032
aaI-1
aI1
aS'Height'
p3856
a(lp3857
I3030
aI3030
aaI-1
aI1
aS'Width'
p3858
a(lp3859
I3034
aI3034
aaI-1
aI1
aS'BlockAlign'
p3860
a(lp3861
I3025
aI3025
aaI-1
aI1
aS'BorderThickness'
p3862
a(lp3863
I3028
aI3028
aaI-1
aI1
aS'Scope'
p3864
a(lp3865
I3033
aI3033
aaI-1
aI1
aS'BorderStyle'
p3866
a(lp3867
I3027
aI3027
aaI-2
aI1
aS'Lang'
p3868
a(lp3869
I3042
aI3042
aaI-1
aI1
ag447
a(lp3870
I3036
aI3041
aaI1
ag31
a(lp3871
I3039
aI3039
aaI-1
aI1
ag100
a(lp3872
I3040
aI3040
aaI-1
aI1
ag447
a(lp3873
I3038
aI3038
aaI-1
aI1
ag91
a(lp3874
I3041
aI3041
aaI-1
aI1
aS'ActualText'
p3875
a(lp3876
I3037
aI3037
aaI-2
aI1
ag31
a(lp3877
I3043
aI3043
aaI-1
aI1
ag100
a(lp3878
I3045
aI3045
aaI-1
aI1
aS'Pg'
p3879
a(lp3880
I3044
aI3044
aaI-1
aI1
aS'ActualText'
p3881
a(lp3882
I3035
aI3035
aaI-1
aI1
ag91
a(lp3883
I3046
aI3046
aaI-2
aI1
ag100
a(lp3884
I3072
aI3072
aaI-1
aI1
ag91
a(lp3885
I3073
aI3073
aaI-2
aI1
ag100
a(lp3886
I3075
aI3075
aaI-1
aI1
aS'Pg'
p3887
a(lp3888
I3074
aI3074
aaI-1
aI1
aS'ID'
p3889
a(lp3890
I2988
aI2988
aaI-1
aI1
ag91
a(lp3891
I3076
aI3076
aaI-2
aI1
aS'Limits'
p3892
a(lp3893
I2974
aI2974
aaI-2
aI1
aS'Alt'
p3894
a(lp3895
I2955
aI2955
aaI-1
aI1
aS'ActualText'
p3896
a(lp3897
I2954
aI2954
aaI-1
aI1
aS'Par8'
p3898
a(lp3899
I3153
aI3153
aaI-2
aI1
aS'Extensions'
p3900
a(lp3901
I466
aI468
aaI1
aS'Name'
p3902
a(lp3903
I467
aI468
aaI1
aS'ExtensionLevel'
p3904
a(lp3905
I468
aI468
aaI-1
aI1
aS'BaseVersion'
p3906
a(lp3907
I467
aI467
aaI-3
aI1
ag91
a(lp3908
I3483
aI3483
aaI-1
aI1
aS'PieceInfo'
p3909
a(lp3910
I2886
aI2903
aaI1
aS'MarkedPDF'
p3911
a(lp3912
I2887
aI2887
aaI1
aS'LastModified'
p3913
a(lp3914
I2887
aI2887
aaI-2
aI1
aS'PDFWP'
p3915
a(lp3916
I2888
aI2903
aaI1
aS'LastModified'
p3917
a(lp3918
I2889
aI2889
aaI-1
aI1
aS'Private'
p3919
a(lp3920
I2890
aI2903
aaI1
aS'Version'
p3921
a(lp3922
I2903
aI2903
aaI-1
aI1
aS'MasterPages'
p3923
a(lp3924
I2902
aI2902
aaI-1
aI1
aS'Flows'
p3925
a(lp3926
I2891
aI2901
aaI1
aS'Names'
p3927
a(lp3928
I2892
aI2901
aaI1
aS'Type'
p3929
a(lp3930
I2901
aI2901
aaI-1
aI1
aS'Name'
p3931
a(lp3932
I2900
aI2900
aaI-1
aI1
ag205
a(lp3933
I2893
aI2899
aaI1
ag205
a(lp3934
I2894
aI2894
aaI-1
aI1
ag105
a(lp3935
I2896
aI2896
aaI-1
aI1
ag88
a(lp3936
I2895
aI2895
aaI-1
aI1
ag31
a(lp3937
I2897
aI2897
aaI-1
aI1
ag71
a(lp3938
I2899
aI2899
aaI-1
aI1
aS'Type'
p3939
a(lp3940
I2898
aI2898
aaI-7
aI1
ag88
a(lp3941
I506
aI506
aaI-1
aI1
aS'outlines'
p3942
a(lp3943
I3512
aI3514
aaI1
aS'Count'
p3944
a(lp3945
I3513
aI3513
aaI-1
aI1
aS'Type'
p3946
a(lp3947
I3514
aI3514
aaI-2
aI1
aS'PageLayout'
p3948
a(lp3949
I1551
aI1551
aaI-1
aI1
aS'Perms'
p3950
a(lp3951
I2748
aI2885
aaI1
aS'DocMDP'
p3952
a(lp3953
I2749
aI2784
aaI1
aS'Name'
p3954
a(lp3955
I2756
aI2756
aaI-1
aI1
aS'Reference'
p3956
a(lp3957
I2766
aI2782
aaI1
aS'TransformParams'
p3958
a(lp3959
I2777
aI2781
aaI1
aS'Action'
p3960
a(lp3961
I2777
aI2777
aaI-1
aI1
aS'Fields'
p3962
a(lp3963
I2778
aI2778
aaI-1
aI1
aS'Type'
p3964
a(lp3965
I2780
aI2780
aaI-1
aI1
ag31
a(lp3966
I2779
aI2779
aaI-1
aI1
ag71
a(lp3967
I2781
aI2781
aaI-2
aI1
aS'DigestValue'
p3968
a(lp3969
I2775
aI2775
aaI-1
aI1
aS'Data'
p3970
a(lp3971
I2766
aI2772
aaI1
aS'Perms'
p3972
a(lp3973
I2770
aI2770
aaI-1
aI1
aS'Version'
p3974
a(lp3975
I2772
aI2772
aaI-1
aI1
aS'AcroForm'
p3976
a(lp3977
I2767
aI2767
aaI-1
aI1
aS'Type'
p3978
a(lp3979
I2771
aI2771
aaI-1
aI1
aS'Pages'
p3980
a(lp3981
I2769
aI2769
aaI-1
aI1
aS'Metadata'
p3982
a(lp3983
I2768
aI2768
aaI-2
aI1
aS'DigestLocation'
p3984
a(lp3985
I2773
aI2773
aaI-1
aI1
aS'DigestMethod'
p3986
a(lp3987
I2774
aI2774
aaI-1
aI1
aS'TransformMethod'
p3988
a(lp3989
I2776
aI2776
aaI-1
aI1
aS'Type'
p3990
a(lp3991
I2782
aI2782
aaI-2
aI1
aS'Prop_Build'
p3992
a(lp3993
I2757
aI2764
aaI1
aS'Filter'
p3994
a(lp3995
I2761
aI2764
aaI1
aS'Date'
p3996
a(lp3997
I2761
aI2761
aaI-1
aI1
ag54
a(lp3998
I2764
aI2764
aaI-1
aI1
aS'PreRelease'
p3999
a(lp4000
I2763
aI2763
aaI-1
aI1
aS'Name'
p4001
a(lp4002
I2762
aI2762
aaI-2
aI1
aS'App'
p4003
a(lp4004
I2757
aI2760
aaI1
aS'REx'
p4005
a(lp4006
I2759
aI2759
aaI-1
aI1
aS'OS'
p4007
a(lp4008
I2758
aI2758
aaI-1
aI1
aS'Name'
p4009
a(lp4010
I2757
aI2757
aaI-1
aI1
aS'TrustedMode'
p4011
a(lp4012
I2760
aI2760
aaI-3
aI1
ag218
a(lp4013
I2755
aI2755
aaI-1
aI1
aS'Filter'
p4014
a(lp4015
I2753
aI2753
aaI-1
aI1
aS'Reason'
p4016
a(lp4017
I2765
aI2765
aaI-1
aI1
aS'ByteRange'
p4018
a(lp4019
I2750
aI2750
aaI-1
aI1
aS'Location'
p4020
a(lp4021
I2754
aI2754
aaI-1
aI1
aS'ContactInfo'
p4022
a(lp4023
I2751
aI2751
aaI-1
aI1
aS'Type'
p4024
a(lp4025
I2784
aI2784
aaI-1
aI1
aS'SubFilter'
p4026
a(lp4027
I2783
aI2783
aaI-1
aI1
aS'Contents'
p4028
a(lp4029
I2752
aI2752
aaI-2
aI1
aS'UR3'
p4030
a(lp4031
I2785
aI2885
aaI1
aS'Name'
p4032
a(lp4033
I2790
aI2790
aaI-1
aI1
aS'Reference'
p4034
a(lp4035
I2805
aI2883
aaI1
aS'TransformMethod'
p4036
a(lp4037
I2874
aI2874
aaI-1
aI1
aS'TransformParams'
p4038
a(lp4039
I2875
aI2882
aaI1
ag71
a(lp4040
I2882
aI2882
aaI-1
aI1
aS'Form'
p4041
a(lp4042
I2878
aI2878
aaI-1
aI1
aS'EF'
p4043
a(lp4044
I2877
aI2877
aaI-1
aI1
aS'Annots'
p4045
a(lp4046
I2875
aI2875
aaI-1
aI1
aS'Signature'
p4047
a(lp4048
I2880
aI2880
aaI-1
aI1
aS'Msg'
p4049
a(lp4050
I2879
aI2879
aaI-1
aI1
aS'Document'
p4051
a(lp4052
I2876
aI2876
aaI-1
aI1
aS'Type'
p4053
a(lp4054
I2881
aI2881
aaI-2
aI1
aS'Type'
p4055
a(lp4056
I2883
aI2883
aaI-1
aI1
aS'Data'
p4057
a(lp4058
I2805
aI2873
aaI1
aS'DGAPChanges'
p4059
a(lp4060
I2812
aI2812
aaI-1
aI1
aS'AA'
p4061
a(lp4062
I2806
aI2806
aaI-1
aI1
aS'FICL:Enfocus'
p4063
a(lp4064
I2815
aI2815
aaI-1
aI1
aS'JT'
p4065
a(lp4066
I2816
aI2816
aaI-1
aI1
aS'ViewerPreferences'
p4067
a(lp4068
I2872
aI2873
aaI1
aS'Direction'
p4069
a(lp4070
I2873
aI2873
aaI-2
aI1
aS'MarkInfo'
p4071
a(lp4072
I2818
aI2819
aaI1
aS'Marked'
p4073
a(lp4074
I2819
aI2819
aaI-2
aI1
aS'OpenAction'
p4075
a(lp4076
I2833
aI2833
aaI-1
aI1
aS'Version'
p4077
a(lp4078
I2871
aI2871
aaI-1
aI1
aS'AcroForm'
p4079
a(lp4080
I2807
aI2811
aaI1
aS'Fields'
p4081
a(lp4082
I2810
aI2810
aaI-1
aI1
aS'DR'
p4083
a(lp4084
I2809
aI2809
aaI-1
aI1
aS'SigFlags'
p4085
a(lp4086
I2811
aI2811
aaI-1
aI1
aS'DA'
p4087
a(lp4088
I2808
aI2808
aaI-2
aI1
aS'Type'
p4089
a(lp4090
I2870
aI2870
aaI-1
aI1
aS'Metadata'
p4091
a(lp4092
I2820
aI2820
aaI-1
aI1
aS'Outlines'
p4093
a(lp4094
I2834
aI2834
aaI-1
aI1
aS'Lang'
p4095
a(lp4096
I2817
aI2817
aaI-1
aI1
aS'StructTreeRoot'
p4097
a(lp4098
I2869
aI2869
aaI-1
aI1
aS'NeedsRendering'
p4099
a(lp4100
I2822
aI2822
aaI-1
aI1
aS'Extensions'
p4101
a(lp4102
I2813
aI2814
aaI1
aS'ADBE'
p4103
a(lp4104
I2813
aI2814
aaI1
aS'ExtensionLevel'
p4105
a(lp4106
I2814
aI2814
aaI-1
aI1
aS'BaseVersion'
p4107
a(lp4108
I2813
aI2813
aaI-3
aI1
aS'PageLayout'
p4109
a(lp4110
I2836
aI2836
aaI-1
aI1
aS'Perms'
p4111
a(lp4112
I2839
aI2868
aaI1
aS'UR3'
p4113
a(lp4114
I2840
aI2868
aaI1
aS'Name'
p4115
a(lp4116
I2845
aI2845
aaI-1
aI1
aS'Reference'
p4117
a(lp4118
I2858
aI2866
aaI1
aS'TransformMethod'
p4119
a(lp4120
I2859
aI2859
aaI-1
aI1
aS'TransformParams'
p4121
a(lp4122
I2860
aI2865
aaI1
aS'Form'
p4123
a(lp4124
I2862
aI2862
aaI-1
aI1
aS'Signature'
p4125
a(lp4126
I2863
aI2863
aaI-1
aI1
aS'Annots'
p4127
a(lp4128
I2860
aI2860
aaI-1
aI1
ag71
a(lp4129
I2865
aI2865
aaI-1
aI1
aS'Document'
p4130
a(lp4131
I2861
aI2861
aaI-1
aI1
aS'Type'
p4132
a(lp4133
I2864
aI2864
aaI-2
aI1
aS'Type'
p4134
a(lp4135
I2866
aI2866
aaI-1
aI1
aS'Data'
p4136
a(lp4137
I2858
aI2858
aaI-2
aI1
aS'Prop_Build'
p4138
a(lp4139
I2846
aI2857
aaI1
aS'Filter'
p4140
a(lp4141
I2851
aI2854
aaI1
aS'Date'
p4142
a(lp4143
I2851
aI2851
aaI-1
aI1
ag54
a(lp4144
I2853
aI2853
aaI-1
aI1
aS'Name'
p4145
a(lp4146
I2852
aI2852
aaI-1
aI1
ag71
a(lp4147
I2854
aI2854
aaI-2
aI1
aS'App'
p4148
a(lp4149
I2846
aI2850
aaI1
aS'REx'
p4150
a(lp4151
I2849
aI2849
aaI-1
aI1
ag54
a(lp4152
I2848
aI2848
aaI-1
aI1
aS'OS'
p4153
a(lp4154
I2847
aI2847
aaI-1
aI1
aS'Name'
p4155
a(lp4156
I2846
aI2846
aaI-1
aI1
aS'TrustedMode'
p4157
a(lp4158
I2850
aI2850
aaI-2
aI1
aS'PubSec'
p4159
a(lp4160
I2855
aI2857
aaI1
aS'Date'
p4161
a(lp4162
I2855
aI2855
aaI-1
aI1
aS'NonEFontNoWarn'
p4163
a(lp4164
I2856
aI2856
aaI-1
aI1
ag54
a(lp4165
I2857
aI2857
aaI-3
aI1
ag218
a(lp4166
I2844
aI2844
aaI-1
aI1
aS'Filter'
p4167
a(lp4168
I2843
aI2843
aaI-1
aI1
aS'ByteRange'
p4169
a(lp4170
I2841
aI2841
aaI-1
aI1
aS'Type'
p4171
a(lp4172
I2868
aI2868
aaI-1
aI1
aS'SubFilter'
p4173
a(lp4174
I2867
aI2867
aaI-1
aI1
aS'Contents'
p4175
a(lp4176
I2842
aI2842
aaI-3
aI1
aS'PageLabels'
p4177
a(lp4178
I2835
aI2835
aaI-1
aI1
aS'Pages'
p4179
a(lp4180
I2838
aI2838
aaI-1
aI1
aS'OCProperties'
p4181
a(lp4182
I2823
aI2832
aaI1
aS'OCGs'
p4183
a(lp4184
I2832
aI2832
aaI-1
aI1
ag45
a(lp4185
I2823
aI2831
aaI1
aS'ON'
p4186
a(lp4187
I2829
aI2829
aaI-1
aI1
aS'Locked'
p4188
a(lp4189
I2827
aI2827
aaI-1
aI1
aS'AS'
p4190
a(lp4191
I2823
aI2825
aaI1
aS'Category'
p4192
a(lp4193
I2823
aI2823
aaI-1
aI1
aS'OCGs'
p4194
a(lp4195
I2825
aI2825
aaI-1
aI1
aS'Event'
p4196
a(lp4197
I2824
aI2824
aaI-2
aI1
aS'RBGroups'
p4198
a(lp4199
I2831
aI2831
aaI-1
aI1
aS'OFF'
p4200
a(lp4201
I2828
aI2828
aaI-1
aI1
aS'BaseState'
p4202
a(lp4203
I2826
aI2826
aaI-1
aI1
aS'Order'
p4204
a(lp4205
I2830
aI2830
aaI-3
aI1
aS'Names'
p4206
a(lp4207
I2821
aI2821
aaI-1
aI1
aS'PageMode'
p4208
a(lp4209
I2837
aI2837
aaI-3
aI1
aS'Prop_Build'
p4210
a(lp4211
I2791
aI2804
aaI1
aS'Filter'
p4212
a(lp4213
I2797
aI2801
aaI1
aS'Date'
p4214
a(lp4215
I2797
aI2797
aaI-1
aI1
ag54
a(lp4216
I2800
aI2800
aaI-1
aI1
aS'PreRelease'
p4217
a(lp4218
I2799
aI2799
aaI-1
aI1
aS'Name'
p4219
a(lp4220
I2798
aI2798
aaI-1
aI1
ag71
a(lp4221
I2801
aI2801
aaI-2
aI1
aS'App'
p4222
a(lp4223
I2791
aI2796
aaI1
aS'REx'
p4224
a(lp4225
I2795
aI2795
aaI-1
aI1
aS'Name'
p4226
a(lp4227
I2792
aI2792
aaI-1
aI1
ag54
a(lp4228
I2794
aI2794
aaI-1
aI1
aS'TrustedMode'
p4229
a(lp4230
I2796
aI2796
aaI-1
aI1
aS'Date'
p4231
a(lp4232
I2791
aI2791
aaI-1
aI1
aS'OS'
p4233
a(lp4234
I2793
aI2793
aaI-2
aI1
aS'PubSec'
p4235
a(lp4236
I2802
aI2804
aaI1
aS'Date'
p4237
a(lp4238
I2802
aI2802
aaI-1
aI1
aS'NonEFontNoWarn'
p4239
a(lp4240
I2803
aI2803
aaI-1
aI1
ag54
a(lp4241
I2804
aI2804
aaI-3
aI1
ag218
a(lp4242
I2789
aI2789
aaI-1
aI1
aS'Filter'
p4243
a(lp4244
I2788
aI2788
aaI-1
aI1
aS'ByteRange'
p4245
a(lp4246
I2786
aI2786
aaI-1
aI1
aS'Type'
p4247
a(lp4248
I2885
aI2885
aaI-1
aI1
aS'SubFilter'
p4249
a(lp4250
I2884
aI2884
aaI-1
aI1
aS'Contents'
p4251
a(lp4252
I2787
aI2787
aaI-3
aI1
aS'PageLabels'
p4253
a(lp4254
I1541
aI1550
aaI1
ag100
a(lp4255
I1550
aI1550
aaI-1
aI1
aS'JS'
p4256
a(lp4257
I1542
aI1545
aaI1
aS'Filter'
p4258
a(lp4259
I1544
aI1544
aaI-1
aI1
aS'DL'
p4260
a(lp4261
I1543
aI1543
aaI-1
aI1
aS'Length'
p4262
a(lp4263
I1545
aI1545
aaI-2
aI1
aS'Nums'
p4264
a(lp4265
I1546
aI1549
aaI1
ag31
a(lp4266
I1547
aI1547
aaI-1
aI1
ag100
a(lp4267
I1548
aI1548
aaI-1
aI1
aS'St'
p4268
a(lp4269
I1549
aI1549
aaI-3
aI1
aS'openAction'
p4270
a(lp4271
I3510
aI3511
aaI1
ag100
a(lp4272
I3511
aI3511
aaI-1
aI1
aS'JS'
p4273
a(lp4274
I3510
aI3510
aaI-2
aI1
aS'Pages'
p4275
a(lp4276
I1553
aI2747
aaI1
aS'AA'
p4277
a(lp4278
I1555
aI1570
aaI1
aS'<nn>'
p4279
a(lp4280
I1556
aI1556
aaI-1
aI1
ag105
a(lp4281
I1557
aI1570
aaI1
aS'Win'
p4282
a(lp4283
I1568
aI1570
aaI1
ag31
a(lp4284
I1570
aI1570
aaI-1
aI1
ag45
a(lp4285
I1568
aI1568
aaI-1
aI1
ag205
a(lp4286
I1569
aI1569
aaI-2
aI1
aS'URI'
p4287
a(lp4288
I1567
aI1567
aaI-1
aI1
aS'JS'
p4289
a(lp4290
I1558
aI1560
aaI1
aS'Filter'
p4291
a(lp4292
I1559
aI1559
aaI-1
aI1
aS'Length'
p4293
a(lp4294
I1560
aI1560
aaI-2
aI1
ag100
a(lp4295
I1562
aI1562
aaI-1
aI1
ag91
a(lp4296
I1563
aI1565
aaI1
ag88
a(lp4297
I1563
aI1563
aaI-1
aI1
ag54
a(lp4298
I1565
aI1565
aaI-1
aI1
aS'NewWindow'
p4299
a(lp4300
I1564
aI1564
aaI-2
aI1
aS'NewWindow'
p4301
a(lp4302
I1561
aI1561
aaI-1
aI1
aS'Type'
p4303
a(lp4304
I1566
aI1566
aaI-3
aI1
aS'XObject'
p4305
a(lp4306
I2743
aI2743
aaI-1
aI1
aS'Group'
p4307
a(lp4308
I1854
aI1863
aaI1
aS'CS'
p4309
a(lp4310
I1855
aI1859
aaI1
aS'Filter'
p4311
a(lp4312
I1857
aI1857
aaI-1
aI1
aS'Length'
p4313
a(lp4314
I1858
aI1858
aaI-1
aI1
aS'Alternate'
p4315
a(lp4316
I1856
aI1856
aaI-1
aI1
ag88
a(lp4317
I1859
aI1859
aaI-2
aI1
ag98
a(lp4318
I1860
aI1860
aaI-1
aI1
ag447
a(lp4319
I1861
aI1861
aaI-1
aI1
aS'Type'
p4320
a(lp4321
I1863
aI1863
aaI-1
aI1
ag100
a(lp4322
I1862
aI1862
aaI-2
aI1
aS'Thumb'
p4323
a(lp4324
I2716
aI2724
aaI1
aS'ColorSpace'
p4325
a(lp4326
I2718
aI2720
aaI1
aS'Filter'
p4327
a(lp4328
I2719
aI2719
aaI-1
aI1
aS'Length'
p4329
a(lp4330
I2720
aI2720
aaI-2
aI1
aS'Height'
p4331
a(lp4332
I2722
aI2722
aaI-1
aI1
aS'Filter'
p4333
a(lp4334
I2721
aI2721
aaI-1
aI1
aS'Width'
p4335
a(lp4336
I2724
aI2724
aaI-1
aI1
aS'Length'
p4337
a(lp4338
I2723
aI2723
aaI-1
aI1
aS'BitsPerComponent'
p4339
a(lp4340
I2717
aI2717
aaI-2
aI1
aS'LastModified'
p4341
a(lp4342
I1869
aI1869
aaI-1
aI1
aS'JavaScript'
p4343
a(lp4344
I1867
aI1868
aaI1
aS'Length'
p4345
a(lp4346
I1868
aI1868
aaI-2
aI1
aS'pdftk_PageNum'
p4347
a(lp4348
I2747
aI2747
aaI-1
aI1
ag85
a(lp4349
I1832
aI1837
aaI1
ag31
a(lp4350
I1834
aI1834
aaI-1
aI1
ag88
a(lp4351
I1833
aI1833
aaI-1
aI1
ag54
a(lp4352
I1835
aI1835
aaI-1
aI1
ag91
a(lp4353
I1836
aI1836
aaI-1
aI1
ag71
a(lp4354
I1837
aI1837
aaI-2
aI1
aS'CropBox'
p4355
a(lp4356
I1849
aI1849
aaI-1
aI1
aS'<nn>'
p4357
a(lp4358
I1554
aI1554
aaI-1
aI1
aS'Type'
p4359
a(lp4360
I2733
aI2733
aaI-1
aI1
aS'contents'
p4361
a(lp4362
I2744
aI2744
aaI-1
aI1
aS'MediaBox'
p4363
a(lp4364
I1871
aI1871
aaI-1
aI1
aS'PZ'
p4365
a(lp4366
I1872
aI1872
aaI-1
aI1
aS'Annots'
p4367
a(lp4368
I1571
aI1830
aaI1
aS'RichMediaSettings'
p4369
a(lp4370
I1793
aI1819
aaI1
aS'Activation'
p4371
a(lp4372
I1793
aI1810
aaI1
aS'Presentation'
p4373
a(lp4374
I1805
aI1809
aaI1
aS'PassContextClick'
p4375
a(lp4376
I1806
aI1806
aaI-1
aI1
aS'NavigationPane'
p4377
a(lp4378
I1805
aI1805
aaI-1
aI1
aS'Style'
p4379
a(lp4380
I1807
aI1807
aaI-1
aI1
aS'Toolbar'
p4381
a(lp4382
I1808
aI1808
aaI-1
aI1
aS'Transparent'
p4383
a(lp4384
I1809
aI1809
aaI-2
aI1
aS'Configuration'
p4385
a(lp4386
I1794
aI1804
aaI1
aS'Instances'
p4387
a(lp4388
I1795
aI1802
aaI1
aS'Params'
p4389
a(lp4390
I1801
aI1802
aaI1
aS'Binding'
p4391
a(lp4392
I1802
aI1802
aaI-2
aI1
aS'Asset'
p4393
a(lp4394
I1796
aI1800
aaI1
aS'UF'
p4395
a(lp4396
I1800
aI1800
aaI-1
aI1
aS'Type'
p4397
a(lp4398
I1799
aI1799
aaI-1
aI1
aS'EF'
p4399
a(lp4400
I1797
aI1797
aaI1
ag205
a(lp4401
I1797
aI1797
aaI-2
aI1
ag205
a(lp4402
I1798
aI1798
aaI-3
aI1
aS'Type'
p4403
a(lp4404
I1804
aI1804
aaI-1
aI1
aS'Subtype'
p4405
a(lp4406
I1803
aI1803
aaI-2
aI1
aS'Type'
p4407
a(lp4408
I1810
aI1810
aaI-1
aI1
aS'Condition'
p4409
a(lp4410
I1793
aI1793
aaI-2
aI1
aS'Configuration'
p4411
a(lp4412
I1811
aI1817
aaI1
aS'Instances'
p4413
a(lp4414
I1811
aI1815
aaI1
aS'Params'
p4415
a(lp4416
I1815
aI1815
aaI1
aS'Binding'
p4417
a(lp4418
I1815
aI1815
aaI-2
aI1
aS'Asset'
p4419
a(lp4420
I1811
aI1814
aaI1
aS'UF'
p4421
a(lp4422
I1814
aI1814
aaI-1
aI1
aS'Type'
p4423
a(lp4424
I1813
aI1813
aaI-1
aI1
aS'EF'
p4425
a(lp4426
I1811
aI1811
aaI1
ag205
a(lp4427
I1811
aI1811
aaI-2
aI1
ag205
a(lp4428
I1812
aI1812
aaI-3
aI1
aS'Type'
p4429
a(lp4430
I1817
aI1817
aaI-1
aI1
aS'Subtype'
p4431
a(lp4432
I1816
aI1816
aaI-2
aI1
aS'Deactivation'
p4433
a(lp4434
I1818
aI1819
aaI1
aS'Type'
p4435
a(lp4436
I1819
aI1819
aaI-1
aI1
aS'Condition'
p4437
a(lp4438
I1818
aI1818
aaI-3
aI1
ag35
a(lp4439
I1583
aI1618
aaI1
ag45
a(lp4440
I1585
aI1585
aaI-1
aI1
ag205
a(lp4441
I1586
aI1589
aaI1
aS'UF'
p4442
a(lp4443
I1589
aI1589
aaI-1
aI1
aS'Type'
p4444
a(lp4445
I1588
aI1588
aaI-1
aI1
ag205
a(lp4446
I1587
aI1587
aaI-2
aI1
aS'URI'
p4447
a(lp4448
I1618
aI1618
aaI-1
aI1
aS'JS'
p4449
a(lp4450
I1591
aI1593
aaI1
aS'Filter'
p4451
a(lp4452
I1592
aI1592
aaI-1
aI1
aS'Length'
p4453
a(lp4454
I1593
aI1593
aaI-2
aI1
ag100
a(lp4455
I1616
aI1616
aaI-1
aI1
ag54
a(lp4456
I1595
aI1615
aaI1
ag210
a(lp4457
I1596
aI1612
aaI1
ag31
a(lp4458
I1611
aI1611
aaI1
aS'TF'
p4459
a(lp4460
I1611
aI1611
aaI-2
aI1
ag100
a(lp4461
I1612
aI1612
aaI-1
aI1
aS'CT'
p4462
a(lp4463
I1597
aI1597
aaI-1
aI1
ag45
a(lp4464
I1598
aI1609
aaI1
aS'UF'
p4465
a(lp4466
I1609
aI1609
aaI-1
aI1
aS'Type'
p4467
a(lp4468
I1608
aI1608
aaI-1
aI1
aS'EF'
p4469
a(lp4470
I1599
aI1606
aaI1
ag205
a(lp4471
I1599
aI1606
aaI1
aS'Subtype'
p4472
a(lp4473
I1606
aI1606
aaI-1
aI1
aS'DL'
p4474
a(lp4475
I1600
aI1600
aaI-1
aI1
aS'Params'
p4476
a(lp4477
I1602
aI1605
aaI1
aS'CheckSum'
p4478
a(lp4479
I1602
aI1602
aaI-1
aI1
aS'ModDate'
p4480
a(lp4481
I1604
aI1604
aaI-1
aI1
aS'CreationDate'
p4482
a(lp4483
I1603
aI1603
aaI-1
aI1
aS'Size'
p4484
a(lp4485
I1605
aI1605
aaI-2
aI1
aS'Length'
p4486
a(lp4487
I1601
aI1601
aaI-3
aI1
ag205
a(lp4488
I1607
aI1607
aaI-2
aI1
ag88
a(lp4489
I1610
aI1610
aaI-2
aI1
aS'SP'
p4490
a(lp4491
I1615
aI1615
aaI1
aS'BE'
p4492
a(lp4493
I1615
aI1615
aaI1
ag59
a(lp4494
I1615
aI1615
aaI-3
aI1
ag100
a(lp4495
I1614
aI1614
aaI-1
aI1
ag88
a(lp4496
I1613
aI1613
aaI-2
aI1
aS'IsMap'
p4497
a(lp4498
I1590
aI1590
aaI-1
aI1
aS'AN'
p4499
a(lp4500
I1584
aI1584
aaI-1
aI1
aS'Type'
p4501
a(lp4502
I1617
aI1617
aaI-1
aI1
aS'OP'
p4503
a(lp4504
I1594
aI1594
aaI-2
aI1
aS'FS'
p4505
a(lp4506
I1707
aI1719
aaI1
aS'UF'
p4507
a(lp4508
I1719
aI1719
aaI-1
aI1
aS'Type'
p4509
a(lp4510
I1718
aI1718
aaI-1
aI1
aS'EF'
p4511
a(lp4512
I1708
aI1716
aaI1
ag205
a(lp4513
I1708
aI1716
aaI1
aS'Filter'
p4514
a(lp4515
I1710
aI1710
aaI-1
aI1
aS'Subtype'
p4516
a(lp4517
I1716
aI1716
aaI-1
aI1
aS'DL'
p4518
a(lp4519
I1709
aI1709
aaI-1
aI1
aS'Params'
p4520
a(lp4521
I1712
aI1715
aaI1
aS'CheckSum'
p4522
a(lp4523
I1712
aI1712
aaI-1
aI1
aS'ModDate'
p4524
a(lp4525
I1714
aI1714
aaI-1
aI1
aS'CreationDate'
p4526
a(lp4527
I1713
aI1713
aaI-1
aI1
aS'Size'
p4528
a(lp4529
I1715
aI1715
aaI-2
aI1
aS'Length'
p4530
a(lp4531
I1711
aI1711
aaI-3
aI1
ag205
a(lp4532
I1717
aI1717
aaI-2
aI1
aS'FT'
p4533
a(lp4534
I1720
aI1720
aaI-1
aI1
aS'DA'
p4535
a(lp4536
I1702
aI1702
aaI-1
aI1
aS'State'
p4537
a(lp4538
I1820
aI1820
aaI-1
aI1
aS'StateModel'
p4539
a(lp4540
I1821
aI1821
aaI-1
aI1
aS'Border'
p4541
a(lp4542
I1697
aI1697
aaI-1
aI1
aS'QuadPoints'
p4543
a(lp4544
I1765
aI1765
aaI-1
aI1
aS'BS'
p4545
a(lp4546
I1693
aI1696
aaI1
ag100
a(lp4547
I1694
aI1694
aaI-1
aI1
aS'Type'
p4548
a(lp4549
I1695
aI1695
aaI-1
aI1
ag59
a(lp4550
I1696
aI1696
aaI-2
aI1
aS'DV'
p4551
a(lp4552
I1704
aI1704
aaI-1
aI1
aS'Type'
p4553
a(lp4554
I1829
aI1829
aaI-1
aI1
aS'DS'
p4555
a(lp4556
I1703
aI1703
aaI-1
aI1
aS'Opt'
p4557
a(lp4558
I1761
aI1761
aaI-1
aI1
aS'Popup'
p4559
a(lp4560
I1763
aI1763
aaI-1
aI1
aS'NM'
p4561
a(lp4562
I1757
aI1757
aaI-1
aI1
aS'Dest'
p4563
a(lp4564
I1705
aI1705
aaI-1
aI1
aS'TU'
p4565
a(lp4566
I1828
aI1828
aaI-1
aI1
aS'3DI'
p4567
a(lp4568
I1582
aI1582
aaI-1
aI1
aS'RD'
p4569
a(lp4570
I1767
aI1767
aaI-1
aI1
aS'Ff'
p4571
a(lp4572
I1721
aI1721
aaI-1
aI1
aS'RC'
p4573
a(lp4574
I1766
aI1766
aaI-1
aI1
aS'Rect'
p4575
a(lp4576
I1768
aI1768
aaI-1
aI1
aS'StructParent'
p4577
a(lp4578
I1822
aI1822
aaI-1
aI1
aS'AA'
p4579
a(lp4580
I1619
aI1625
aaI1
ag447
a(lp4581
I1623
aI1625
aaI1
ag100
a(lp4582
I1625
aI1625
aaI-1
aI1
aS'JS'
p4583
a(lp4584
I1624
aI1624
aaI-2
aI1
ag205
a(lp4585
I1620
aI1622
aaI1
ag100
a(lp4586
I1622
aI1622
aaI-1
aI1
aS'JS'
p4587
a(lp4588
I1621
aI1621
aaI-3
aI1
ag210
a(lp4589
I1698
aI1698
aaI-1
aI1
aS'Name'
p4590
a(lp4591
I1758
aI1758
aaI-1
aI1
ag31
a(lp4592
I1762
aI1762
aaI-1
aI1
ag205
a(lp4593
I1706
aI1706
aaI-1
aI1
ag98
a(lp4594
I1723
aI1723
aaI-1
aI1
ag216
a(lp4595
I1722
aI1722
aaI-1
aI1
aS'CA'
p4596
a(lp4597
I1699
aI1699
aaI-1
aI1
ag218
a(lp4598
I1728
aI1728
aaI-1
aI1
aS'IT'
p4599
a(lp4600
I1726
aI1726
aaI-1
aI1
aS'3DD'
p4601
a(lp4602
I1577
aI1581
aaI1
aS'Filter'
p4603
a(lp4604
I1578
aI1578
aaI-1
aI1
aS'Subtype'
p4605
a(lp4606
I1580
aI1580
aaI-1
aI1
aS'Length'
p4607
a(lp4608
I1579
aI1579
aaI-1
aI1
aS'Type'
p4609
a(lp4610
I1581
aI1581
aaI-2
aI1
aS'Subtype'
p4611
a(lp4612
I1826
aI1826
aaI-1
aI1
aS'AS'
p4613
a(lp4614
I1692
aI1692
aaI-1
aI1
aS'3DA'
p4615
a(lp4616
I1572
aI1576
aaI1
ag35
a(lp4617
I1572
aI1572
aaI-1
aI1
aS'TB'
p4618
a(lp4619
I1576
aI1576
aaI-1
aI1
ag45
a(lp4620
I1574
aI1574
aaI-1
aI1
aS'AIS'
p4621
a(lp4622
I1573
aI1573
aaI-1
aI1
aS'DIS'
p4623
a(lp4624
I1575
aI1575
aaI-2
aI1
ag71
a(lp4625
I1830
aI1830
aaI-1
aI1
aS'IC'
p4626
a(lp4627
I1724
aI1724
aaI-1
aI1
aS'InkList'
p4628
a(lp4629
I1727
aI1727
aaI-1
aI1
aS'IRT'
p4630
a(lp4631
I1725
aI1725
aaI-1
aI1
aS'RichMediaContent'
p4632
a(lp4633
I1769
aI1792
aaI1
aS'Subtype'
p4634
a(lp4635
I1792
aI1792
aaI-1
aI1
aS'Assets'
p4636
a(lp4637
I1770
aI1783
aaI1
aS'Names'
p4638
a(lp4639
I1771
aI1783
aaI1
aS'UF'
p4640
a(lp4641
I1783
aI1783
aaI-1
aI1
aS'Type'
p4642
a(lp4643
I1782
aI1782
aaI-1
aI1
aS'EF'
p4644
a(lp4645
I1772
aI1780
aaI1
ag205
a(lp4646
I1772
aI1780
aaI1
aS'Filter'
p4647
a(lp4648
I1774
aI1774
aaI-1
aI1
aS'Subtype'
p4649
a(lp4650
I1780
aI1780
aaI-1
aI1
aS'DL'
p4651
a(lp4652
I1773
aI1773
aaI-1
aI1
aS'Params'
p4653
a(lp4654
I1776
aI1779
aaI1
aS'CheckSum'
p4655
a(lp4656
I1776
aI1776
aaI-1
aI1
aS'ModDate'
p4657
a(lp4658
I1778
aI1778
aaI-1
aI1
aS'CreationDate'
p4659
a(lp4660
I1777
aI1777
aaI-1
aI1
aS'Size'
p4661
a(lp4662
I1779
aI1779
aaI-2
aI1
aS'Length'
p4663
a(lp4664
I1775
aI1775
aaI-3
aI1
ag205
a(lp4665
I1781
aI1781
aaI-3
aI1
aS'Configurations'
p4666
a(lp4667
I1784
aI1791
aaI1
aS'Instances'
p4668
a(lp4669
I1785
aI1789
aaI1
aS'Params'
p4670
a(lp4671
I1789
aI1789
aaI1
aS'Binding'
p4672
a(lp4673
I1789
aI1789
aaI-2
aI1
aS'Asset'
p4674
a(lp4675
I1785
aI1788
aaI1
aS'UF'
p4676
a(lp4677
I1788
aI1788
aaI-1
aI1
aS'Type'
p4678
a(lp4679
I1787
aI1787
aaI-1
aI1
aS'EF'
p4680
a(lp4681
I1785
aI1785
aaI1
ag205
a(lp4682
I1785
aI1785
aaI-2
aI1
ag205
a(lp4683
I1786
aI1786
aaI-3
aI1
aS'Type'
p4684
a(lp4685
I1791
aI1791
aaI-1
aI1
aS'Subtype'
p4686
a(lp4687
I1790
aI1790
aaI-3
aI1
ag252
a(lp4688
I1764
aI1764
aaI-1
aI1
aS'AP'
p4689
a(lp4690
I1626
aI1691
aaI1
ag45
a(lp4691
I1627
aI1637
aaI1
aS'Name'
p4692
a(lp4693
I1628
aI1637
aaI1
aS'Matrix'
p4694
a(lp4695
I1633
aI1633
aaI-1
aI1
aS'Filter'
p4696
a(lp4697
I1630
aI1630
aaI-1
aI1
aS'Subtype'
p4698
a(lp4699
I1636
aI1636
aaI-1
aI1
aS'Length'
p4700
a(lp4701
I1632
aI1632
aaI-1
aI1
aS'BBox'
p4702
a(lp4703
I1629
aI1629
aaI-1
aI1
aS'FormType'
p4704
a(lp4705
I1631
aI1631
aaI-1
aI1
aS'Type'
p4706
a(lp4707
I1637
aI1637
aaI-1
aI1
aS'Resources'
p4708
a(lp4709
I1634
aI1635
aaI1
aS'Font'
p4710
a(lp4711
I1634
aI1634
aaI1
aS'Name'
p4712
a(lp4713
I1634
aI1634
aaI-2
aI1
aS'ProcSet'
p4714
a(lp4715
I1635
aI1635
aaI-4
aI1
ag88
a(lp4716
I1638
aI1691
aaI1
aS'Name'
p4717
a(lp4718
I1639
aI1691
aaI1
aS'XObject'
p4719
a(lp4720
I1677
aI1691
aaI1
aS'Name'
p4721
a(lp4722
I1677
aI1691
aaI1
aS'Group'
p4723
a(lp4724
I1683
aI1683
aaI1
ag100
a(lp4725
I1683
aI1683
aaI-2
aI1
aS'Matrix'
p4726
a(lp4727
I1686
aI1686
aaI-1
aI1
aS'Subtype'
p4728
a(lp4729
I1689
aI1689
aaI-1
aI1
aS'ColorSpace'
p4730
a(lp4731
I1680
aI1680
aaI-1
aI1
aS'Height'
p4732
a(lp4733
I1684
aI1684
aaI-1
aI1
aS'Filter'
p4734
a(lp4735
I1681
aI1681
aaI-1
aI1
aS'Width'
p4736
a(lp4737
I1691
aI1691
aaI-1
aI1
aS'Length'
p4738
a(lp4739
I1685
aI1685
aaI-1
aI1
aS'BitsPerComponent'
p4740
a(lp4741
I1679
aI1679
aaI-1
aI1
aS'BBox'
p4742
a(lp4743
I1678
aI1678
aaI-1
aI1
aS'FormType'
p4744
a(lp4745
I1682
aI1682
aaI-1
aI1
aS'Type'
p4746
a(lp4747
I1690
aI1690
aaI-1
aI1
aS'Resources'
p4748
a(lp4749
I1687
aI1688
aaI1
aS'XObject'
p4750
a(lp4751
I1688
aI1688
aaI1
aS'Name'
p4752
a(lp4753
I1688
aI1688
aaI-2
aI1
aS'ProcSet'
p4754
a(lp4755
I1687
aI1687
aaI-4
aI1
aS'Matrix'
p4756
a(lp4757
I1671
aI1671
aaI-1
aI1
aS'ExtGState'
p4758
a(lp4759
I1641
aI1645
aaI1
aS'Name'
p4760
a(lp4761
I1641
aI1645
aaI1
aS'CA'
p4762
a(lp4763
I1643
aI1643
aaI-1
aI1
aS'Type'
p4764
a(lp4765
I1644
aI1644
aaI-1
aI1
aS'ca'
p4766
a(lp4767
I1645
aI1645
aaI-1
aI1
aS'AIS'
p4768
a(lp4769
I1642
aI1642
aaI-3
aI1
aS'ProcSet'
p4770
a(lp4771
I1672
aI1672
aaI-1
aI1
aS'Filter'
p4772
a(lp4773
I1646
aI1646
aaI-1
aI1
aS'Subtype'
p4774
a(lp4775
I1675
aI1675
aaI-1
aI1
aS'Length'
p4776
a(lp4777
I1670
aI1670
aaI-1
aI1
aS'BBox'
p4778
a(lp4779
I1640
aI1640
aaI-1
aI1
aS'FormType'
p4780
a(lp4781
I1669
aI1669
aaI-1
aI1
aS'Font'
p4782
a(lp4783
I1647
aI1668
aaI1
aS'Name'
p4784
a(lp4785
I1647
aI1668
aaI1
aS'LastChar'
p4786
a(lp4787
I1665
aI1665
aaI-1
aI1
aS'Encoding'
p4788
a(lp4789
I1649
aI1649
aaI-1
aI1
aS'BaseFont'
p4790
a(lp4791
I1648
aI1648
aaI-1
aI1
aS'Widths'
p4792
a(lp4793
I1668
aI1668
aaI-1
aI1
aS'Subtype'
p4794
a(lp4795
I1666
aI1666
aaI-1
aI1
aS'FontDescriptor'
p4796
a(lp4797
I1651
aI1664
aaI1
aS'FontName'
p4798
a(lp4799
I1658
aI1658
aaI-1
aI1
aS'Descent'
p4800
a(lp4801
I1654
aI1654
aaI-1
aI1
aS'FontBBox'
p4802
a(lp4803
I1656
aI1656
aaI-1
aI1
aS'FontFamily'
p4804
a(lp4805
I1657
aI1657
aaI-1
aI1
aS'CapHeight'
p4806
a(lp4807
I1653
aI1653
aaI-1
aI1
aS'Ascent'
p4808
a(lp4809
I1652
aI1652
aaI-1
aI1
aS'FontWeight'
p4810
a(lp4811
I1660
aI1660
aaI-1
aI1
aS'StemV'
p4812
a(lp4813
I1662
aI1662
aaI-1
aI1
aS'Flags'
p4814
a(lp4815
I1655
aI1655
aaI-1
aI1
aS'XHeight'
p4816
a(lp4817
I1664
aI1664
aaI-1
aI1
aS'ItalicAngle'
p4818
a(lp4819
I1661
aI1661
aaI-1
aI1
aS'Type'
p4820
a(lp4821
I1663
aI1663
aaI-1
aI1
aS'FontStretch'
p4822
a(lp4823
I1659
aI1659
aaI-2
aI1
aS'Type'
p4824
a(lp4825
I1667
aI1667
aaI-1
aI1
aS'FirstChar'
p4826
a(lp4827
I1650
aI1650
aaI-3
aI1
aS'Type'
p4828
a(lp4829
I1676
aI1676
aaI-1
aI1
aS'Resources'
p4830
a(lp4831
I1673
aI1674
aaI1
aS'Font'
p4832
a(lp4833
I1673
aI1673
aaI1
aS'Name'
p4834
a(lp4835
I1673
aI1673
aaI-2
aI1
aS'ProcSet'
p4836
a(lp4837
I1674
aI1674
aaI-5
aI1
aS'Open'
p4838
a(lp4839
I1760
aI1760
aaI-1
aI1
aS'OC'
p4840
a(lp4841
I1759
aI1759
aaI-1
aI1
aS'MK'
p4842
a(lp4843
I1729
aI1755
aaI1
aS'AC'
p4844
a(lp4845
I1730
aI1730
aaI-1
aI1
aS'BG'
p4846
a(lp4847
I1732
aI1732
aaI-1
aI1
aS'BC'
p4848
a(lp4849
I1731
aI1731
aaI-1
aI1
ag98
a(lp4850
I1734
aI1751
aaI1
aS'Name'
p4851
a(lp4852
I1738
aI1738
aaI-1
aI1
aS'Subtype'
p4853
a(lp4854
I1750
aI1750
aaI-1
aI1
aS'Length'
p4855
a(lp4856
I1737
aI1737
aaI-1
aI1
aS'BBox'
p4857
a(lp4858
I1735
aI1735
aaI-1
aI1
aS'FormType'
p4859
a(lp4860
I1736
aI1736
aaI-1
aI1
aS'Type'
p4861
a(lp4862
I1751
aI1751
aaI-1
aI1
aS'Resources'
p4863
a(lp4864
I1739
aI1749
aaI1
aS'XObject'
p4865
a(lp4866
I1740
aI1749
aaI1
aS'Name'
p4867
a(lp4868
I1740
aI1749
aaI1
aS'Decode'
p4869
a(lp4870
I1743
aI1743
aaI-1
aI1
aS'Subtype'
p4871
a(lp4872
I1747
aI1747
aaI-1
aI1
aS'ColorSpace'
p4873
a(lp4874
I1742
aI1742
aaI-1
aI1
aS'Height'
p4875
a(lp4876
I1745
aI1745
aaI-1
aI1
aS'Filter'
p4877
a(lp4878
I1744
aI1744
aaI-1
aI1
aS'Width'
p4879
a(lp4880
I1749
aI1749
aaI-1
aI1
aS'Length'
p4881
a(lp4882
I1746
aI1746
aaI-1
aI1
aS'Type'
p4883
a(lp4884
I1748
aI1748
aaI-1
aI1
aS'BitsPerComponent'
p4885
a(lp4886
I1741
aI1741
aaI-3
aI1
aS'ProcSet'
p4887
a(lp4888
I1739
aI1739
aaI-3
aI1
aS'CA'
p4889
a(lp4890
I1733
aI1733
aaI-1
aI1
aS'TP'
p4891
a(lp4892
I1755
aI1755
aaI-1
aI1
aS'RC'
p4893
a(lp4894
I1754
aI1754
aaI-1
aI1
aS'IF'
p4895
a(lp4896
I1752
aI1753
aaI1
ag35
a(lp4897
I1753
aI1753
aaI-3
aI1
aS'MaxLen'
p4898
a(lp4899
I1756
aI1756
aaI-1
aI1
aS'CreationDate'
p4900
a(lp4901
I1701
aI1701
aaI-1
aI1
aS'Subj'
p4902
a(lp4903
I1823
aI1825
aaI1
aS'Filter'
p4904
a(lp4905
I1824
aI1824
aaI-1
aI1
aS'Length'
p4906
a(lp4907
I1825
aI1825
aaI-2
aI1
aS'Contents'
p4908
a(lp4909
I1700
aI1700
aaI-1
aI1
ag91
a(lp4910
I1827
aI1827
aaI-2
aI1
aS'ProcSet'
p4911
a(lp4912
I1966
aI1966
aaI-1
aI1
aS'Resources'
p4913
a(lp4914
I1968
aI2711
aaI1
aS'XObject'
p4915
a(lp4916
I2402
aI2711
aaI1
aS'Name'
p4917
a(lp4918
I2403
aI2711
aaI1
aS'Group'
p4919
a(lp4920
I2433
aI2438
aaI1
aS'CS'
p4921
a(lp4922
I2434
aI2434
aaI-1
aI1
ag98
a(lp4923
I2435
aI2435
aaI-1
aI1
ag447
a(lp4924
I2436
aI2436
aaI-1
aI1
aS'Type'
p4925
a(lp4926
I2438
aI2438
aaI-1
aI1
ag100
a(lp4927
I2437
aI2437
aaI-2
aI1
aS'Matrix'
p4928
a(lp4929
I2457
aI2457
aaI-1
aI1
aS'LastModified'
p4930
a(lp4931
I2444
aI2444
aaI-1
aI1
aS'Decode'
p4932
a(lp4933
I2417
aI2417
aaI-1
aI1
aS'Width'
p4934
a(lp4935
I2709
aI2709
aaI-1
aI1
aS'ImageMask'
p4936
a(lp4937
I2440
aI2440
aaI-1
aI1
aS'BBox'
p4938
a(lp4939
I2404
aI2404
aaI-1
aI1
aS'Type'
p4940
a(lp4941
I2708
aI2708
aaI-1
aI1
aS'Resources'
p4942
a(lp4943
I2488
aI2682
aaI1
aS'XObject'
p4944
a(lp4945
I2615
aI2682
aaI1
aS'Name'
p4946
a(lp4947
I2615
aI2682
aaI1
aS'DecodeParms'
p4948
a(lp4949
I2620
aI2622
aaI1
ag447
a(lp4950
I2622
aI2622
aaI-1
aI1
aS'Columns'
p4951
a(lp4952
I2621
aI2621
aaI-2
aI1
aS'Decode'
p4953
a(lp4954
I2619
aI2619
aaI-1
aI1
aS'SMask'
p4955
a(lp4956
I2661
aI2679
aaI1
aS'DecodeParms'
p4957
a(lp4958
I2665
aI2667
aaI1
aS'Colors'
p4959
a(lp4960
I2666
aI2666
aaI-1
aI1
aS'BitsPerComponent'
p4961
a(lp4962
I2665
aI2665
aaI-1
aI1
aS'Columns'
p4963
a(lp4964
I2667
aI2667
aaI-2
aI1
aS'Decode'
p4965
a(lp4966
I2664
aI2664
aaI-1
aI1
aS'Name'
p4967
a(lp4968
I2676
aI2676
aaI-1
aI1
aS'Subtype'
p4969
a(lp4970
I2677
aI2677
aaI-1
aI1
aS'ColorSpace'
p4971
a(lp4972
I2663
aI2663
aaI-1
aI1
aS'Height'
p4973
a(lp4974
I2669
aI2669
aaI-1
aI1
aS'Filter'
p4975
a(lp4976
I2668
aI2668
aaI-1
aI1
aS'Width'
p4977
a(lp4978
I2679
aI2679
aaI-1
aI1
aS'Length'
p4979
a(lp4980
I2671
aI2671
aaI-1
aI1
aS'Intent'
p4981
a(lp4982
I2670
aI2670
aaI-1
aI1
aS'Type'
p4983
a(lp4984
I2678
aI2678
aaI-1
aI1
aS'BitsPerComponent'
p4985
a(lp4986
I2662
aI2662
aaI-1
aI1
aS'Metadata'
p4987
a(lp4988
I2672
aI2675
aaI1
aS'Subtype'
p4989
a(lp4990
I2674
aI2674
aaI-1
aI1
aS'Length'
p4991
a(lp4992
I2673
aI2673
aaI-1
aI1
aS'Type'
p4993
a(lp4994
I2675
aI2675
aaI-3
aI1
aS'Group'
p4995
a(lp4996
I2624
aI2629
aaI1
aS'CS'
p4997
a(lp4998
I2625
aI2625
aaI-1
aI1
ag98
a(lp4999
I2626
aI2626
aaI-1
aI1
ag447
a(lp5000
I2627
aI2627
aaI-1
aI1
aS'Type'
p5001
a(lp5002
I2629
aI2629
aaI-1
aI1
ag100
a(lp5003
I2628
aI2628
aaI-2
aI1
aS'Matrix'
p5004
a(lp5005
I2635
aI2635
aaI-1
aI1
aS'Subtype'
p5006
a(lp5007
I2680
aI2680
aaI-1
aI1
aS'ColorSpace'
p5008
a(lp5009
I2618
aI2618
aaI-1
aI1
aS'ImageMask'
p5010
a(lp5011
I2631
aI2631
aaI-1
aI1
aS'Interpolate'
p5012
a(lp5013
I2633
aI2633
aaI-1
aI1
aS'Height'
p5014
a(lp5015
I2630
aI2630
aaI-1
aI1
aS'Filter'
p5016
a(lp5017
I2623
aI2623
aaI-1
aI1
aS'Width'
p5018
a(lp5019
I2682
aI2682
aaI-1
aI1
aS'Length'
p5020
a(lp5021
I2634
aI2634
aaI-1
aI1
aS'BitsPerComponent'
p5022
a(lp5023
I2617
aI2617
aaI-1
aI1
aS'Intent'
p5024
a(lp5025
I2632
aI2632
aaI-1
aI1
aS'BBox'
p5026
a(lp5027
I2616
aI2616
aaI-1
aI1
aS'Metadata'
p5028
a(lp5029
I2636
aI2639
aaI1
aS'Subtype'
p5030
a(lp5031
I2638
aI2638
aaI-1
aI1
aS'Length'
p5032
a(lp5033
I2637
aI2637
aaI-1
aI1
aS'Type'
p5034
a(lp5035
I2639
aI2639
aaI-2
aI1
aS'Type'
p5036
a(lp5037
I2681
aI2681
aaI-1
aI1
aS'Resources'
p5038
a(lp5039
I2641
aI2660
aaI1
aS'ExtGState'
p5040
a(lp5041
I2643
aI2643
aaI1
aS'Name'
p5042
a(lp5043
I2643
aI2643
aaI-2
aI1
aS'ColorSpace'
p5044
a(lp5045
I2641
aI2642
aaI1
aS'Name'
p5046
a(lp5047
I2641
aI2642
aaI1
aS'Length'
p5048
a(lp5049
I2642
aI2642
aaI-3
aI1
aS'XObject'
p5050
a(lp5051
I2645
aI2660
aaI1
aS'Name'
p5052
a(lp5053
I2645
aI2660
aaI1
aS'Decode'
p5054
a(lp5055
I2648
aI2648
aaI-1
aI1
aS'Name'
p5056
a(lp5057
I2657
aI2657
aaI-1
aI1
aS'Subtype'
p5058
a(lp5059
I2658
aI2658
aaI-1
aI1
aS'ColorSpace'
p5060
a(lp5061
I2647
aI2647
aaI-1
aI1
aS'Height'
p5062
a(lp5063
I2650
aI2650
aaI-1
aI1
aS'Filter'
p5064
a(lp5065
I2649
aI2649
aaI-1
aI1
aS'Width'
p5066
a(lp5067
I2660
aI2660
aaI-1
aI1
aS'Length'
p5068
a(lp5069
I2652
aI2652
aaI-1
aI1
aS'Intent'
p5070
a(lp5071
I2651
aI2651
aaI-1
aI1
aS'Type'
p5072
a(lp5073
I2659
aI2659
aaI-1
aI1
aS'BitsPerComponent'
p5074
a(lp5075
I2646
aI2646
aaI-1
aI1
aS'Metadata'
p5076
a(lp5077
I2653
aI2656
aaI1
aS'Subtype'
p5078
a(lp5079
I2655
aI2655
aaI-1
aI1
aS'Length'
p5080
a(lp5081
I2654
aI2654
aaI-1
aI1
aS'Type'
p5082
a(lp5083
I2656
aI2656
aaI-4
aI1
aS'ProcSet'
p5084
a(lp5085
I2644
aI2644
aaI-2
aI1
aS'Name'
p5086
a(lp5087
I2640
aI2640
aaI-3
aI1
aS'ColorSpace'
p5088
a(lp5089
I2489
aI2502
aaI1
aS'Name'
p5090
a(lp5091
I2489
aI2502
aaI1
aS'Decode'
p5092
a(lp5093
I2491
aI2491
aaI-1
aI1
aS'BitsPerSample'
p5094
a(lp5095
I2490
aI2490
aaI-1
aI1
aS'Process'
p5096
a(lp5097
I2497
aI2499
aaI1
aS'ColorSpace'
p5098
a(lp5099
I2498
aI2498
aaI-1
aI1
aS'Components'
p5100
a(lp5101
I2499
aI2499
aaI-2
aI1
aS'Domain'
p5102
a(lp5103
I2492
aI2492
aaI-1
aI1
aS'Filter'
p5104
a(lp5105
I2494
aI2494
aaI-1
aI1
aS'Subtype'
p5106
a(lp5107
I2502
aI2502
aaI-1
aI1
aS'Length'
p5108
a(lp5109
I2496
aI2496
aaI-1
aI1
aS'Encode'
p5110
a(lp5111
I2493
aI2493
aaI-1
aI1
aS'Range'
p5112
a(lp5113
I2500
aI2500
aaI-1
aI1
aS'FunctionType'
p5114
a(lp5115
I2495
aI2495
aaI-1
aI1
aS'Size'
p5116
a(lp5117
I2501
aI2501
aaI-3
aI1
aS'ProcSet'
p5118
a(lp5119
I2603
aI2603
aaI-1
aI1
aS'ExtGState'
p5120
a(lp5121
I2503
aI2564
aaI1
aS'Name'
p5122
a(lp5123
I2504
aI2564
aaI1
aS'SMask'
p5124
a(lp5125
I2513
aI2559
aaI1
ag100
a(lp5126
I2558
aI2558
aaI-1
aI1
aS'Type'
p5127
a(lp5128
I2559
aI2559
aaI-1
aI1
ag2205
a(lp5129
I2515
aI2557
aaI1
aS'Group'
p5130
a(lp5131
I2518
aI2523
aaI1
aS'CS'
p5132
a(lp5133
I2519
aI2519
aaI-1
aI1
ag98
a(lp5134
I2520
aI2520
aaI-1
aI1
ag447
a(lp5135
I2521
aI2521
aaI-1
aI1
aS'Type'
p5136
a(lp5137
I2523
aI2523
aaI-1
aI1
ag100
a(lp5138
I2522
aI2522
aaI-2
aI1
aS'Matrix'
p5139
a(lp5140
I2525
aI2525
aaI-1
aI1
aS'Filter'
p5141
a(lp5142
I2517
aI2517
aaI-1
aI1
aS'Subtype'
p5143
a(lp5144
I2557
aI2557
aaI-1
aI1
aS'Length'
p5145
a(lp5146
I2524
aI2524
aaI-1
aI1
aS'BBox'
p5147
a(lp5148
I2516
aI2516
aaI-1
aI1
aS'Resources'
p5149
a(lp5150
I2526
aI2556
aaI1
aS'ExtGState'
p5151
a(lp5152
I2526
aI2536
aaI1
aS'Name'
p5153
a(lp5154
I2526
aI2536
aaI1
aS'SMask'
p5155
a(lp5156
I2533
aI2533
aaI-1
aI1
aS'BM'
p5157
a(lp5158
I2528
aI2528
aaI-1
aI1
aS'CA'
p5159
a(lp5160
I2529
aI2529
aaI-1
aI1
aS'AIS'
p5161
a(lp5162
I2527
aI2527
aaI-1
aI1
aS'OPM'
p5163
a(lp5164
I2531
aI2531
aaI-1
aI1
aS'SA'
p5165
a(lp5166
I2532
aI2532
aaI-1
aI1
aS'OP'
p5167
a(lp5168
I2530
aI2530
aaI-1
aI1
aS'Type'
p5169
a(lp5170
I2534
aI2534
aaI-1
aI1
aS'ca'
p5171
a(lp5172
I2535
aI2535
aaI-1
aI1
aS'op'
p5173
a(lp5174
I2536
aI2536
aaI-3
aI1
aS'XObject'
p5175
a(lp5176
I2538
aI2556
aaI1
aS'Name'
p5177
a(lp5178
I2538
aI2556
aaI1
aS'DecodeParms'
p5179
a(lp5180
I2542
aI2544
aaI1
aS'Colors'
p5181
a(lp5182
I2543
aI2543
aaI-1
aI1
aS'BitsPerComponent'
p5183
a(lp5184
I2542
aI2542
aaI-1
aI1
aS'Columns'
p5185
a(lp5186
I2544
aI2544
aaI-2
aI1
aS'Decode'
p5187
a(lp5188
I2541
aI2541
aaI-1
aI1
aS'Name'
p5189
a(lp5190
I2553
aI2553
aaI-1
aI1
aS'Subtype'
p5191
a(lp5192
I2554
aI2554
aaI-1
aI1
aS'ColorSpace'
p5193
a(lp5194
I2540
aI2540
aaI-1
aI1
aS'Height'
p5195
a(lp5196
I2546
aI2546
aaI-1
aI1
aS'Filter'
p5197
a(lp5198
I2545
aI2545
aaI-1
aI1
aS'Width'
p5199
a(lp5200
I2556
aI2556
aaI-1
aI1
aS'Length'
p5201
a(lp5202
I2548
aI2548
aaI-1
aI1
aS'Intent'
p5203
a(lp5204
I2547
aI2547
aaI-1
aI1
aS'Type'
p5205
a(lp5206
I2555
aI2555
aaI-1
aI1
aS'BitsPerComponent'
p5207
a(lp5208
I2539
aI2539
aaI-1
aI1
aS'Metadata'
p5209
a(lp5210
I2549
aI2552
aaI1
aS'Subtype'
p5211
a(lp5212
I2551
aI2551
aaI-1
aI1
aS'Length'
p5213
a(lp5214
I2550
aI2550
aaI-1
aI1
aS'Type'
p5215
a(lp5216
I2552
aI2552
aaI-4
aI1
aS'ProcSet'
p5217
a(lp5218
I2537
aI2537
aaI-3
aI1
aS'BC'
p5219
a(lp5220
I2514
aI2514
aaI-2
aI1
aS'UCR2'
p5221
a(lp5222
I2562
aI2562
aaI-1
aI1
aS'BM'
p5223
a(lp5224
I2507
aI2507
aaI-1
aI1
aS'CA'
p5225
a(lp5226
I2508
aI2508
aaI-1
aI1
aS'OP'
p5227
a(lp5228
I2509
aI2509
aaI-1
aI1
aS'AIS'
p5229
a(lp5230
I2505
aI2505
aaI-1
aI1
aS'BG2'
p5231
a(lp5232
I2506
aI2506
aaI-1
aI1
aS'SM'
p5233
a(lp5234
I2512
aI2512
aaI-1
aI1
aS'OPM'
p5235
a(lp5236
I2510
aI2510
aaI-1
aI1
aS'SA'
p5237
a(lp5238
I2511
aI2511
aaI-1
aI1
aS'TR2'
p5239
a(lp5240
I2560
aI2560
aaI-1
aI1
aS'Type'
p5241
a(lp5242
I2561
aI2561
aaI-1
aI1
aS'ca'
p5243
a(lp5244
I2563
aI2563
aaI-1
aI1
aS'op'
p5245
a(lp5246
I2564
aI2564
aaI-3
aI1
aS'Font'
p5247
a(lp5248
I2565
aI2602
aaI1
aS'Name'
p5249
a(lp5250
I2566
aI2602
aaI1
aS'LastChar'
p5251
a(lp5252
I2596
aI2596
aaI-1
aI1
aS'Encoding'
p5253
a(lp5254
I2568
aI2570
aaI1
aS'Differences'
p5255
a(lp5256
I2569
aI2569
aaI-1
aI1
aS'Type'
p5257
a(lp5258
I2570
aI2570
aaI-2
aI1
aS'BaseFont'
p5259
a(lp5260
I2567
aI2567
aaI-1
aI1
aS'Widths'
p5261
a(lp5262
I2602
aI2602
aaI-1
aI1
aS'Subtype'
p5263
a(lp5264
I2597
aI2597
aaI-1
aI1
aS'ToUnicode'
p5265
a(lp5266
I2598
aI2600
aaI1
aS'Filter'
p5267
a(lp5268
I2599
aI2599
aaI-1
aI1
aS'Length'
p5269
a(lp5270
I2600
aI2600
aaI-2
aI1
aS'FontDescriptor'
p5271
a(lp5272
I2572
aI2595
aaI1
aS'FontFile2'
p5273
a(lp5274
I2580
aI2583
aaI1
aS'Filter'
p5275
a(lp5276
I2581
aI2581
aaI-1
aI1
aS'Length'
p5277
a(lp5278
I2582
aI2582
aaI-1
aI1
aS'Length1'
p5279
a(lp5280
I2583
aI2583
aaI-2
aI1
aS'FontFile3'
p5281
a(lp5282
I2584
aI2587
aaI1
aS'Filter'
p5283
a(lp5284
I2585
aI2585
aaI-1
aI1
aS'Subtype'
p5285
a(lp5286
I2587
aI2587
aaI-1
aI1
aS'Length'
p5287
a(lp5288
I2586
aI2586
aaI-2
aI1
aS'FontName'
p5289
a(lp5290
I2588
aI2588
aaI-1
aI1
aS'Descent'
p5291
a(lp5292
I2576
aI2576
aaI-1
aI1
aS'FontBBox'
p5293
a(lp5294
I2578
aI2578
aaI-1
aI1
aS'FontFamily'
p5295
a(lp5296
I2579
aI2579
aaI-1
aI1
aS'CapHeight'
p5297
a(lp5298
I2574
aI2574
aaI-1
aI1
aS'Ascent'
p5299
a(lp5300
I2573
aI2573
aaI-1
aI1
aS'CharSet'
p5301
a(lp5302
I2575
aI2575
aaI-1
aI1
aS'StemH'
p5303
a(lp5304
I2592
aI2592
aaI-1
aI1
aS'FontWeight'
p5305
a(lp5306
I2590
aI2590
aaI-1
aI1
aS'StemV'
p5307
a(lp5308
I2593
aI2593
aaI-1
aI1
aS'Flags'
p5309
a(lp5310
I2577
aI2577
aaI-1
aI1
aS'XHeight'
p5311
a(lp5312
I2595
aI2595
aaI-1
aI1
aS'ItalicAngle'
p5313
a(lp5314
I2591
aI2591
aaI-1
aI1
aS'Type'
p5315
a(lp5316
I2594
aI2594
aaI-1
aI1
aS'FontStretch'
p5317
a(lp5318
I2589
aI2589
aaI-2
aI1
aS'Type'
p5319
a(lp5320
I2601
aI2601
aaI-1
aI1
aS'FirstChar'
p5321
a(lp5322
I2571
aI2571
aaI-3
aI1
aS'Properties'
p5323
a(lp5324
I2604
aI2614
aaI1
aS'Name'
p5325
a(lp5326
I2604
aI2614
aaI1
aS'Title'
p5327
a(lp5328
I2613
aI2613
aaI-1
aI1
aS'Color'
p5329
a(lp5330
I2604
aI2604
aaI-1
aI1
aS'Editable'
p5331
a(lp5332
I2606
aI2606
aaI-1
aI1
aS'Dimmed'
p5333
a(lp5334
I2605
aI2605
aaI-1
aI1
aS'Visible'
p5335
a(lp5336
I2614
aI2614
aaI-1
aI1
aS'Printed'
p5337
a(lp5338
I2612
aI2612
aaI-1
aI1
aS'Preview'
p5339
a(lp5340
I2611
aI2611
aaI-1
aI1
aS'Metadata'
p5341
a(lp5342
I2607
aI2610
aaI1
aS'Subtype'
p5343
a(lp5344
I2609
aI2609
aaI-1
aI1
aS'Length'
p5345
a(lp5346
I2608
aI2608
aaI-1
aI1
aS'Type'
p5347
a(lp5348
I2610
aI2610
aaI-5
aI1
aS'Metadata'
p5349
a(lp5350
I2458
aI2461
aaI1
aS'Subtype'
p5351
a(lp5352
I2460
aI2460
aaI-1
aI1
aS'Length'
p5353
a(lp5354
I2459
aI2459
aaI-1
aI1
aS'Type'
p5355
a(lp5356
I2461
aI2461
aaI-2
aI1
aS'StructParents'
p5357
a(lp5358
I2706
aI2706
aaI-1
aI1
aS'ColorSpace'
p5359
a(lp5360
I2407
aI2416
aaI1
aS'Domain'
p5361
a(lp5362
I2411
aI2411
aaI-1
aI1
aS'Alternate'
p5363
a(lp5364
I2408
aI2408
aaI-1
aI1
aS'Range'
p5365
a(lp5366
I2416
aI2416
aaI-1
aI1
ag88
a(lp5367
I2415
aI2415
aaI-1
aI1
aS'Filter'
p5368
a(lp5369
I2412
aI2412
aaI-1
aI1
aS'Length'
p5370
a(lp5371
I2414
aI2414
aaI-1
aI1
aS'C1'
p5372
a(lp5373
I2410
aI2410
aaI-1
aI1
aS'C0'
p5374
a(lp5375
I2409
aI2409
aaI-1
aI1
aS'FunctionType'
p5376
a(lp5377
I2413
aI2413
aaI-2
aI1
aS'Interpolate'
p5378
a(lp5379
I2443
aI2443
aaI-1
aI1
aS'Intent'
p5380
a(lp5381
I2442
aI2442
aaI-1
aI1
aS'BitsPerComponent'
p5382
a(lp5383
I2405
aI2405
aaI-1
aI1
aS'eCpyDPIY'
p5384
a(lp5385
I2711
aI2711
aaI-1
aI1
aS'Name'
p5386
a(lp5387
I2462
aI2462
aaI-1
aI1
aS'Mask'
p5388
a(lp5389
I2446
aI2456
aaI1
aS'DecodeParms'
p5390
a(lp5391
I2448
aI2449
aaI1
ag447
a(lp5392
I2449
aI2449
aaI-1
aI1
aS'Columns'
p5393
a(lp5394
I2448
aI2448
aaI-2
aI1
aS'Subtype'
p5395
a(lp5396
I2454
aI2454
aaI-1
aI1
aS'ImageMask'
p5397
a(lp5398
I2452
aI2452
aaI-1
aI1
aS'Height'
p5399
a(lp5400
I2451
aI2451
aaI-1
aI1
aS'Filter'
p5401
a(lp5402
I2450
aI2450
aaI-1
aI1
aS'Width'
p5403
a(lp5404
I2456
aI2456
aaI-1
aI1
aS'Length'
p5405
a(lp5406
I2453
aI2453
aaI-1
aI1
aS'Type'
p5407
a(lp5408
I2455
aI2455
aaI-1
aI1
aS'BitsPerComponent'
p5409
a(lp5410
I2447
aI2447
aaI-2
aI1
aS'PieceInfo'
p5411
a(lp5412
I2478
aI2487
aaI1
aS'ADBE_CompoundType'
p5413
a(lp5414
I2479
aI2483
aaI1
aS'LastModified'
p5415
a(lp5416
I2482
aI2482
aaI-1
aI1
aS'DocSettings'
p5417
a(lp5418
I2479
aI2481
aaI1
aS'Filter'
p5419
a(lp5420
I2480
aI2480
aaI-1
aI1
aS'Length'
p5421
a(lp5422
I2481
aI2481
aaI-2
aI1
aS'Private'
p5423
a(lp5424
I2483
aI2483
aaI-2
aI1
aS'PDFWP'
p5425
a(lp5426
I2484
aI2487
aaI1
aS'LastModified'
p5427
a(lp5428
I2485
aI2485
aaI-1
aI1
aS'Private'
p5429
a(lp5430
I2486
aI2487
aaI1
aS'Flow'
p5431
a(lp5432
I2487
aI2487
aaI-4
aI1
aS'Filter'
p5433
a(lp5434
I2431
aI2431
aaI-1
aI1
aS'Subtype'
p5435
a(lp5436
I2707
aI2707
aaI-1
aI1
aS'Length'
p5437
a(lp5438
I2445
aI2445
aaI-1
aI1
aS'ImageName'
p5439
a(lp5440
I2441
aI2441
aaI-1
aI1
aS'FormType'
p5441
a(lp5442
I2432
aI2432
aaI-1
aI1
aS'DecodeParms'
p5443
a(lp5444
I2418
aI2430
aaI1
aS'Rows'
p5445
a(lp5446
I2430
aI2430
aaI-1
aI1
ag447
a(lp5447
I2427
aI2427
aaI-1
aI1
aS'BlackIs1'
p5448
a(lp5449
I2420
aI2420
aaI-1
aI1
aS'EncodedByteAlign'
p5450
a(lp5451
I2423
aI2423
aaI-1
aI1
aS'Colors'
p5452
a(lp5453
I2421
aI2421
aaI-1
aI1
aS'BitsPerComponent'
p5454
a(lp5455
I2419
aI2419
aaI-1
aI1
aS'Columns'
p5456
a(lp5457
I2422
aI2422
aaI-1
aI1
aS'Quality'
p5458
a(lp5459
I2429
aI2429
aaI-1
aI1
aS'Predictor'
p5460
a(lp5461
I2428
aI2428
aaI-1
aI1
aS'JBIG2Globals'
p5462
a(lp5463
I2425
aI2426
aaI1
aS'Length'
p5464
a(lp5465
I2426
aI2426
aaI-2
aI1
aS'EndOfLine'
p5466
a(lp5467
I2424
aI2424
aaI-2
aI1
aS'SMask'
p5468
a(lp5469
I2683
aI2705
aaI1
aS'DecodeParms'
p5470
a(lp5471
I2687
aI2691
aaI1
aS'BitsPerComponent'
p5472
a(lp5473
I2687
aI2687
aaI-1
aI1
ag447
a(lp5474
I2690
aI2690
aaI-1
aI1
aS'Rows'
p5475
a(lp5476
I2691
aI2691
aaI-1
aI1
aS'Colors'
p5477
a(lp5478
I2688
aI2688
aaI-1
aI1
aS'Columns'
p5479
a(lp5480
I2689
aI2689
aaI-2
aI1
aS'Decode'
p5481
a(lp5482
I2686
aI2686
aaI-1
aI1
aS'Name'
p5483
a(lp5484
I2702
aI2702
aaI-1
aI1
aS'Subtype'
p5485
a(lp5486
I2703
aI2703
aaI-1
aI1
aS'ColorSpace'
p5487
a(lp5488
I2685
aI2685
aaI-1
aI1
aS'Length'
p5489
a(lp5490
I2696
aI2696
aaI-1
aI1
aS'Interpolate'
p5491
a(lp5492
I2695
aI2695
aaI-1
aI1
aS'Height'
p5493
a(lp5494
I2693
aI2693
aaI-1
aI1
aS'Filter'
p5495
a(lp5496
I2692
aI2692
aaI-1
aI1
aS'Width'
p5497
a(lp5498
I2705
aI2705
aaI-1
aI1
aS'Matte'
p5499
a(lp5500
I2697
aI2697
aaI-1
aI1
aS'Intent'
p5501
a(lp5502
I2694
aI2694
aaI-1
aI1
aS'Type'
p5503
a(lp5504
I2704
aI2704
aaI-1
aI1
aS'BitsPerComponent'
p5505
a(lp5506
I2684
aI2684
aaI-1
aI1
aS'Metadata'
p5507
a(lp5508
I2698
aI2701
aaI1
aS'Subtype'
p5509
a(lp5510
I2700
aI2700
aaI-1
aI1
aS'Length'
p5511
a(lp5512
I2699
aI2699
aaI-1
aI1
aS'Type'
p5513
a(lp5514
I2701
aI2701
aaI-3
aI1
aS'OC'
p5515
a(lp5516
I2463
aI2465
aaI1
aS'OCGs'
p5517
a(lp5518
I2464
aI2464
aaI-1
aI1
aS'Type'
p5519
a(lp5520
I2465
aI2465
aaI-2
aI1
aS'BlackIs1'
p5521
a(lp5522
I2406
aI2406
aaI-1
aI1
aS'Height'
p5523
a(lp5524
I2439
aI2439
aaI-1
aI1
aS'eCpyDPIX'
p5525
a(lp5526
I2710
aI2710
aaI-1
aI1
aS'OPI'
p5527
a(lp5528
I2466
aI2477
aaI1
aS'1.3'
p5529
a(lp5530
I2467
aI2477
aaI1
ag205
a(lp5531
I2471
aI2471
aaI-1
aI1
aS'Color'
p5532
a(lp5533
I2467
aI2467
aaI-1
aI1
aS'Type'
p5534
a(lp5535
I2476
aI2476
aaI-1
aI1
aS'Resolution'
p5536
a(lp5537
I2474
aI2474
aaI-1
aI1
aS'CropFixed'
p5538
a(lp5539
I2469
aI2469
aaI-1
aI1
aS'Version'
p5540
a(lp5541
I2477
aI2477
aaI-1
aI1
aS'ColorType'
p5542
a(lp5543
I2468
aI2468
aaI-1
aI1
aS'Position'
p5544
a(lp5545
I2473
aI2473
aaI-1
aI1
aS'CropRect'
p5546
a(lp5547
I2470
aI2470
aaI-1
aI1
aS'ImageType'
p5548
a(lp5549
I2472
aI2472
aaI-1
aI1
aS'Size'
p5550
a(lp5551
I2475
aI2475
aaI-5
aI1
aS'Font'
p5552
a(lp5553
I2169
aI2277
aaI1
aS'Name'
p5554
a(lp5555
I2170
aI2277
aaI1
aS'LastChar'
p5556
a(lp5557
I2268
aI2268
aaI-1
aI1
aS'FontMatrix'
p5558
a(lp5559
I2266
aI2266
aaI-1
aI1
aS'FontBBox'
p5560
a(lp5561
I2224
aI2224
aaI-1
aI1
aS'Encoding'
p5562
a(lp5563
I2219
aI2222
aaI1
aS'BaseEncoding'
p5564
a(lp5565
I2220
aI2220
aaI-1
aI1
aS'Differences'
p5566
a(lp5567
I2221
aI2221
aaI-1
aI1
aS'Type'
p5568
a(lp5569
I2222
aI2222
aaI-2
aI1
aS'BaseFont'
p5570
a(lp5571
I2171
aI2171
aaI-1
aI1
aS'Widths'
p5572
a(lp5573
I2277
aI2277
aaI-1
aI1
aS'DescendantFonts'
p5574
a(lp5575
I2176
aI2218
aaI1
aS'DW2'
p5576
a(lp5577
I2184
aI2184
aaI-1
aI1
aS'CIDToGIDMap'
p5578
a(lp5579
I2182
aI2182
aaI-1
aI1
aS'FontDescriptor'
p5580
a(lp5581
I2185
aI2215
aaI1
aS'Descent'
p5582
a(lp5583
I2192
aI2192
aaI-1
aI1
aS'FontBBox'
p5584
a(lp5585
I2194
aI2194
aaI-1
aI1
aS'Leading'
p5586
a(lp5587
I2209
aI2209
aaI-1
aI1
aS'StemH'
p5588
a(lp5589
I2212
aI2212
aaI-1
aI1
aS'StemV'
p5590
a(lp5591
I2213
aI2213
aaI-1
aI1
aS'AvgWidth'
p5592
a(lp5593
I2187
aI2187
aaI-1
aI1
aS'XHeight'
p5594
a(lp5595
I2215
aI2215
aaI-1
aI1
aS'Type'
p5596
a(lp5597
I2214
aI2214
aaI-1
aI1
aS'FontStretch'
p5598
a(lp5599
I2205
aI2205
aaI-1
aI1
aS'FontFile2'
p5600
a(lp5601
I2196
aI2199
aaI1
aS'Filter'
p5602
a(lp5603
I2197
aI2197
aaI-1
aI1
aS'Length'
p5604
a(lp5605
I2198
aI2198
aaI-1
aI1
aS'Length1'
p5606
a(lp5607
I2199
aI2199
aaI-2
aI1
aS'FontFile3'
p5608
a(lp5609
I2200
aI2203
aaI1
aS'Filter'
p5610
a(lp5611
I2201
aI2201
aaI-1
aI1
aS'Subtype'
p5612
a(lp5613
I2203
aI2203
aaI-1
aI1
aS'Length'
p5614
a(lp5615
I2202
aI2202
aaI-2
aI1
aS'FontName'
p5616
a(lp5617
I2204
aI2204
aaI-1
aI1
aS'MaxWidth'
p5618
a(lp5619
I2210
aI2210
aaI-1
aI1
aS'CapHeight'
p5620
a(lp5621
I2191
aI2191
aaI-1
aI1
aS'FontFamily'
p5622
a(lp5623
I2195
aI2195
aaI-1
aI1
aS'ItalicAngle'
p5624
a(lp5625
I2207
aI2207
aaI-1
aI1
aS'Lang'
p5626
a(lp5627
I2208
aI2208
aaI-1
aI1
aS'Flags'
p5628
a(lp5629
I2193
aI2193
aaI-1
aI1
aS'CIDSet'
p5630
a(lp5631
I2188
aI2190
aaI1
aS'Filter'
p5632
a(lp5633
I2189
aI2189
aaI-1
aI1
aS'Length'
p5634
a(lp5635
I2190
aI2190
aaI-2
aI1
aS'FontWeight'
p5636
a(lp5637
I2206
aI2206
aaI-1
aI1
aS'MissingWidth'
p5638
a(lp5639
I2211
aI2211
aaI-1
aI1
aS'Ascent'
p5640
a(lp5641
I2186
aI2186
aaI-2
aI1
aS'BaseFont'
p5642
a(lp5643
I2177
aI2177
aaI-1
aI1
aS'CIDSystemInfo'
p5644
a(lp5645
I2178
aI2181
aaI1
aS'Ordering'
p5646
a(lp5647
I2179
aI2179
aaI-1
aI1
aS'Supplement'
p5648
a(lp5649
I2181
aI2181
aaI-1
aI1
aS'Registry'
p5650
a(lp5651
I2180
aI2180
aaI-2
aI1
aS'Subtype'
p5652
a(lp5653
I2216
aI2216
aaI-1
aI1
ag59
a(lp5654
I2218
aI2218
aaI-1
aI1
aS'DW'
p5655
a(lp5656
I2183
aI2183
aaI-1
aI1
aS'Type'
p5657
a(lp5658
I2217
aI2217
aaI-2
aI1
aS'CharProcs'
p5659
a(lp5660
I2172
aI2175
aaI1
aS'Name'
p5661
a(lp5662
I2173
aI2175
aaI1
aS'Filter'
p5663
a(lp5664
I2174
aI2174
aaI-1
aI1
aS'Length'
p5665
a(lp5666
I2175
aI2175
aaI-3
aI1
aS'Subtype'
p5667
a(lp5668
I2272
aI2272
aaI-1
aI1
aS'ToUnicode'
p5669
a(lp5670
I2273
aI2275
aaI1
aS'Filter'
p5671
a(lp5672
I2274
aI2274
aaI-1
aI1
aS'Length'
p5673
a(lp5674
I2275
aI2275
aaI-2
aI1
aS'FontDescriptor'
p5675
a(lp5676
I2225
aI2265
aaI1
aS'Descent'
p5677
a(lp5678
I2230
aI2230
aaI-1
aI1
aS'FontBBox'
p5679
a(lp5680
I2232
aI2232
aaI-1
aI1
aS'Leading'
p5681
a(lp5682
I2259
aI2259
aaI-1
aI1
aS'StemH'
p5683
a(lp5684
I2262
aI2262
aaI-1
aI1
aS'StemV'
p5685
a(lp5686
I2263
aI2263
aaI-1
aI1
aS'AvgWidth'
p5687
a(lp5688
I2227
aI2227
aaI-1
aI1
aS'XHeight'
p5689
a(lp5690
I2265
aI2265
aaI-1
aI1
aS'Type'
p5691
a(lp5692
I2264
aI2264
aaI-1
aI1
aS'FontStretch'
p5693
a(lp5694
I2256
aI2256
aaI-1
aI1
aS'FontFile2'
p5695
a(lp5696
I2240
aI2249
aaI1
aS'Length3'
p5697
a(lp5698
I2245
aI2245
aaI-1
aI1
aS'Length2'
p5699
a(lp5700
I2244
aI2244
aaI-1
aI1
aS'Length1'
p5701
a(lp5702
I2243
aI2243
aaI-1
aI1
aS'Filter'
p5703
a(lp5704
I2241
aI2241
aaI-1
aI1
aS'Length'
p5705
a(lp5706
I2242
aI2242
aaI-1
aI1
aS'Metadata'
p5707
a(lp5708
I2246
aI2249
aaI1
aS'Subtype'
p5709
a(lp5710
I2248
aI2248
aaI-1
aI1
aS'Length'
p5711
a(lp5712
I2247
aI2247
aaI-1
aI1
aS'Type'
p5713
a(lp5714
I2249
aI2249
aaI-3
aI1
aS'FontFile3'
p5715
a(lp5716
I2250
aI2254
aaI1
aS'Filter'
p5717
a(lp5718
I2251
aI2251
aaI-1
aI1
aS'Subtype'
p5719
a(lp5720
I2254
aI2254
aaI-1
aI1
aS'Length'
p5721
a(lp5722
I2252
aI2252
aaI-1
aI1
aS'Length1'
p5723
a(lp5724
I2253
aI2253
aaI-2
aI1
aS'FontName'
p5725
a(lp5726
I2255
aI2255
aaI-1
aI1
aS'MaxWidth'
p5727
a(lp5728
I2260
aI2260
aaI-1
aI1
aS'CapHeight'
p5729
a(lp5730
I2228
aI2228
aaI-1
aI1
aS'FontFamily'
p5731
a(lp5732
I2233
aI2233
aaI-1
aI1
aS'ItalicAngle'
p5733
a(lp5734
I2258
aI2258
aaI-1
aI1
aS'FontFile'
p5735
a(lp5736
I2234
aI2239
aaI1
aS'Filter'
p5737
a(lp5738
I2235
aI2235
aaI-1
aI1
aS'Length2'
p5739
a(lp5740
I2238
aI2238
aaI-1
aI1
aS'Length'
p5741
a(lp5742
I2236
aI2236
aaI-1
aI1
aS'Length3'
p5743
a(lp5744
I2239
aI2239
aaI-1
aI1
aS'Length1'
p5745
a(lp5746
I2237
aI2237
aaI-2
aI1
aS'Flags'
p5747
a(lp5748
I2231
aI2231
aaI-1
aI1
aS'CharSet'
p5749
a(lp5750
I2229
aI2229
aaI-1
aI1
aS'FontWeight'
p5751
a(lp5752
I2257
aI2257
aaI-1
aI1
aS'MissingWidth'
p5753
a(lp5754
I2261
aI2261
aaI-1
aI1
aS'Ascent'
p5755
a(lp5756
I2226
aI2226
aaI-2
aI1
aS'FirstChar'
p5757
a(lp5758
I2223
aI2223
aaI-1
aI1
aS'FxTag'
p5759
a(lp5760
I2267
aI2267
aaI-1
aI1
aS'Type'
p5761
a(lp5762
I2276
aI2276
aaI-1
aI1
aS'Resources'
p5763
a(lp5764
I2270
aI2271
aaI1
aS'ProcSet'
p5765
a(lp5766
I2271
aI2271
aaI-2
aI1
aS'Name'
p5767
a(lp5768
I2269
aI2269
aaI-3
aI1
aS'DefaultGray'
p5769
a(lp5770
I2001
aI2002
aaI1
aS'Length'
p5771
a(lp5772
I2002
aI2002
aaI-2
aI1
aS'Pattern'
p5773
a(lp5774
I2278
aI2340
aaI1
aS'Name'
p5775
a(lp5776
I2279
aI2340
aaI1
aS'BBox'
p5777
a(lp5778
I2280
aI2280
aaI-1
aI1
aS'Matrix'
p5779
a(lp5780
I2283
aI2283
aaI-1
aI1
aS'YStep'
p5781
a(lp5782
I2340
aI2340
aaI-1
aI1
aS'XStep'
p5783
a(lp5784
I2339
aI2339
aaI-1
aI1
aS'TilingType'
p5785
a(lp5786
I2337
aI2337
aaI-1
aI1
aS'Filter'
p5787
a(lp5788
I2281
aI2281
aaI-1
aI1
aS'Length'
p5789
a(lp5790
I2282
aI2282
aaI-1
aI1
aS'PaintType'
p5791
a(lp5792
I2284
aI2284
aaI-1
aI1
aS'Shading'
p5793
a(lp5794
I2322
aI2336
aaI1
aS'Function'
p5795
a(lp5796
I2325
aI2335
aaI1
aS'Decode'
p5797
a(lp5798
I2327
aI2327
aaI-1
aI1
aS'BitsPerSample'
p5799
a(lp5800
I2326
aI2326
aaI-1
aI1
aS'Domain'
p5801
a(lp5802
I2328
aI2328
aaI-1
aI1
aS'Filter'
p5803
a(lp5804
I2330
aI2330
aaI-1
aI1
aS'Length'
p5805
a(lp5806
I2332
aI2332
aaI-1
aI1
aS'Encode'
p5807
a(lp5808
I2329
aI2329
aaI-1
aI1
aS'Range'
p5809
a(lp5810
I2334
aI2334
aaI-1
aI1
aS'FunctionType'
p5811
a(lp5812
I2331
aI2331
aaI-1
aI1
aS'Order'
p5813
a(lp5814
I2333
aI2333
aaI-1
aI1
aS'Size'
p5815
a(lp5816
I2335
aI2335
aaI-2
aI1
aS'ColorSpace'
p5817
a(lp5818
I2322
aI2322
aaI-1
aI1
aS'Coords'
p5819
a(lp5820
I2323
aI2323
aaI-1
aI1
aS'ShadingType'
p5821
a(lp5822
I2336
aI2336
aaI-1
aI1
aS'Extend'
p5823
a(lp5824
I2324
aI2324
aaI-2
aI1
aS'Type'
p5825
a(lp5826
I2338
aI2338
aaI-1
aI1
aS'Resources'
p5827
a(lp5828
I2286
aI2321
aaI1
aS'Shading'
p5829
a(lp5830
I2297
aI2308
aaI1
aS'Name'
p5831
a(lp5832
I2297
aI2308
aaI1
aS'Function'
p5833
a(lp5834
I2301
aI2307
aaI1
aS'Domain'
p5835
a(lp5836
I2304
aI2304
aaI-1
aI1
ag88
a(lp5837
I2306
aI2306
aaI-1
aI1
aS'Range'
p5838
a(lp5839
I2307
aI2307
aaI-1
aI1
aS'C1'
p5840
a(lp5841
I2303
aI2303
aaI-1
aI1
aS'C0'
p5842
a(lp5843
I2302
aI2302
aaI-1
aI1
aS'FunctionType'
p5844
a(lp5845
I2305
aI2305
aaI-2
aI1
aS'ColorSpace'
p5846
a(lp5847
I2299
aI2299
aaI-1
aI1
aS'Coords'
p5848
a(lp5849
I2300
aI2300
aaI-1
aI1
aS'BBox'
p5850
a(lp5851
I2298
aI2298
aaI-1
aI1
aS'ShadingType'
p5852
a(lp5853
I2308
aI2308
aaI-3
aI1
aS'ExtGState'
p5854
a(lp5855
I2289
aI2295
aaI1
aS'Name'
p5856
a(lp5857
I2289
aI2295
aaI1
aS'SM'
p5858
a(lp5859
I2293
aI2293
aaI-1
aI1
aS'OPM'
p5860
a(lp5861
I2291
aI2291
aaI-1
aI1
aS'SA'
p5862
a(lp5863
I2292
aI2292
aaI-1
aI1
aS'OP'
p5864
a(lp5865
I2290
aI2290
aaI-1
aI1
aS'Type'
p5866
a(lp5867
I2294
aI2294
aaI-1
aI1
aS'op'
p5868
a(lp5869
I2295
aI2295
aaI-3
aI1
aS'ColorSpace'
p5870
a(lp5871
I2287
aI2288
aaI1
aS'Name'
p5872
a(lp5873
I2287
aI2288
aaI1
aS'Length'
p5874
a(lp5875
I2288
aI2288
aaI-3
aI1
aS'XObject'
p5876
a(lp5877
I2309
aI2321
aaI1
aS'Name'
p5878
a(lp5879
I2309
aI2321
aaI1
aS'DecodeParms'
p5880
a(lp5881
I2312
aI2313
aaI1
ag447
a(lp5882
I2313
aI2313
aaI-1
aI1
aS'Columns'
p5883
a(lp5884
I2312
aI2312
aaI-2
aI1
aS'Subtype'
p5885
a(lp5886
I2319
aI2319
aaI-1
aI1
aS'ColorSpace'
p5887
a(lp5888
I2311
aI2311
aaI-1
aI1
aS'ImageMask'
p5889
a(lp5890
I2316
aI2316
aaI-1
aI1
aS'Height'
p5891
a(lp5892
I2315
aI2315
aaI-1
aI1
aS'Filter'
p5893
a(lp5894
I2314
aI2314
aaI-1
aI1
aS'Width'
p5895
a(lp5896
I2321
aI2321
aaI-1
aI1
aS'Length'
p5897
a(lp5898
I2318
aI2318
aaI-1
aI1
aS'Intent'
p5899
a(lp5900
I2317
aI2317
aaI-1
aI1
aS'Type'
p5901
a(lp5902
I2320
aI2320
aaI-1
aI1
aS'BitsPerComponent'
p5903
a(lp5904
I2310
aI2310
aaI-3
aI1
aS'ProcSet'
p5905
a(lp5906
I2296
aI2296
aaI-2
aI1
aS'PatternType'
p5907
a(lp5908
I2285
aI2285
aaI-3
aI1
aS'ColorSpace'
p5909
a(lp5910
I1969
aI2000
aaI1
aS'Name'
p5911
a(lp5912
I1970
aI2000
aaI1
aS'Decode'
p5913
a(lp5914
I1984
aI1984
aaI-1
aI1
aS'BitsPerSample'
p5915
a(lp5916
I1972
aI1972
aaI-1
aI1
aS'BlackPoint'
p5917
a(lp5918
I1973
aI1973
aaI-1
aI1
aS'Matrix'
p5919
a(lp5920
I1991
aI1991
aaI-1
aI1
aS'Process'
p5921
a(lp5922
I1994
aI1996
aaI1
aS'ColorSpace'
p5923
a(lp5924
I1995
aI1995
aaI-1
aI1
aS'Components'
p5925
a(lp5926
I1996
aI1996
aaI-2
aI1
aS'WhitePoint'
p5927
a(lp5928
I2000
aI2000
aaI-1
aI1
aS'Order'
p5929
a(lp5930
I1993
aI1993
aaI-1
aI1
aS'Alternate'
p5931
a(lp5932
I1971
aI1971
aaI-1
aI1
aS'Domain'
p5933
a(lp5934
I1985
aI1985
aaI-1
aI1
ag88
a(lp5935
I1992
aI1992
aaI-1
aI1
aS'Filter'
p5936
a(lp5937
I1987
aI1987
aaI-1
aI1
aS'Subtype'
p5938
a(lp5939
I1999
aI1999
aaI-1
aI1
aS'Range'
p5940
a(lp5941
I1997
aI1997
aaI-1
aI1
aS'Length'
p5942
a(lp5943
I1990
aI1990
aaI-1
aI1
aS'Encode'
p5944
a(lp5945
I1986
aI1986
aaI-1
aI1
aS'Colorants'
p5946
a(lp5947
I1976
aI1983
aaI1
aS'Name'
p5948
a(lp5949
I1977
aI1983
aaI1
aS'Domain'
p5950
a(lp5951
I1980
aI1980
aaI-1
aI1
ag88
a(lp5952
I1982
aI1982
aaI-1
aI1
aS'Range'
p5953
a(lp5954
I1983
aI1983
aaI-1
aI1
aS'C1'
p5955
a(lp5956
I1979
aI1979
aaI-1
aI1
aS'C0'
p5957
a(lp5958
I1978
aI1978
aaI-1
aI1
aS'FunctionType'
p5959
a(lp5960
I1981
aI1981
aaI-3
aI1
aS'C0'
p5961
a(lp5962
I1974
aI1974
aaI-1
aI1
aS'FunctionType'
p5963
a(lp5964
I1988
aI1988
aaI-1
aI1
aS'C1'
p5965
a(lp5966
I1975
aI1975
aaI-1
aI1
aS'Gamma'
p5967
a(lp5968
I1989
aI1989
aaI-1
aI1
aS'Size'
p5969
a(lp5970
I1998
aI1998
aaI-3
aI1
aS'PieceInfo'
p5971
a(lp5972
I2341
aI2341
aaI-1
aI1
aS'ExtGState'
p5973
a(lp5974
I2003
aI2168
aaI1
aS'Name'
p5975
a(lp5976
I2004
aI2168
aaI1
aS'BG'
p5977
a(lp5978
I2007
aI2014
aaI1
aS'BitsPerSample'
p5979
a(lp5980
I2008
aI2008
aaI-1
aI1
aS'Length'
p5981
a(lp5982
I2012
aI2012
aaI-1
aI1
aS'Filter'
p5983
a(lp5984
I2010
aI2010
aaI-1
aI1
aS'Range'
p5985
a(lp5986
I2013
aI2013
aaI-1
aI1
aS'Domain'
p5987
a(lp5988
I2009
aI2009
aaI-1
aI1
aS'FunctionType'
p5989
a(lp5990
I2011
aI2011
aaI-1
aI1
aS'Size'
p5991
a(lp5992
I2014
aI2014
aaI-2
aI1
aS'BM'
p5993
a(lp5994
I2016
aI2016
aaI-1
aI1
aS'ca'
p5995
a(lp5996
I2167
aI2167
aaI-1
aI1
aS'AIS'
p5997
a(lp5998
I2006
aI2006
aaI-1
aI1
aS'HT2'
p5999
a(lp6000
I2082
aI2082
aaI-1
aI1
aS'FL'
p6001
a(lp6002
I2018
aI2018
aaI-1
aI1
aS'LC'
p6003
a(lp6004
I2083
aI2083
aaI-1
aI1
aS'Type'
p6005
a(lp6006
I2157
aI2157
aaI-1
aI1
aS'TR'
p6007
a(lp6008
I2155
aI2155
aaI-1
aI1
aS'LW'
p6009
a(lp6010
I2085
aI2085
aaI-1
aI1
aS'TK'
p6011
a(lp6012
I2154
aI2154
aaI-1
aI1
aS'LJ'
p6013
a(lp6014
I2084
aI2084
aaI-1
aI1
aS'UCR2'
p6015
a(lp6016
I2166
aI2166
aaI-1
aI1
aS'CA'
p6017
a(lp6018
I2017
aI2017
aaI-1
aI1
aS'AAPL:AA'
p6019
a(lp6020
I2005
aI2005
aaI-1
aI1
aS'HT'
p6021
a(lp6022
I2019
aI2081
aaI1
aS'Blue'
p6023
a(lp6024
I2032
aI2042
aaI1
aS'Frequency'
p6025
a(lp6026
I2034
aI2034
aaI-1
aI1
aS'SpotFunction'
p6027
a(lp6028
I2036
aI2041
aaI1
aS'Filter'
p6029
a(lp6030
I2038
aI2038
aaI-1
aI1
aS'Domain'
p6031
a(lp6032
I2037
aI2037
aaI-1
aI1
aS'FunctionType'
p6033
a(lp6034
I2039
aI2039
aaI-1
aI1
aS'Range'
p6035
a(lp6036
I2041
aI2041
aaI-1
aI1
aS'Length'
p6037
a(lp6038
I2040
aI2040
aaI-2
aI1
aS'Angle'
p6039
a(lp6040
I2033
aI2033
aaI-1
aI1
aS'HalftoneType'
p6041
a(lp6042
I2035
aI2035
aaI-1
aI1
aS'Type'
p6043
a(lp6044
I2042
aI2042
aaI-2
aI1
aS'Gray'
p6045
a(lp6046
I2056
aI2056
aaI-1
aI1
aS'Angle'
p6047
a(lp6048
I2020
aI2020
aaI-1
aI1
aS'Default'
p6049
a(lp6050
I2054
aI2054
aaI-1
aI1
aS'SpotFunction'
p6051
a(lp6052
I2072
aI2079
aaI1
aS'BitsPerSample'
p6053
a(lp6054
I2073
aI2073
aaI-1
aI1
aS'Length'
p6055
a(lp6056
I2077
aI2077
aaI-1
aI1
aS'Filter'
p6057
a(lp6058
I2075
aI2075
aaI-1
aI1
aS'Range'
p6059
a(lp6060
I2078
aI2078
aaI-1
aI1
aS'Domain'
p6061
a(lp6062
I2074
aI2074
aaI-1
aI1
aS'FunctionType'
p6063
a(lp6064
I2076
aI2076
aaI-1
aI1
aS'Size'
p6065
a(lp6066
I2079
aI2079
aaI-2
aI1
aS'Yellow'
p6067
a(lp6068
I2081
aI2081
aaI-1
aI1
aS'HalftoneType'
p6069
a(lp6070
I2069
aI2069
aaI-1
aI1
aS'Green'
p6071
a(lp6072
I2057
aI2067
aaI1
aS'Frequency'
p6073
a(lp6074
I2059
aI2059
aaI-1
aI1
aS'SpotFunction'
p6075
a(lp6076
I2061
aI2066
aaI1
aS'Filter'
p6077
a(lp6078
I2063
aI2063
aaI-1
aI1
aS'Domain'
p6079
a(lp6080
I2062
aI2062
aaI-1
aI1
aS'FunctionType'
p6081
a(lp6082
I2064
aI2064
aaI-1
aI1
aS'Range'
p6083
a(lp6084
I2066
aI2066
aaI-1
aI1
aS'Length'
p6085
a(lp6086
I2065
aI2065
aaI-2
aI1
aS'Angle'
p6087
a(lp6088
I2058
aI2058
aaI-1
aI1
aS'HalftoneType'
p6089
a(lp6090
I2060
aI2060
aaI-1
aI1
aS'Type'
p6091
a(lp6092
I2067
aI2067
aaI-2
aI1
aS'HalftoneName'
p6093
a(lp6094
I2068
aI2068
aaI-1
aI1
aS'Cyan'
p6095
a(lp6096
I2043
aI2053
aaI1
aS'Frequency'
p6097
a(lp6098
I2045
aI2045
aaI-1
aI1
aS'SpotFunction'
p6099
a(lp6100
I2047
aI2052
aaI1
aS'Filter'
p6101
a(lp6102
I2049
aI2049
aaI-1
aI1
aS'Domain'
p6103
a(lp6104
I2048
aI2048
aaI-1
aI1
aS'FunctionType'
p6105
a(lp6106
I2050
aI2050
aaI-1
aI1
aS'Range'
p6107
a(lp6108
I2052
aI2052
aaI-1
aI1
aS'Length'
p6109
a(lp6110
I2051
aI2051
aaI-2
aI1
aS'Angle'
p6111
a(lp6112
I2044
aI2044
aaI-1
aI1
aS'HalftoneType'
p6113
a(lp6114
I2046
aI2046
aaI-1
aI1
aS'Type'
p6115
a(lp6116
I2053
aI2053
aaI-2
aI1
aS'Black'
p6117
a(lp6118
I2021
aI2031
aaI1
aS'Frequency'
p6119
a(lp6120
I2023
aI2023
aaI-1
aI1
aS'SpotFunction'
p6121
a(lp6122
I2025
aI2030
aaI1
aS'Filter'
p6123
a(lp6124
I2027
aI2027
aaI-1
aI1
aS'Domain'
p6125
a(lp6126
I2026
aI2026
aaI-1
aI1
aS'FunctionType'
p6127
a(lp6128
I2028
aI2028
aaI-1
aI1
aS'Range'
p6129
a(lp6130
I2030
aI2030
aaI-1
aI1
aS'Length'
p6131
a(lp6132
I2029
aI2029
aaI-2
aI1
aS'Angle'
p6133
a(lp6134
I2022
aI2022
aaI-1
aI1
aS'HalftoneType'
p6135
a(lp6136
I2024
aI2024
aaI-1
aI1
aS'Type'
p6137
a(lp6138
I2031
aI2031
aaI-2
aI1
aS'Magenta'
p6139
a(lp6140
I2070
aI2070
aaI-1
aI1
aS'Frequency'
p6141
a(lp6142
I2055
aI2055
aaI-1
aI1
aS'Type'
p6143
a(lp6144
I2080
aI2080
aaI-1
aI1
aS'Red'
p6145
a(lp6146
I2071
aI2071
aaI-2
aI1
aS'UCR'
p6147
a(lp6148
I2158
aI2165
aaI1
aS'BitsPerSample'
p6149
a(lp6150
I2159
aI2159
aaI-1
aI1
aS'Length'
p6151
a(lp6152
I2163
aI2163
aaI-1
aI1
aS'Filter'
p6153
a(lp6154
I2161
aI2161
aaI-1
aI1
aS'Range'
p6155
a(lp6156
I2164
aI2164
aaI-1
aI1
aS'Domain'
p6157
a(lp6158
I2160
aI2160
aaI-1
aI1
aS'FunctionType'
p6159
a(lp6160
I2162
aI2162
aaI-1
aI1
aS'Size'
p6161
a(lp6162
I2165
aI2165
aaI-2
aI1
aS'SMask'
p6163
a(lp6164
I2091
aI2153
aaI1
ag100
a(lp6165
I2152
aI2152
aaI-1
aI1
aS'Type'
p6166
a(lp6167
I2153
aI2153
aaI-1
aI1
ag2205
a(lp6168
I2093
aI2151
aaI1
aS'Group'
p6169
a(lp6170
I2096
aI2101
aaI1
aS'CS'
p6171
a(lp6172
I2097
aI2097
aaI-1
aI1
ag98
a(lp6173
I2098
aI2098
aaI-1
aI1
ag447
a(lp6174
I2099
aI2099
aaI-1
aI1
aS'Type'
p6175
a(lp6176
I2101
aI2101
aaI-1
aI1
ag100
a(lp6177
I2100
aI2100
aaI-2
aI1
aS'Matrix'
p6178
a(lp6179
I2103
aI2103
aaI-1
aI1
aS'Filter'
p6180
a(lp6181
I2095
aI2095
aaI-1
aI1
aS'Subtype'
p6182
a(lp6183
I2151
aI2151
aaI-1
aI1
aS'Length'
p6184
a(lp6185
I2102
aI2102
aaI-1
aI1
aS'BBox'
p6186
a(lp6187
I2094
aI2094
aaI-1
aI1
aS'Resources'
p6188
a(lp6189
I2104
aI2150
aaI1
aS'Shading'
p6190
a(lp6191
I2118
aI2135
aaI1
aS'Name'
p6192
a(lp6193
I2118
aI2135
aaI1
aS'Function'
p6194
a(lp6195
I2124
aI2134
aaI1
aS'Encode'
p6196
a(lp6197
I2127
aI2127
aaI-1
aI1
aS'Domain'
p6198
a(lp6199
I2126
aI2126
aaI-1
aI1
aS'FunctionType'
p6200
a(lp6201
I2128
aI2128
aaI-1
aI1
aS'Bounds'
p6202
a(lp6203
I2125
aI2125
aaI-1
aI1
aS'Functions'
p6204
a(lp6205
I2129
aI2134
aaI1
aS'C1'
p6206
a(lp6207
I2131
aI2131
aaI-1
aI1
aS'C0'
p6208
a(lp6209
I2130
aI2130
aaI-1
aI1
aS'FunctionType'
p6210
a(lp6211
I2133
aI2133
aaI-1
aI1
aS'Domain'
p6212
a(lp6213
I2132
aI2132
aaI-1
aI1
ag88
a(lp6214
I2134
aI2134
aaI-3
aI1
aS'Domain'
p6215
a(lp6216
I2122
aI2122
aaI-1
aI1
aS'Extend'
p6217
a(lp6218
I2123
aI2123
aaI-1
aI1
aS'ColorSpace'
p6219
a(lp6220
I2120
aI2120
aaI-1
aI1
aS'AntiAlias'
p6221
a(lp6222
I2119
aI2119
aaI-1
aI1
aS'Coords'
p6223
a(lp6224
I2121
aI2121
aaI-1
aI1
aS'ShadingType'
p6225
a(lp6226
I2135
aI2135
aaI-3
aI1
aS'ExtGState'
p6227
a(lp6228
I2104
aI2104
aaI1
aS'Name'
p6229
a(lp6230
I2104
aI2104
aaI-2
aI1
aS'Font'
p6231
a(lp6232
I2105
aI2116
aaI1
aS'Name'
p6233
a(lp6234
I2105
aI2116
aaI1
aS'LastChar'
p6235
a(lp6236
I2110
aI2110
aaI-1
aI1
aS'Encoding'
p6237
a(lp6238
I2107
aI2107
aaI-1
aI1
aS'BaseFont'
p6239
a(lp6240
I2106
aI2106
aaI-1
aI1
aS'Widths'
p6241
a(lp6242
I2116
aI2116
aaI-1
aI1
aS'Subtype'
p6243
a(lp6244
I2111
aI2111
aaI-1
aI1
aS'ToUnicode'
p6245
a(lp6246
I2112
aI2114
aaI1
aS'Filter'
p6247
a(lp6248
I2113
aI2113
aaI-1
aI1
aS'Length'
p6249
a(lp6250
I2114
aI2114
aaI-2
aI1
aS'FontDescriptor'
p6251
a(lp6252
I2109
aI2109
aaI-1
aI1
aS'Type'
p6253
a(lp6254
I2115
aI2115
aaI-1
aI1
aS'FirstChar'
p6255
a(lp6256
I2108
aI2108
aaI-3
aI1
aS'XObject'
p6257
a(lp6258
I2136
aI2150
aaI1
aS'Name'
p6259
a(lp6260
I2136
aI2150
aaI1
aS'DecodeParms'
p6261
a(lp6262
I2139
aI2142
aaI1
aS'Colors'
p6263
a(lp6264
I2140
aI2140
aaI-1
aI1
aS'BitsPerComponent'
p6265
a(lp6266
I2139
aI2139
aaI-1
aI1
aS'Columns'
p6267
a(lp6268
I2141
aI2141
aaI-1
aI1
aS'Predictor'
p6269
a(lp6270
I2142
aI2142
aaI-2
aI1
aS'Name'
p6271
a(lp6272
I2147
aI2147
aaI-1
aI1
aS'Subtype'
p6273
a(lp6274
I2148
aI2148
aaI-1
aI1
aS'ColorSpace'
p6275
a(lp6276
I2138
aI2138
aaI-1
aI1
aS'Height'
p6277
a(lp6278
I2144
aI2144
aaI-1
aI1
aS'Filter'
p6279
a(lp6280
I2143
aI2143
aaI-1
aI1
aS'Width'
p6281
a(lp6282
I2150
aI2150
aaI-1
aI1
aS'Length'
p6283
a(lp6284
I2146
aI2146
aaI-1
aI1
aS'Intent'
p6285
a(lp6286
I2145
aI2145
aaI-1
aI1
aS'Type'
p6287
a(lp6288
I2149
aI2149
aaI-1
aI1
aS'BitsPerComponent'
p6289
a(lp6290
I2137
aI2137
aaI-3
aI1
aS'ProcSet'
p6291
a(lp6292
I2117
aI2117
aaI-3
aI1
aS'BC'
p6293
a(lp6294
I2092
aI2092
aaI-2
aI1
aS'TR2'
p6295
a(lp6296
I2156
aI2156
aaI-1
aI1
aS'ML'
p6297
a(lp6298
I2086
aI2086
aaI-1
aI1
aS'BG2'
p6299
a(lp6300
I2015
aI2015
aaI-1
aI1
aS'SM'
p6301
a(lp6302
I2090
aI2090
aaI-1
aI1
aS'OPM'
p6303
a(lp6304
I2088
aI2088
aaI-1
aI1
aS'SA'
p6305
a(lp6306
I2089
aI2089
aaI-1
aI1
aS'OP'
p6307
a(lp6308
I2087
aI2087
aaI-1
aI1
aS'op'
p6309
a(lp6310
I2168
aI2168
aaI-3
aI1
aS'Shading'
p6311
a(lp6312
I2369
aI2400
aaI1
aS'Name'
p6313
a(lp6314
I2370
aI2400
aaI1
aS'Function'
p6315
a(lp6316
I2377
aI2399
aaI1
aS'Domain'
p6317
a(lp6318
I2381
aI2381
aaI-1
aI1
aS'Functions'
p6319
a(lp6320
I2384
aI2397
aaI1
aS'Decode'
p6321
a(lp6322
I2388
aI2388
aaI-1
aI1
aS'BitsPerSample'
p6323
a(lp6324
I2385
aI2385
aaI-1
aI1
aS'Domain'
p6325
a(lp6326
I2389
aI2389
aaI-1
aI1
ag88
a(lp6327
I2394
aI2394
aaI-1
aI1
aS'Filter'
p6328
a(lp6329
I2391
aI2391
aaI-1
aI1
aS'Range'
p6330
a(lp6331
I2396
aI2396
aaI-1
aI1
aS'Length'
p6332
a(lp6333
I2393
aI2393
aaI-1
aI1
aS'Encode'
p6334
a(lp6335
I2390
aI2390
aaI-1
aI1
aS'C1'
p6336
a(lp6337
I2387
aI2387
aaI-1
aI1
aS'C0'
p6338
a(lp6339
I2386
aI2386
aaI-1
aI1
aS'FunctionType'
p6340
a(lp6341
I2392
aI2392
aaI-1
aI1
aS'Order'
p6342
a(lp6343
I2395
aI2395
aaI-1
aI1
aS'Size'
p6344
a(lp6345
I2397
aI2397
aaI-2
aI1
ag88
a(lp6346
I2398
aI2398
aaI-1
aI1
aS'Range'
p6347
a(lp6348
I2399
aI2399
aaI-1
aI1
aS'Encode'
p6349
a(lp6350
I2382
aI2382
aaI-1
aI1
aS'Bounds'
p6351
a(lp6352
I2378
aI2378
aaI-1
aI1
aS'C0'
p6353
a(lp6354
I2379
aI2379
aaI-1
aI1
aS'FunctionType'
p6355
a(lp6356
I2383
aI2383
aaI-1
aI1
aS'C1'
p6357
a(lp6358
I2380
aI2380
aaI-2
aI1
aS'Domain'
p6359
a(lp6360
I2375
aI2375
aaI-1
aI1
aS'Extend'
p6361
a(lp6362
I2376
aI2376
aaI-1
aI1
aS'ColorSpace'
p6363
a(lp6364
I2373
aI2373
aaI-1
aI1
aS'AntiAlias'
p6365
a(lp6366
I2371
aI2371
aaI-1
aI1
aS'Coords'
p6367
a(lp6368
I2374
aI2374
aaI-1
aI1
aS'BBox'
p6369
a(lp6370
I2372
aI2372
aaI-1
aI1
aS'ShadingType'
p6371
a(lp6372
I2400
aI2400
aaI-3
aI1
aS'ProcSet'
p6373
a(lp6374
I2342
aI2342
aaI-1
aI1
aS'Type'
p6375
a(lp6376
I2401
aI2401
aaI-1
aI1
aS'Properties'
p6377
a(lp6378
I2343
aI2368
aaI1
aS'Name'
p6379
a(lp6380
I2343
aI2368
aaI1
aS'Name'
p6381
a(lp6382
I2354
aI2354
aaI-1
aI1
aS'Title'
p6383
a(lp6384
I2363
aI2363
aaI-1
aI1
aS'Color'
p6385
a(lp6386
I2344
aI2344
aaI-1
aI1
aS'Creator'
p6387
a(lp6388
I2345
aI2345
aaI-1
aI1
aS'Editable'
p6389
a(lp6390
I2347
aI2347
aaI-1
aI1
aS'Dimmed'
p6391
a(lp6392
I2346
aI2346
aaI-1
aI1
aS'OCGs'
p6393
a(lp6394
I2355
aI2360
aaI1
aS'Usage'
p6395
a(lp6396
I2358
aI2360
aaI1
aS'PageElement'
p6397
a(lp6398
I2360
aI2360
aaI1
aS'Subtype'
p6399
a(lp6400
I2360
aI2360
aaI-2
aI1
aS'CreatorInfo'
p6401
a(lp6402
I2358
aI2359
aaI1
aS'Subtype'
p6403
a(lp6404
I2359
aI2359
aaI-1
aI1
aS'Creator'
p6405
a(lp6406
I2358
aI2358
aaI-3
aI1
aS'Type'
p6407
a(lp6408
I2357
aI2357
aaI-1
aI1
aS'Name'
p6409
a(lp6410
I2356
aI2356
aaI-2
aI1
aS'Visible'
p6411
a(lp6412
I2368
aI2368
aaI-1
aI1
aS'Intent'
p6413
a(lp6414
I2348
aI2348
aaI-1
aI1
aS'Printed'
p6415
a(lp6416
I2362
aI2362
aaI-1
aI1
aS'Usage'
p6417
a(lp6418
I2365
aI2367
aaI1
aS'CreatorInfo'
p6419
a(lp6420
I2366
aI2367
aaI1
aS'Subtype'
p6421
a(lp6422
I2367
aI2367
aaI-1
aI1
aS'Creator'
p6423
a(lp6424
I2366
aI2366
aaI-3
aI1
aS'Preview'
p6425
a(lp6426
I2361
aI2361
aaI-1
aI1
aS'Type'
p6427
a(lp6428
I2364
aI2364
aaI-1
aI1
aS'Metadata'
p6429
a(lp6430
I2349
aI2353
aaI1
aS'Filter'
p6431
a(lp6432
I2350
aI2350
aaI-1
aI1
aS'Subtype'
p6433
a(lp6434
I2352
aI2352
aaI-1
aI1
aS'Length'
p6435
a(lp6436
I2351
aI2351
aaI-1
aI1
aS'Type'
p6437
a(lp6438
I2353
aI2353
aaI-5
aI1
aS'Count'
p6439
a(lp6440
I1848
aI1848
aaI-1
aI1
aS'ArtBox'
p6441
a(lp6442
I1831
aI1831
aaI-1
aI1
aS'BleedBox'
p6443
a(lp6444
I1839
aI1839
aaI-1
aI1
aS'Gofod'
p6445
a(lp6446
I1853
aI1853
aaI-1
aI1
aS'BaseFont'
p6447
a(lp6448
I1838
aI1838
aaI-1
aI1
aS'ITXT'
p6449
a(lp6450
I1865
aI1865
aaI-1
aI1
aS'TrimBox'
p6451
a(lp6452
I2732
aI2732
aaI-1
aI1
aS'Subtype'
p6453
a(lp6454
I2714
aI2714
aaI-1
aI1
aS'PieceInfo'
p6455
a(lp6456
I1873
aI1965
aaI1
aS'Acroscan2'
p6457
a(lp6458
I1877
aI1910
aaI1
aS'LastModified'
p6459
a(lp6460
I1877
aI1877
aaI-1
aI1
aS'Private'
p6461
a(lp6462
I1878
aI1910
aaI1
aS'Rows'
p6463
a(lp6464
I1898
aI1898
aaI-1
aI1
aS'Media'
p6465
a(lp6466
I1893
aI1893
aaI-1
aI1
aS'SZMinWW'
p6467
a(lp6468
I1905
aI1905
aaI-1
aI1
aS'FXMedia'
p6469
a(lp6470
I1885
aI1885
aaI-1
aI1
aS'JBIG2Quality'
p6471
a(lp6472
I1890
aI1890
aaI-1
aI1
aS'SZADFMaxSW'
p6473
a(lp6474
I1901
aI1901
aaI-1
aI1
aS'Columns'
p6475
a(lp6476
I1882
aI1882
aaI-1
aI1
aS'DefaultUpsample'
p6477
a(lp6478
I1883
aI1883
aaI-1
aI1
aS'BandHeight'
p6479
a(lp6480
I1879
aI1879
aaI-1
aI1
aS'Precision'
p6481
a(lp6482
I1896
aI1896
aaI-1
aI1
aS'FixHalos'
p6483
a(lp6484
I1888
aI1888
aaI-1
aI1
aS'FXRes'
p6485
a(lp6486
I1886
aI1886
aaI-1
aI1
aS'SZMaxSW'
p6487
a(lp6488
I1904
aI1904
aaI-1
aI1
aS'Segment'
p6489
a(lp6490
I1908
aI1908
aaI-1
aI1
aS'SZTop'
p6491
a(lp6492
I1907
aI1907
aaI-1
aI1
aS'PepperFilters'
p6493
a(lp6494
I1895
aI1895
aaI-1
aI1
aS'FYRes'
p6495
a(lp6496
I1887
aI1887
aaI-1
aI1
aS'LZWPredictor'
p6497
a(lp6498
I1892
aI1892
aaI-1
aI1
aS'Deskew'
p6499
a(lp6500
I1884
aI1884
aaI-1
aI1
aS'YMapMin'
p6501
a(lp6502
I1909
aI1909
aaI-1
aI1
aS'ADF'
p6503
a(lp6504
I1878
aI1878
aaI-1
aI1
aS'MonoComp'
p6505
a(lp6506
I1894
aI1894
aaI-1
aI1
aS'SGray'
p6507
a(lp6508
I1899
aI1899
aaI-1
aI1
aS'YMedia'
p6509
a(lp6510
I1910
aI1910
aaI-1
aI1
aS'SZLeft'
p6511
a(lp6512
I1903
aI1903
aaI-1
aI1
aS'SMono'
p6513
a(lp6514
I1900
aI1900
aaI-1
aI1
aS'SZRight'
p6515
a(lp6516
I1906
aI1906
aaI-1
aI1
aS'LZWEarlyChange'
p6517
a(lp6518
I1891
aI1891
aaI-1
aI1
aS'InFormat'
p6519
a(lp6520
I1889
aI1889
aaI-1
aI1
aS'BlackUpsample'
p6521
a(lp6522
I1880
aI1880
aaI-1
aI1
aS'Colors'
p6523
a(lp6524
I1881
aI1881
aaI-1
aI1
aS'SZBot'
p6525
a(lp6526
I1902
aI1902
aaI-1
aI1
aS'Quality'
p6527
a(lp6528
I1897
aI1897
aaI-3
aI1
aS'Acroscan1'
p6529
a(lp6530
I1874
aI1876
aaI1
aS'LastModified'
p6531
a(lp6532
I1875
aI1875
aaI-1
aI1
aS'Private'
p6533
a(lp6534
I1876
aI1876
aaI-2
aI1
aS'Illustrator'
p6535
a(lp6536
I1911
aI1962
aaI1
aS'LastModified'
p6537
a(lp6538
I1912
aI1912
aaI-1
aI1
aS'Private'
p6539
a(lp6540
I1913
aI1962
aaI1
aS'AIPDFPrivateData10'
p6541
a(lp6542
I1920
aI1922
aaI1
aS'Filter'
p6543
a(lp6544
I1921
aI1921
aaI-1
aI1
aS'Length'
p6545
a(lp6546
I1922
aI1922
aaI-2
aI1
aS'NumBlock'
p6547
a(lp6548
I1961
aI1961
aaI-1
aI1
aS'AIPDFPrivateData11'
p6549
a(lp6550
I1923
aI1925
aaI1
aS'Filter'
p6551
a(lp6552
I1924
aI1924
aaI-1
aI1
aS'Length'
p6553
a(lp6554
I1925
aI1925
aaI-2
aI1
aS'AIMetaData'
p6555
a(lp6556
I1914
aI1916
aaI1
aS'Filter'
p6557
a(lp6558
I1915
aI1915
aaI-1
aI1
aS'Length'
p6559
a(lp6560
I1916
aI1916
aaI-2
aI1
aS'AIPDFPrivateData5'
p6561
a(lp6562
I1944
aI1946
aaI1
aS'Filter'
p6563
a(lp6564
I1945
aI1945
aaI-1
aI1
aS'Length'
p6565
a(lp6566
I1946
aI1946
aaI-2
aI1
aS'AIPDFPrivateData12'
p6567
a(lp6568
I1926
aI1928
aaI1
aS'Filter'
p6569
a(lp6570
I1927
aI1927
aaI-1
aI1
aS'Length'
p6571
a(lp6572
I1928
aI1928
aaI-2
aI1
aS'RoundtripVersion'
p6573
a(lp6574
I1962
aI1962
aaI-1
aI1
aS'AIPDFPrivateData6'
p6575
a(lp6576
I1947
aI1949
aaI1
aS'Filter'
p6577
a(lp6578
I1948
aI1948
aaI-1
aI1
aS'Length'
p6579
a(lp6580
I1949
aI1949
aaI-2
aI1
aS'AIPDFPrivateData7'
p6581
a(lp6582
I1950
aI1952
aaI1
aS'Filter'
p6583
a(lp6584
I1951
aI1951
aaI-1
aI1
aS'Length'
p6585
a(lp6586
I1952
aI1952
aaI-2
aI1
aS'AIPDFPrivateData4'
p6587
a(lp6588
I1941
aI1943
aaI1
aS'Filter'
p6589
a(lp6590
I1942
aI1942
aaI-1
aI1
aS'Length'
p6591
a(lp6592
I1943
aI1943
aaI-2
aI1
aS'AIPDFPrivateData13'
p6593
a(lp6594
I1929
aI1931
aaI1
aS'Filter'
p6595
a(lp6596
I1930
aI1930
aaI-1
aI1
aS'Length'
p6597
a(lp6598
I1931
aI1931
aaI-2
aI1
aS'AIPDFPrivateData14'
p6599
a(lp6600
I1932
aI1934
aaI1
aS'Filter'
p6601
a(lp6602
I1933
aI1933
aaI-1
aI1
aS'Length'
p6603
a(lp6604
I1934
aI1934
aaI-2
aI1
aS'AIPDFPrivateData3'
p6605
a(lp6606
I1938
aI1940
aaI1
aS'Filter'
p6607
a(lp6608
I1939
aI1939
aaI-1
aI1
aS'Length'
p6609
a(lp6610
I1940
aI1940
aaI-2
aI1
aS'AIPDFPrivateData1'
p6611
a(lp6612
I1917
aI1919
aaI1
aS'Filter'
p6613
a(lp6614
I1918
aI1918
aaI-1
aI1
aS'Length'
p6615
a(lp6616
I1919
aI1919
aaI-2
aI1
aS'AIPDFPrivateData2'
p6617
a(lp6618
I1935
aI1937
aaI1
aS'Filter'
p6619
a(lp6620
I1936
aI1936
aaI-1
aI1
aS'Length'
p6621
a(lp6622
I1937
aI1937
aaI-2
aI1
aS'ContainerVersion'
p6623
a(lp6624
I1959
aI1959
aaI-1
aI1
aS'CreatorVersion'
p6625
a(lp6626
I1960
aI1960
aaI-1
aI1
aS'AIPDFPrivateData8'
p6627
a(lp6628
I1953
aI1955
aaI1
aS'Filter'
p6629
a(lp6630
I1954
aI1954
aaI-1
aI1
aS'Length'
p6631
a(lp6632
I1955
aI1955
aaI-2
aI1
aS'AIPDFPrivateData9'
p6633
a(lp6634
I1956
aI1958
aaI1
aS'Filter'
p6635
a(lp6636
I1957
aI1957
aaI-1
aI1
aS'Length'
p6637
a(lp6638
I1958
aI1958
aaI-4
aI1
aS'PDFWP'
p6639
a(lp6640
I1963
aI1965
aaI1
aS'LastModified'
p6641
a(lp6642
I1964
aI1964
aaI-1
aI1
aS'Private'
p6643
a(lp6644
I1965
aI1965
aaI-3
aI1
aS'Trans'
p6645
a(lp6646
I2725
aI2731
aaI1
aS'Dm'
p6647
a(lp6648
I2729
aI2729
aaI-1
aI1
ag45
a(lp6649
I2727
aI2727
aaI-1
aI1
aS'Directional'
p6650
a(lp6651
I2728
aI2728
aaI-1
aI1
aS'Curve'
p6652
a(lp6653
I2726
aI2726
aaI-1
aI1
ag218
a(lp6654
I2730
aI2730
aaI-1
aI1
ag100
a(lp6655
I2731
aI2731
aaI-2
aI1
aS'ID'
p6656
a(lp6657
I1864
aI1864
aaI-1
aI1
aS'Rotate'
p6658
a(lp6659
I2712
aI2712
aaI-1
aI1
aS'count'
p6660
a(lp6661
I2745
aI2745
aaI-1
aI1
aS'VP'
p6662
a(lp6663
I2734
aI2742
aaI1
aS'BBox'
p6664
a(lp6665
I2734
aI2734
aaI-1
aI1
aS'Measure'
p6666
a(lp6667
I2735
aI2742
aaI1
ag35
a(lp6668
I2735
aI2736
aaI1
ag210
a(lp6669
I2735
aI2735
aaI-1
aI1
ag302
a(lp6670
I2736
aI2736
aaI-2
aI1
aS'Subtype'
p6671
a(lp6672
I2740
aI2740
aaI-1
aI1
ag54
a(lp6673
I2739
aI2739
aaI-1
aI1
ag45
a(lp6674
I2737
aI2738
aaI1
ag210
a(lp6675
I2737
aI2737
aaI-1
aI1
ag302
a(lp6676
I2738
aI2738
aaI-2
aI1
ag310
a(lp6677
I2741
aI2742
aaI1
ag210
a(lp6678
I2741
aI2741
aaI-1
aI1
ag302
a(lp6679
I2742
aI2742
aaI-4
aI1
aS'Encoding'
p6680
a(lp6681
I1850
aI1850
aaI-1
aI1
aS'Tabs'
p6682
a(lp6683
I2715
aI2715
aaI-1
aI1
aS'StructParents'
p6684
a(lp6685
I2713
aI2713
aaI-1
aI1
aS'Marked'
p6686
a(lp6687
I1870
aI1870
aaI-1
aI1
aS'eCpyResolution'
p6688
a(lp6689
I2746
aI2746
aaI-1
aI1
aS'QInserted'
p6690
a(lp6691
I1967
aI1967
aaI-1
aI1
aS'Font'
p6692
a(lp6693
I1851
aI1852
aaI1
aS'F1'
p6694
a(lp6695
I1851
aI1851
aaI-1
aI1
aS'F2'
p6696
a(lp6697
I1852
aI1852
aaI-2
aI1
aS'Id'
p6698
a(lp6699
I1866
aI1866
aaI-1
aI1
aS'Contents'
p6700
a(lp6701
I1840
aI1847
aaI1
aS'DecodeParms'
p6702
a(lp6703
I1841
aI1845
aaI1
aS'Colors'
p6704
a(lp6705
I1843
aI1843
aaI-1
aI1
aS'BitsPerComponent'
p6706
a(lp6707
I1842
aI1842
aaI-1
aI1
aS'Columns'
p6708
a(lp6709
I1844
aI1844
aaI-1
aI1
aS'Predictor'
p6710
a(lp6711
I1845
aI1845
aaI-2
aI1
aS'Filter'
p6712
a(lp6713
I1846
aI1846
aaI-1
aI1
aS'Length'
p6714
a(lp6715
I1847
aI1847
aaI-3
aI1
aS'OCProperties'
p6716
a(lp6717
I650
aI671
aaI1
aS'OCGs'
p6718
a(lp6719
I660
aI671
aaI1
aS'Usage'
p6720
a(lp6721
I664
aI671
aaI1
aS'Print'
p6722
a(lp6723
I670
aI670
aaI1
aS'PrintState'
p6724
a(lp6725
I670
aI670
aaI-2
aI1
aS'Export'
p6726
a(lp6727
I667
aI667
aaI1
aS'ExportState'
p6728
a(lp6729
I667
aI667
aaI-2
aI1
aS'CreatorInfo'
p6730
a(lp6731
I665
aI666
aaI1
aS'Subtype'
p6732
a(lp6733
I666
aI666
aaI-1
aI1
aS'Creator'
p6734
a(lp6735
I665
aI665
aaI-2
aI1
aS'PageElement'
p6736
a(lp6737
I668
aI669
aaI1
aS'SubType'
p6738
a(lp6739
I668
aI668
aaI-1
aI1
aS'Subtype'
p6740
a(lp6741
I669
aI669
aaI-2
aI1
aS'View'
p6742
a(lp6743
I671
aI671
aaI1
aS'ViewState'
p6744
a(lp6745
I671
aI671
aaI-3
aI1
aS'Intent'
p6746
a(lp6747
I661
aI661
aaI-1
aI1
aS'Type'
p6748
a(lp6749
I663
aI663
aaI-1
aI1
aS'Name'
p6750
a(lp6751
I662
aI662
aaI-2
aI1
ag45
a(lp6752
I650
aI659
aaI1
aS'ON'
p6753
a(lp6754
I657
aI657
aaI-1
aI1
aS'Locked'
p6755
a(lp6756
I655
aI655
aaI-1
aI1
aS'AS'
p6757
a(lp6758
I651
aI653
aaI1
aS'Category'
p6759
a(lp6760
I651
aI651
aaI-1
aI1
aS'OCGs'
p6761
a(lp6762
I653
aI653
aaI-1
aI1
aS'Event'
p6763
a(lp6764
I652
aI652
aaI-2
aI1
aS'RBGroups'
p6765
a(lp6766
I659
aI659
aaI-1
aI1
aS'OFF'
p6767
a(lp6768
I656
aI656
aaI-1
aI1
aS'BaseState'
p6769
a(lp6770
I654
aI654
aaI-1
aI1
aS'Order'
p6771
a(lp6772
I658
aI658
aaI-3
aI1
aS'Dests'
p6773
a(lp6774
I464
aI464
aaI-1
aI1
aS'Names'
p6775
a(lp6776
I507
aI647
aaI1
aS'Templates'
p6777
a(lp6778
I640
aI641
aaI1
aS'Names'
p6779
a(lp6780
I641
aI641
aaI-2
aI1
aS'JavaScript'
p6781
a(lp6782
I632
aI638
aaI1
aS'Names'
p6783
a(lp6784
I633
aI638
aaI1
ag100
a(lp6785
I637
aI637
aaI-1
aI1
aS'Type'
p6786
a(lp6787
I638
aI638
aaI-1
aI1
aS'JS'
p6788
a(lp6789
I634
aI636
aaI1
aS'Filter'
p6790
a(lp6791
I635
aI635
aaI-1
aI1
aS'Length'
p6792
a(lp6793
I636
aI636
aaI-4
aI1
aS'XFAImages'
p6794
a(lp6795
I644
aI647
aaI1
aS'Names'
p6796
a(lp6797
I645
aI647
aaI1
aS'Filter'
p6798
a(lp6799
I646
aI646
aaI-1
aI1
aS'Length'
p6800
a(lp6801
I647
aI647
aaI-3
aI1
aS'IDS'
p6802
a(lp6803
I550
aI561
aaI1
aS'Names'
p6804
a(lp6805
I551
aI561
aaI1
aS'SI'
p6806
a(lp6807
I556
aI558
aaI1
aS'AU'
p6808
a(lp6809
I557
aI557
aaI-1
aI1
aS'TS'
p6810
a(lp6811
I558
aI558
aaI-2
aI1
ag105
a(lp6812
I554
aI554
aaI-1
aI1
aS'TS'
p6813
a(lp6814
I561
aI561
aaI-1
aI1
ag100
a(lp6815
I555
aI555
aaI-1
aI1
ag91
a(lp6816
I559
aI559
aaI-1
aI1
aS'TID'
p6817
a(lp6818
I560
aI560
aaI-1
aI1
aS'ID'
p6819
a(lp6820
I553
aI553
aaI-1
aI1
aS'CT'
p6821
a(lp6822
I552
aI552
aaI-3
aI1
aS'AP'
p6823
a(lp6824
I508
aI518
aaI1
aS'Names'
p6825
a(lp6826
I509
aI518
aaI1
aS'Matrix'
p6827
a(lp6828
I514
aI514
aaI-1
aI1
aS'Filter'
p6829
a(lp6830
I511
aI511
aaI-1
aI1
aS'Subtype'
p6831
a(lp6832
I517
aI517
aaI-1
aI1
aS'Length'
p6833
a(lp6834
I513
aI513
aaI-1
aI1
aS'BBox'
p6835
a(lp6836
I510
aI510
aaI-1
aI1
aS'FormType'
p6837
a(lp6838
I512
aI512
aaI-1
aI1
aS'Type'
p6839
a(lp6840
I518
aI518
aaI-1
aI1
aS'Resources'
p6841
a(lp6842
I515
aI516
aaI1
aS'ProcSet'
p6843
a(lp6844
I516
aI516
aaI-4
aI1
aS'EmbeddedFiles'
p6845
a(lp6846
I524
aI549
aaI1
aS'Names'
p6847
a(lp6848
I526
aI549
aaI1
aS'Thumb'
p6849
a(lp6850
I540
aI547
aaI1
aS'Subtype'
p6851
a(lp6852
I546
aI546
aaI-1
aI1
aS'ColorSpace'
p6853
a(lp6854
I542
aI542
aaI-1
aI1
aS'Height'
p6855
a(lp6856
I544
aI544
aaI-1
aI1
aS'Filter'
p6857
a(lp6858
I543
aI543
aaI-1
aI1
aS'Width'
p6859
a(lp6860
I547
aI547
aaI-1
aI1
aS'Length'
p6861
a(lp6862
I545
aI545
aaI-1
aI1
aS'BitsPerComponent'
p6863
a(lp6864
I541
aI541
aaI-2
aI1
ag205
a(lp6865
I539
aI539
aaI-1
aI1
aS'EF'
p6866
a(lp6867
I528
aI538
aaI1
ag205
a(lp6868
I528
aI538
aaI1
aS'DL'
p6869
a(lp6870
I529
aI529
aaI-1
aI1
aS'Filter'
p6871
a(lp6872
I530
aI530
aaI-1
aI1
aS'Subtype'
p6873
a(lp6874
I537
aI537
aaI-1
aI1
aS'Length'
p6875
a(lp6876
I531
aI531
aaI-1
aI1
aS'Params'
p6877
a(lp6878
I532
aI536
aaI1
aS'CheckSum'
p6879
a(lp6880
I533
aI533
aaI-1
aI1
aS'ModDate'
p6881
a(lp6882
I535
aI535
aaI-1
aI1
aS'CreationDate'
p6883
a(lp6884
I534
aI534
aaI-1
aI1
aS'Size'
p6885
a(lp6886
I536
aI536
aaI-2
aI1
aS'Type'
p6887
a(lp6888
I538
aI538
aaI-3
aI1
aS'UF'
p6889
a(lp6890
I549
aI549
aaI-1
aI1
aS'Type'
p6891
a(lp6892
I548
aI548
aaI-1
aI1
aS'Desc'
p6893
a(lp6894
I527
aI527
aaI-2
aI1
aS'Limits'
p6895
a(lp6896
I525
aI525
aaI-2
aI1
aS'Dests'
p6897
a(lp6898
I519
aI523
aaI1
aS'Names'
p6899
a(lp6900
I521
aI523
aaI1
ag100
a(lp6901
I523
aI523
aaI-1
aI1
ag45
a(lp6902
I522
aI522
aaI-2
aI1
aS'Limits'
p6903
a(lp6904
I520
aI520
aaI-2
aI1
aS'URLS'
p6905
a(lp6906
I642
aI643
aaI1
aS'Names'
p6907
a(lp6908
I643
aI643
aaI-2
aI1
aS'IDTree'
p6909
a(lp6910
I562
aI631
aaI1
aS'Names'
p6911
a(lp6912
I564
aI631
aaI1
ag35
a(lp6913
I565
aI589
aaI1
aS'Width'
p6914
a(lp6915
I588
aI588
aaI-1
aI1
aS'BlockAlign'
p6916
a(lp6917
I568
aI568
aaI-1
aI1
aS'TextIndent'
p6918
a(lp6919
I587
aI587
aaI-1
aI1
aS'Scope'
p6920
a(lp6921
I581
aI581
aaI-1
aI1
aS'BorderStyle'
p6922
a(lp6923
I570
aI570
aaI-1
aI1
aS'RowSpan'
p6924
a(lp6925
I580
aI580
aaI-1
aI1
aS'ColSpan'
p6926
a(lp6927
I572
aI572
aaI-1
aI1
aS'TextDecorationType'
p6928
a(lp6929
I586
aI586
aaI-1
aI1
aS'BorderThickness'
p6930
a(lp6931
I571
aI571
aaI-1
aI1
aS'BorderColor'
p6932
a(lp6933
I569
aI569
aaI-1
aI1
aS'EndIndent'
p6934
a(lp6935
I573
aI573
aaI-1
aI1
aS'Placement'
p6936
a(lp6937
I579
aI579
aaI-1
aI1
aS'InlineAlign'
p6938
a(lp6939
I576
aI576
aaI-1
aI1
ag105
a(lp6940
I578
aI578
aaI-1
aI1
aS'Headers'
p6941
a(lp6942
I574
aI574
aaI-1
aI1
aS'WritingMode'
p6943
a(lp6944
I589
aI589
aaI-1
aI1
aS'BackgroundColor'
p6945
a(lp6946
I567
aI567
aaI-1
aI1
aS'LineHeight'
p6947
a(lp6948
I577
aI577
aaI-1
aI1
aS'SpaceAfter'
p6949
a(lp6950
I582
aI582
aaI-1
aI1
aS'SpaceBefore'
p6951
a(lp6952
I583
aI583
aaI-1
aI1
aS'Height'
p6953
a(lp6954
I575
aI575
aaI-1
aI1
aS'StartIndent'
p6955
a(lp6956
I584
aI584
aaI-1
aI1
aS'TextAlign'
p6957
a(lp6958
I585
aI585
aaI-1
aI1
aS'BBox'
p6959
a(lp6960
I566
aI566
aaI-2
aI1
ag210
a(lp6961
I592
aI592
aaI-1
aI1
ag447
a(lp6962
I594
aI627
aaI1
aS'Obj'
p6963
a(lp6964
I595
aI625
aaI1
aS'FT'
p6965
a(lp6966
I616
aI616
aaI-1
aI1
aS'AP'
p6967
a(lp6968
I596
aI613
aaI1
ag45
a(lp6969
I596
aI604
aaI1
aS'Name'
p6970
a(lp6971
I596
aI604
aaI1
aS'Matrix'
p6972
a(lp6973
I601
aI601
aaI-1
aI1
aS'Filter'
p6974
a(lp6975
I598
aI598
aaI-1
aI1
aS'Subtype'
p6976
a(lp6977
I603
aI603
aaI-1
aI1
aS'Length'
p6978
a(lp6979
I600
aI600
aaI-1
aI1
aS'BBox'
p6980
a(lp6981
I597
aI597
aaI-1
aI1
aS'FormType'
p6982
a(lp6983
I599
aI599
aaI-1
aI1
aS'Type'
p6984
a(lp6985
I604
aI604
aaI-1
aI1
aS'Resources'
p6986
a(lp6987
I602
aI602
aaI1
aS'ProcSet'
p6988
a(lp6989
I602
aI602
aaI-4
aI1
ag88
a(lp6990
I605
aI613
aaI1
aS'Name'
p6991
a(lp6992
I605
aI613
aaI1
aS'Matrix'
p6993
a(lp6994
I610
aI610
aaI-1
aI1
aS'Filter'
p6995
a(lp6996
I607
aI607
aaI-1
aI1
aS'Subtype'
p6997
a(lp6998
I612
aI612
aaI-1
aI1
aS'Length'
p6999
a(lp7000
I609
aI609
aaI-1
aI1
aS'BBox'
p7001
a(lp7002
I606
aI606
aaI-1
aI1
aS'FormType'
p7003
a(lp7004
I608
aI608
aaI-1
aI1
aS'Type'
p7005
a(lp7006
I613
aI613
aaI-1
aI1
aS'Resources'
p7007
a(lp7008
I611
aI611
aaI1
aS'ProcSet'
p7009
a(lp7010
I611
aI611
aaI-5
aI1
ag205
a(lp7011
I615
aI615
aaI-1
aI1
aS'MK'
p7012
a(lp7013
I617
aI618
aaI1
aS'CA'
p7014
a(lp7015
I618
aI618
aaI-1
aI1
aS'BG'
p7016
a(lp7017
I617
aI617
aaI-2
aI1
aS'Subtype'
p7018
a(lp7019
I622
aI622
aaI-1
aI1
ag31
a(lp7020
I619
aI619
aaI-1
aI1
aS'AS'
p7021
a(lp7022
I614
aI614
aaI-1
aI1
ag91
a(lp7023
I623
aI623
aaI-1
aI1
aS'removed'
p7024
a(lp7025
I625
aI625
aaI-1
aI1
aS'Type'
p7026
a(lp7027
I624
aI624
aaI-1
aI1
aS'Rect'
p7028
a(lp7029
I620
aI620
aaI-1
aI1
aS'StructParent'
p7030
a(lp7031
I621
aI621
aaI-2
aI1
aS'Type'
p7032
a(lp7033
I627
aI627
aaI-1
aI1
aS'Pg'
p7034
a(lp7035
I626
aI626
aaI-2
aI1
aS'ActualText'
p7036
a(lp7037
I590
aI590
aaI-1
aI1
ag31
a(lp7038
I628
aI628
aaI-1
aI1
ag100
a(lp7039
I630
aI630
aaI-1
aI1
aS'Pg'
p7040
a(lp7041
I629
aI629
aaI-1
aI1
aS'Alt'
p7042
a(lp7043
I591
aI591
aaI-1
aI1
aS'ID'
p7044
a(lp7045
I593
aI593
aaI-1
aI1
ag91
a(lp7046
I631
aI631
aaI-2
aI1
aS'Limits'
p7047
a(lp7048
I563
aI563
aaI-2
aI1
aS'Pages'
p7049
a(lp7050
I639
aI639
aaI-2
aI1
aS'PageMode'
p7051
a(lp7052
I1552
aI1552
aabsS'_separator'
p7053
S'/'
p7054
sS'_sorted'
p7055
I00
sb.