(lp0
S'/home/yz/data/weilin_seeds/2d6e7dd38b86c26eb67fdf4606d2edf3cd403cfd.pdf'
p1
aS'/home/yz/data/weilin_seeds/60c661beef9e23404be4fbe003632b18d769f1e8.pdf'
p2
aS'/home/yz/data/weilin_seeds/a8842912e81044e1437c39006efda574d6d9d172.pdf'
p3
aS'/home/yz/data/weilin_seeds/e41205c4dcd468e672614972c5bf67546bcac234.pdf'
p4
aS'/home/yz/data/weilin_seeds/a8ec9e815831a4813e02b11929052536635911cc.pdf'
p5
aS'/home/yz/data/weilin_seeds/3b96ee95edc46fc47d6063e60ff0296e31df5298.pdf'
p6
aS'/home/yz/data/weilin_seeds/963bf280e383cefba5912f1b5e6890ef7cf53084.pdf'
p7
aS'/home/yz/data/weilin_seeds/48eba2a3cce86345e45bd7d6d834bdf022a88f68.pdf'
p8
aS'/home/yz/data/weilin_seeds/827fcfe79498d48eb8ac3cb512e7932be35d93ff.pdf'
p9
aS'/home/yz/data/weilin_seeds/195ada0ab86a454d0e64ce1a2fcfe88b24133ff6.pdf'
p10
aS'/home/yz/data/weilin_seeds/46f5a1bc519740be95f1c2b10d304680c2fb0f1a.pdf'
p11
aS'/home/yz/data/weilin_seeds/27cf7f3ac837374770dc5d367be6742d705dcb64.pdf'
p12
aS'/home/yz/data/weilin_seeds/25b68c8a1fa2716f81f1de35e8ae843cd67ddf4c.pdf'
p13
aS'/home/yz/data/weilin_seeds/5ed057f94d18d97c00d7f03bd1127d805806df39.pdf'
p14
aS'/home/yz/data/weilin_seeds/eade9aa8057a212ccdefd21ee66e848b4bed0f4e.pdf'
p15
aS'/home/yz/data/weilin_seeds/69248b13926db6c86704e7861da0092295f4edfa.pdf'
p16
aS'/home/yz/data/weilin_seeds/fc2ed41d7512a73c8b6d59a3c80e186e5a08f3eb.pdf'
p17
aS'/home/yz/data/weilin_seeds/f0a40b4fc2e9e5b5d70b11da52be6aacfabe658b.pdf'
p18
aS'/home/yz/data/weilin_seeds/6606995f972d466832d089f7123bc6ea5853afe4.pdf'
p19
aS'/home/yz/data/weilin_seeds/8e2ba37bd831f645f8ea43cbf60d9b9d5f2fb7c5.pdf'
p20
aS'/home/yz/data/weilin_seeds/0bdffb18e6bbbf4a3e494e568912f0b74e4f3e31.pdf'
p21
aS'/home/yz/data/weilin_seeds/d337386aaba3c82287266c2eab3d33d6c7b064b8.pdf'
p22
aS'/home/yz/data/weilin_seeds/984046b7c334b1f75eb2cb94d4715935cf90b2e5.pdf'
p23
aS'/home/yz/data/weilin_seeds/d446fd4ca90e1560427e3aa87c425b218577bf86.pdf'
p24
aS'/home/yz/data/weilin_seeds/69bebd28375179cef7ab9894ce236accfe1e1ed2.pdf'
p25
aS'/home/yz/data/weilin_seeds/0650b1851ac658e2ed5577acf8b5e994ada14aaf.pdf'
p26
aS'/home/yz/data/weilin_seeds/4fd4154857d004145f6f247f8a2cf8b035252d1d.pdf'
p27
aS'/home/yz/data/weilin_seeds/f69b6f4a7d51189677c9d6c74c9b01086737c42e.pdf'
p28
aS'/home/yz/data/weilin_seeds/66c7021ea9d82bc1adf3b7c4f79f2e24d4c9fbbc.pdf'
p29
aS'/home/yz/data/weilin_seeds/ae0a221bbbca0805aca6d341004665b35634db3f.pdf'
p30
aS'/home/yz/data/weilin_seeds/95d87edadd2445b04eab7e5d24b0bbc26fee6d1e.pdf'
p31
aS'/home/yz/data/weilin_seeds/1dc65d18c062c611026f33f1348a8948f5d7b420.pdf'
p32
aS'/home/yz/data/weilin_seeds/25ccffb6bc2d838e995c6bbc50eb37f36b216a8e.pdf'
p33
aS'/home/yz/data/weilin_seeds/6cc2acc7c34f58d35e278334d3c47044b4f217ea.pdf'
p34
aS'/home/yz/data/weilin_seeds/4599a4e9b04964d8a671981e24d874fecf36fb0c.pdf'
p35
aS'/home/yz/data/weilin_seeds/80c31880a315168ec48bd581c689d30432e115e6.pdf'
p36
aS'/home/yz/data/weilin_seeds/0919a65814808ee5a52591fe360a3b0fa8bfa82c.pdf'
p37
aS'/home/yz/data/weilin_seeds/2062318f6841e0a18d997fb4e88581ca3771a6c2.pdf'
p38
aS'/home/yz/data/weilin_seeds/4eeeb10c1bb888273684738e508063df31f39b75.pdf'
p39
aS'/home/yz/data/weilin_seeds/0d20984290f080d185db54936df47b730ee85e10.pdf'
p40
aS'/home/yz/data/weilin_seeds/5868dfbd65863fce19c2c522ffcab3cdcee3f2aa.pdf'
p41
aS'/home/yz/data/weilin_seeds/060858e560920fe84c6463e9bd36b00434d6560d.pdf'
p42
aS'/home/yz/data/weilin_seeds/f3bee569e694786c11c5d7317dfb5125ec43e386.pdf'
p43
aS'/home/yz/data/weilin_seeds/4c7c560a843cfe158ed857a1168a5b4718b5a1c7.pdf'
p44
aS'/home/yz/data/weilin_seeds/6f19f3a55c8461960cdf47b986d12fb69a5f3a17.pdf'
p45
aS'/home/yz/data/weilin_seeds/a91c6ef850f43b1775286d2e60fba9b022ee6952.pdf'
p46
aS'/home/yz/data/weilin_seeds/b14e9c38ac1f65e5ec8eb54d67bbc62df5c69df0.pdf'
p47
aS'/home/yz/data/weilin_seeds/a74fa5a4e675ab91df09a4a9061c639ab84258b3.pdf'
p48
aS'/home/yz/data/weilin_seeds/e3d31e5c294ede68528e6188920ceb79ae38d754.pdf'
p49
aS'/home/yz/data/weilin_seeds/013f3d5c17e3bbdce85c457c55a71015e96603bd.pdf'
p50
aS'/home/yz/data/weilin_seeds/200e3c429c319ccface3b5a729ac80cff517a862.pdf'
p51
aS'/home/yz/data/weilin_seeds/2f16782b6d4d96228c28fa04a835c3c41bdb1e98.pdf'
p52
aS'/home/yz/data/weilin_seeds/e29b786af78d6ada2f8bbd6bda23bfcdb9353bc1.pdf'
p53
aS'/home/yz/data/weilin_seeds/ee5a87ea40504a5411897ebdd86428662e92939b.pdf'
p54
aS'/home/yz/data/weilin_seeds/caa5b1d1d0f94a3f480b68dae40f473c193cbe7a.pdf'
p55
aS'/home/yz/data/weilin_seeds/24320e819e6c7bbb4973907a26ab92ce264789ae.pdf'
p56
aS'/home/yz/data/weilin_seeds/8522e31a26197dbfa67419c0ed51a69f1a8b80c5.pdf'
p57
aS'/home/yz/data/weilin_seeds/6defae639389aab31c58dec7faa0a76b9e8e148b.pdf'
p58
aS'/home/yz/data/weilin_seeds/7f4423204cea56b713a8653d1a3591e793bb6bc6.pdf'
p59
aS'/home/yz/data/weilin_seeds/520a32894c4f5fc46ca5321370a8e6a2dfae9b93.pdf'
p60
aS'/home/yz/data/weilin_seeds/92a9c001edcfba9114085552ad2f4e58f00f1f4d.pdf'
p61
aS'/home/yz/data/weilin_seeds/506069bef64321fb23ed567c9d0e84f4357b2e4e.pdf'
p62
aS'/home/yz/data/weilin_seeds/270f18a66f2a8cce473e772c522444dbf171d47e.pdf'
p63
aS'/home/yz/data/weilin_seeds/ed41279143880f9ff39111f0d4f64a89d20e108f.pdf'
p64
aS'/home/yz/data/weilin_seeds/35efd102223aaa974b67f1f4487ad987753c7c0c.pdf'
p65
aS'/home/yz/data/weilin_seeds/a242e917b575192f96af294281df9a89d93fa3ab.pdf'
p66
aS'/home/yz/data/weilin_seeds/ec7fd9f7ab4314ad4996b4efb2094f21b30447f7.pdf'
p67
aS'/home/yz/data/weilin_seeds/c9d27b43899aa6aa6c81ee544209fc25cb10b98f.pdf'
p68
aS'/home/yz/data/weilin_seeds/cc0cfd8f1f9119093d7b979dbd9a19e922658ab3.pdf'
p69
aS'/home/yz/data/weilin_seeds/39f691a5395a0891e8397972b5a0f57523f96355.pdf'
p70
aS'/home/yz/data/weilin_seeds/2a578e59940eea27676a37026edd261ef37af8a0.pdf'
p71
aS'/home/yz/data/weilin_seeds/1f139a1ca66f1af8eebc92d07eac905ca2bc552b.pdf'
p72
aS'/home/yz/data/weilin_seeds/9e2588e572aec06653776f7ce28990e2fc99ac1a.pdf'
p73
aS'/home/yz/data/weilin_seeds/0ccc52a18b907d15ad3583298e477937d5c05765.pdf'
p74
aS'/home/yz/data/weilin_seeds/6777daaa8c21f1c76ac7bfa76b6b1528ef2ed528.pdf'
p75
aS'/home/yz/data/weilin_seeds/1d09fede25044414a63605811ca62fa7bf5de8ff.pdf'
p76
aS'/home/yz/data/weilin_seeds/44df75767639ca2b3ba97104a67b04675982a2aa.pdf'
p77
aS'/home/yz/data/weilin_seeds/becdce16cd8557e1b45024cbc93ec8fadc3851b9.pdf'
p78
aS'/home/yz/data/weilin_seeds/7bf9fad1af6d31f9c78a99af81fb01746e5a468b.pdf'
p79
aS'/home/yz/data/weilin_seeds/d49eb696fe79750d3a4fa21964a9f8746d0a95da.pdf'
p80
aS'/home/yz/data/weilin_seeds/bcaf999d8327c1d7699d4c59c9c2c993ccb4b694.pdf'
p81
aS'/home/yz/data/weilin_seeds/a5cdd150e84500a48581f867c118da3300892c79.pdf'
p82
aS'/home/yz/data/weilin_seeds/030dd0affc6ef3d24ede5527e67b7faa869f4bf2.pdf'
p83
aS'/home/yz/data/weilin_seeds/53e9e67721feadb94439c7452cfe33498a783ed7.pdf'
p84
aS'/home/yz/data/weilin_seeds/7f65abeb693c739eb7e07dd361ba092cdaae2480.pdf'
p85
aS'/home/yz/data/weilin_seeds/9e42ba7cbdfa6bb817ce6481dfbd687c0beecb9f.pdf'
p86
aS'/home/yz/data/weilin_seeds/f7e6bb144d185dcb081d6b6372300d8a7914d11d.pdf'
p87
aS'/home/yz/data/weilin_seeds/c5aac3259f8fb705232b5d18010ecdd8f4b0073b.pdf'
p88
aS'/home/yz/data/weilin_seeds/c713d93780ffc164aec45e4cb6a0197087dc6d8f.pdf'
p89
aS'/home/yz/data/weilin_seeds/cd983d0d207cb848e511dbf0f63866600bb0cc60.pdf'
p90
aS'/home/yz/data/weilin_seeds/a234f80eaabe9065464ab27abcdcc993c00de12a.pdf'
p91
aS'/home/yz/data/weilin_seeds/d52c2c95afa244d985536754fcbd2ef242d2049d.pdf'
p92
aS'/home/yz/data/weilin_seeds/f026f9bf8f5e6f5cadf0529803abe39bc093dec9.pdf'
p93
aS'/home/yz/data/weilin_seeds/d1027ed61a8f7551b5573c138412dd82bc93fb3a.pdf'
p94
aS'/home/yz/data/weilin_seeds/d0e06046ed882e9273f7b5f46f86acbe97abe6db.pdf'
p95
aS'/home/yz/data/weilin_seeds/965284e3359d30b840ec614b5b87d7a7896ce4fd.pdf'
p96
aS'/home/yz/data/weilin_seeds/21ecc34ad93c0757a44e4d9b7171db6e3faa1fdd.pdf'
p97
aS'/home/yz/data/weilin_seeds/75cb3ed87b46e3566c0acc231161cc00931d7bb8.pdf'
p98
aS'/home/yz/data/weilin_seeds/6583812a28ccc43a95e608f3d26a629b5f64744c.pdf'
p99
aS'/home/yz/data/weilin_seeds/914b1311145a51aa0fe386d59a2847bb774faad1.pdf'
p100
aS'/home/yz/data/weilin_seeds/2c43fbd950a5fa3501585bc9ef80d0a7dec45af2.pdf'
p101
aS'/home/yz/data/weilin_seeds/1311159df9d079425a95306aa143a634f85422d8.pdf'
p102
aS'/home/yz/data/weilin_seeds/bfd6757c2482579af1432ea2f44a0dbe965cb098.pdf'
p103
aS'/home/yz/data/weilin_seeds/edee3762c695c264d38717bec1a200988388ae39.pdf'
p104
aS'/home/yz/data/weilin_seeds/84d71e68dbd8d51d65e5d9de9ccf873ca2a15de0.pdf'
p105
aS'/home/yz/data/weilin_seeds/33265ccf1adeeb5f1b99fce5eddaec57e2858845.pdf'
p106
aS'/home/yz/data/weilin_seeds/f8a0e53d0c9dc8ea7e32620540b84bd4942f1c8a.pdf'
p107
aS'/home/yz/data/weilin_seeds/8c3391d1b4f38051778426d783180583cea64f18.pdf'
p108
aS'/home/yz/data/weilin_seeds/359038201db5d59d1c2502633848ddc529dee707.pdf'
p109
aS'/home/yz/data/weilin_seeds/245b14811899698cee783894c520ca92f34f31a1.pdf'
p110
aS'/home/yz/data/weilin_seeds/3a6e07172e573f55c444148eb8c3d972393e297e.pdf'
p111
aS'/home/yz/data/weilin_seeds/3ac4b39bdacd73cff1a9e68fa3eff42b25b47809.pdf'
p112
aS'/home/yz/data/weilin_seeds/56fdc0d7e77a4e41936c94739a91fbd51d7ad4d8.pdf'
p113
aS'/home/yz/data/weilin_seeds/c6d56a086f72a5861876c70bf4da7bfca1fa1cab.pdf'
p114
aS'/home/yz/data/weilin_seeds/e0b18b23398071f5d30cf6cf1acb9ab25ebf9067.pdf'
p115
aS'/home/yz/data/weilin_seeds/6c87e8f285c28c21df7bd3402aa5ee530af507e7.pdf'
p116
aS'/home/yz/data/weilin_seeds/336501bdba1f665e2907a13713798ef451cae80a.pdf'
p117
aS'/home/yz/data/weilin_seeds/ff0bfa347b60be403f3f13b8461d9e230570078b.pdf'
p118
aS'/home/yz/data/weilin_seeds/854412e5e23c6197b229c1596e483835a0c97e76.pdf'
p119
aS'/home/yz/data/weilin_seeds/2b3d9bea8e750a6251677a4f72911918aa44f1c1.pdf'
p120
aS'/home/yz/data/weilin_seeds/ca025fcc90aa28082392c4d8a050d52619a7fec7.pdf'
p121
aS'/home/yz/data/weilin_seeds/c146bf56f8a19cff7b743163f5aad77f4c9e0a15.pdf'
p122
aS'/home/yz/data/weilin_seeds/3ed72e5f35bdc712d8814ea80473e75b60989bd5.pdf'
p123
aS'/home/yz/data/weilin_seeds/8d71ccbf39ef2550921f00d2e13468c82225c74c.pdf'
p124
aS'/home/yz/data/weilin_seeds/b01be494ac00843796cb200caf91e7ab2e997c34.pdf'
p125
aS'/home/yz/data/weilin_seeds/7ca1d82de070f892305be195e3c70661372a5452.pdf'
p126
aS'/home/yz/data/weilin_seeds/5747dde0dac8081feab0518c47ec2650e1a0fb4a.pdf'
p127
aS'/home/yz/data/weilin_seeds/abbb0b4acd88e35f2de73e6c6e2b916085337a78.pdf'
p128
aS'/home/yz/data/weilin_seeds/bb5e5a2b9d615a916397cac1ab67b3425a301010.pdf'
p129
aS'/home/yz/data/weilin_seeds/96ff6af8d8cee463516b0e661cf14b007f8ae613.pdf'
p130
aS'/home/yz/data/weilin_seeds/de7394b388e9af8fcc4883209c7b83670837cf67.pdf'
p131
aS'/home/yz/data/weilin_seeds/375197368b191729bf3cf719500fdf726290e1ab.pdf'
p132
aS'/home/yz/data/weilin_seeds/eca6ceb8b5804bef708998bc19461d3d9530fd9d.pdf'
p133
aS'/home/yz/data/weilin_seeds/34b54a3a422e1e81e0752f67262efa90f9537e46.pdf'
p134
aS'/home/yz/data/weilin_seeds/254a5d51f0d7dd83f5fd6ab74b2c691bafbab56e.pdf'
p135
aS'/home/yz/data/weilin_seeds/8fbaf5b96f983a4df6caa13a5fbf72de8991109c.pdf'
p136
aS'/home/yz/data/weilin_seeds/f5f18134001454f77effe180bcf9b2dd3fa39c19.pdf'
p137
aS'/home/yz/data/weilin_seeds/c11372284ba2944e3c33415940e8144b6177787c.pdf'
p138
aS'/home/yz/data/weilin_seeds/f8069f3e8faf48c45970598064eadc995ab9a65e.pdf'
p139
aS'/home/yz/data/weilin_seeds/041cc7d14f46dcb24813223ed756e736e671f7db.pdf'
p140
aS'/home/yz/data/weilin_seeds/56eb92b01e2aa75ca2e273f9a67cc70787415cbb.pdf'
p141
aS'/home/yz/data/weilin_seeds/1cfa8efc2153ec959ded3cd60988dc6824291875.pdf'
p142
aS'/home/yz/data/weilin_seeds/808129877f793501fe7ece6bf389f05d2ce3cd32.pdf'
p143
aS'/home/yz/data/weilin_seeds/4f95d85cb4e9c398fbdab53db729ea1f98161d2c.pdf'
p144
aS'/home/yz/data/weilin_seeds/b1aae32465a4e1ed6f320d978322c699e7ead371.pdf'
p145
aS'/home/yz/data/weilin_seeds/4b8ce32da00ef3600328ddd1009c0746947a5be6.pdf'
p146
aS'/home/yz/data/weilin_seeds/3f1645a4fc85c9513d9bb501996ad624247bbb1b.pdf'
p147
aS'/home/yz/data/weilin_seeds/8524d329c40b24178f8f4ecc7481c55f1c48aaeb.pdf'
p148
aS'/home/yz/data/weilin_seeds/ecd6ae52f9c5522731b9e6e97871bb767281d72c.pdf'
p149
aS'/home/yz/data/weilin_seeds/e3c8ca200e533c86794178f3d20ebe69bd2d6152.pdf'
p150
aS'/home/yz/data/weilin_seeds/c8760231be04f3b0495be3aaa17ee80bf446e028.pdf'
p151
aS'/home/yz/data/weilin_seeds/1f3714547292bc6d8122dfa39d431a5e05b60b28.pdf'
p152
aS'/home/yz/data/weilin_seeds/2f9f1810b891ff9647ad16a74c683834a0a9b540.pdf'
p153
aS'/home/yz/data/weilin_seeds/ae794ca1ce9da419c4cd3e43457a41338b47a8be.pdf'
p154
aS'/home/yz/data/weilin_seeds/e583b65c9067adcd261f3933bcfe19cfee7108f0.pdf'
p155
aS'/home/yz/data/weilin_seeds/60af76759dd0afb36df17205cc908583e333e752.pdf'
p156
aS'/home/yz/data/weilin_seeds/88553406f528f4b746cf21a9685ce72a5e3c1aba.pdf'
p157
aS'/home/yz/data/weilin_seeds/49ad841aa3a9b7b7cdc098f4181c6814e84f284e.pdf'
p158
aS'/home/yz/data/weilin_seeds/6b1e35d834aa10ff453a21b0a1e99864501731ad.pdf'
p159
aS'/home/yz/data/weilin_seeds/ab5f22b906e54ad89f275915091af1939b96e7dc.pdf'
p160
aS'/home/yz/data/weilin_seeds/a87398f87b134ea17c4ebc739b1bdd981baeb607.pdf'
p161
aS'/home/yz/data/weilin_seeds/074e19834c0abf31911f672cac2ddebbcd03e78c.pdf'
p162
aS'/home/yz/data/weilin_seeds/b5461fb90094e01e3eb5060e9384f08e6c117dac.pdf'
p163
aS'/home/yz/data/weilin_seeds/530858058bf292d60dabe272496900466e799365.pdf'
p164
aS'/home/yz/data/weilin_seeds/15a1c5c9e00f2cf2813038aa495b8c445363bf2b.pdf'
p165
aS'/home/yz/data/weilin_seeds/00d3f97d86825dd7eae67b8cae2eda407cc9e0f3.pdf'
p166
aS'/home/yz/data/weilin_seeds/e4b7483333efee52ec5b166d719e9711b3419ba8.pdf'
p167
aS'/home/yz/data/weilin_seeds/78f0c7f21a952455e95f987c9ced3742de77a513.pdf'
p168
aS'/home/yz/data/weilin_seeds/1b734bbe1a01cf968dcf8fbbb689f31db3dd5009.pdf'
p169
aS'/home/yz/data/weilin_seeds/cd344500a86400dcc637568319274378ad7cb45e.pdf'
p170
aS'/home/yz/data/weilin_seeds/f37f6681ed04f428f4d89ac708a92d82730fc9ec.pdf'
p171
aS'/home/yz/data/weilin_seeds/e183bed050fcbe315350a9dbd7455a04d491b450.pdf'
p172
aS'/home/yz/data/weilin_seeds/ba361cc9f4ce2d3227d9f1631852a4d6a42e8ec1.pdf'
p173
aS'/home/yz/data/weilin_seeds/a1d0dface3eab5bc850a9ae51b35a638360aa58a.pdf'
p174
aS'/home/yz/data/weilin_seeds/7a23212950497a989bd2d33f8d5ac7227f00165d.pdf'
p175
aS'/home/yz/data/weilin_seeds/9da39c1af459369869e471f58c723c82713a75f2.pdf'
p176
aS'/home/yz/data/weilin_seeds/ec210c89b8315bf122d356923e4ca41c54df6219.pdf'
p177
aS'/home/yz/data/weilin_seeds/67aa488144c16b60c5c14e51d5ef47ba19fac1e3.pdf'
p178
aS'/home/yz/data/weilin_seeds/dcb548932c2408deddd2abc3ecafcd00cceacfd0.pdf'
p179
aS'/home/yz/data/weilin_seeds/745f3d57c7fb13061fc33610ceacd864c05c4b7f.pdf'
p180
aS'/home/yz/data/weilin_seeds/7821bde3800a182958171eae0cc799fcfa2620cb.pdf'
p181
aS'/home/yz/data/weilin_seeds/c9586f93b49f7d340d016b1b3ea76b35aef75a38.pdf'
p182
aS'/home/yz/data/weilin_seeds/a49cb32417967efe79bac788048b03bd57ce7c2b.pdf'
p183
aS'/home/yz/data/weilin_seeds/23dd48fc7f37e3d3373c6c563f13ebbb8318b966.pdf'
p184
aS'/home/yz/data/weilin_seeds/259dbaf360cb9c6ae387190ce7e398590df46a95.pdf'
p185
aS'/home/yz/data/weilin_seeds/f03fc8934bb886e9c36db9ef674736d1866231ac.pdf'
p186
aS'/home/yz/data/weilin_seeds/73cead1e2aab82778b02999c10125649c2b45384.pdf'
p187
aS'/home/yz/data/weilin_seeds/efb3ba16c038548713e4c63523757674141b88cf.pdf'
p188
aS'/home/yz/data/weilin_seeds/c479e63cb8e9eb024d667a4c91829f7ad6daf04e.pdf'
p189
aS'/home/yz/data/weilin_seeds/6539bce7d75e96fd66c4034d1c1ec8625a90f757.pdf'
p190
aS'/home/yz/data/weilin_seeds/19f038716e17dab308d85925f2755b5bc8f72a2d.pdf'
p191
aS'/home/yz/data/weilin_seeds/30cbdd522c4d159163ce22b21f0289cf03644d4e.pdf'
p192
aS'/home/yz/data/weilin_seeds/5e47a619814a925b6165b779e7243c0d8939a62e.pdf'
p193
aS'/home/yz/data/weilin_seeds/250cebc3b661c0a2299b74ae72c6e5832bae48fd.pdf'
p194
aS'/home/yz/data/weilin_seeds/7770d9adc61fe99ad0a4bef9e5f72b6e65235163.pdf'
p195
aS'/home/yz/data/weilin_seeds/2bb379aab4fded8223c136372f1297f8df58b22b.pdf'
p196
aS'/home/yz/data/weilin_seeds/e92313a247b7a82e55b795ca58259ba01d7f0552.pdf'
p197
aS'/home/yz/data/weilin_seeds/043e78963ac7b4583e46c68db3a67101acd0763b.pdf'
p198
aS'/home/yz/data/weilin_seeds/4284001739864b1784bb372ff067046ec73ec1fc.pdf'
p199
aS'/home/yz/data/weilin_seeds/041fa1b7a9752c1099fcf077b79e17787ebd58bb.pdf'
p200
aS'/home/yz/data/weilin_seeds/d4b07409c872daa60cba838372357d214c9d6473.pdf'
p201
aS'/home/yz/data/weilin_seeds/12c66a5be17dde3601f10168ab5cc4bc18c2bd21.pdf'
p202
aS'/home/yz/data/weilin_seeds/96d26d71d81077fef0fc0b61638e544239601787.pdf'
p203
aS'/home/yz/data/weilin_seeds/cd97d063baa359437cf4ebf75aef76c7201879b6.pdf'
p204
aS'/home/yz/data/weilin_seeds/8a9b88a67a4695795c26d037201b0ec7ed1b7be1.pdf'
p205
aS'/home/yz/data/weilin_seeds/70287856057214b03af5965390a34daeb5dbae80.pdf'
p206
aS'/home/yz/data/weilin_seeds/84a1ebdca7a16a22866cae5b1c7b744791120410.pdf'
p207
aS'/home/yz/data/weilin_seeds/22725274a252dd135bf85585be41f8e083113584.pdf'
p208
aS'/home/yz/data/weilin_seeds/07bf5b51b8ecc137ae6a43a3fc9ca5b3ca60f6d5.pdf'
p209
aS'/home/yz/data/weilin_seeds/001d92fc29146e01e0ffa619e5dbf23067f1e814.pdf'
p210
aS'/home/yz/data/weilin_seeds/8947c56b7d10ea6a4c0cf8257d1406a667edce88.pdf'
p211
aS'/home/yz/data/weilin_seeds/209b50312bba623c6d51857d8501acf8a1959756.pdf'
p212
aS'/home/yz/data/weilin_seeds/19cede35541a7816015860b4c122e8444461e731.pdf'
p213
aS'/home/yz/data/weilin_seeds/8b26cbe79006d6b05f5b8c7cbf7df6bcf7165961.pdf'
p214
aS'/home/yz/data/weilin_seeds/ce9b12abd71e5056242c3ea0a9be94db5fd9b67b.pdf'
p215
aS'/home/yz/data/weilin_seeds/790ea1fc422c090b281854f07b84cc1a65288d18.pdf'
p216
aS'/home/yz/data/weilin_seeds/e5a7c1e78d3deafdd2ff5b23cd1f69bcb664e751.pdf'
p217
aS'/home/yz/data/weilin_seeds/6175551518c3ed0d1946a79d8280f06a47d3cd90.pdf'
p218
aS'/home/yz/data/weilin_seeds/e4a111543f744b70c78393d1b0324458b68350d5.pdf'
p219
aS'/home/yz/data/weilin_seeds/d87556e13c8d386bf2a5666a03ab4bc67ea0c3e9.pdf'
p220
aS'/home/yz/data/weilin_seeds/dc61f0a549b9b7b79478db0671d306910474d866.pdf'
p221
aS'/home/yz/data/weilin_seeds/4affb7cfeca26043c847667a216bffb6d4e1db77.pdf'
p222
aS'/home/yz/data/weilin_seeds/cc907be51b0a27fd92b5a60c4b8de076f9a7d5a8.pdf'
p223
aS'/home/yz/data/weilin_seeds/c5da84faf3ca1269b3b6bdfd39fe072e63c7f089.pdf'
p224
aS'/home/yz/data/weilin_seeds/e0e964f003a04eb071ac975339564ddadaa157db.pdf'
p225
aS'/home/yz/data/weilin_seeds/6bde66b49983118725d52d15324e8d8fdb5fe1d9.pdf'
p226
aS'/home/yz/data/weilin_seeds/d66bf840b9575352c0b76fb9c7e18bb770faec13.pdf'
p227
aS'/home/yz/data/weilin_seeds/aa7c01112f8702ee8b4e4b6f71c68ba3770787b3.pdf'
p228
aS'/home/yz/data/weilin_seeds/19003c4e93c496be27e55969ab4b683f273feb99.pdf'
p229
aS'/home/yz/data/weilin_seeds/c96655b833e289c4621d2c82eaef1798aeb613ea.pdf'
p230
aS'/home/yz/data/weilin_seeds/de7cc04eda4d7af5ceeabf74ea7d797e2036c824.pdf'
p231
aS'/home/yz/data/weilin_seeds/428829a5817cb984ce385286d1c8bb0cc2018cb2.pdf'
p232
aS'/home/yz/data/weilin_seeds/839e9b47d0f18fcecddebec1fed8951496842ccc.pdf'
p233
aS'/home/yz/data/weilin_seeds/fab66433b7800a010db3248b1f9898e345c9ee57.pdf'
p234
aS'/home/yz/data/weilin_seeds/2dbed2124f421ff47d915416dc9f8361f4580df4.pdf'
p235
aS'/home/yz/data/weilin_seeds/3d9896073c2cc5bce8fc88e048e3756fff451533.pdf'
p236
aS'/home/yz/data/weilin_seeds/2f1a57e16a855145263e34699c8bb545db2de956.pdf'
p237
aS'/home/yz/data/weilin_seeds/a15a437633d52628027d0165887f926e0f01a5be.pdf'
p238
aS'/home/yz/data/weilin_seeds/a85bd86cd4c3cdf7f3615c4f75607abd4f39f807.pdf'
p239
aS'/home/yz/data/weilin_seeds/77d8c35a782e4ebf3aa33234cf3fb51b83d58de2.pdf'
p240
aS'/home/yz/data/weilin_seeds/d0ec9e1bf938f429975972231b0841e114e81088.pdf'
p241
aS'/home/yz/data/weilin_seeds/814f808f12177a5fc8e1f2de52b8956f93d7a568.pdf'
p242
aS'/home/yz/data/weilin_seeds/a187df388656e3183d7b2c1ee34d445b3bcdfba9.pdf'
p243
aS'/home/yz/data/weilin_seeds/34f7817263449c518b7483967df27b892ea9c681.pdf'
p244
aS'/home/yz/data/weilin_seeds/2c6811c2ae310271ed610b63276fe79728fd02e5.pdf'
p245
aS'/home/yz/data/weilin_seeds/22ec9c5f74340da1d5dd7e8fb7ecb5f8e9fde883.pdf'
p246
aS'/home/yz/data/weilin_seeds/62a12f85a49662f011bddba9b5d6fd99be48ac63.pdf'
p247
aS'/home/yz/data/weilin_seeds/06b8d55cd9aa72bba877273531b923e416dd7c07.pdf'
p248
aS'/home/yz/data/weilin_seeds/6581a2a67afe0d7453fbe79a0320506150f74402.pdf'
p249
aS'/home/yz/data/weilin_seeds/ee18f4a6a2867b0adcf7954a132e847a54a7ea40.pdf'
p250
aS'/home/yz/data/weilin_seeds/7c6fe90ba191319bab89e77326c2b2ed1972db04.pdf'
p251
aS'/home/yz/data/weilin_seeds/39dc51f029ffbaedad2b0c08cdc926e83b846b0c.pdf'
p252
aS'/home/yz/data/weilin_seeds/f342381d5f7d45d173ee7bf695548c71de55d6e6.pdf'
p253
aS'/home/yz/data/weilin_seeds/610997fc447ece2fe7880a7d9704e29a24ad5276.pdf'
p254
aS'/home/yz/data/weilin_seeds/b512698d8f51697ebe8bb66dac8f553b681ebd57.pdf'
p255
aS'/home/yz/data/weilin_seeds/6b866e7ce0a17abe00c61b03fb82e8289c443db0.pdf'
p256
aS'/home/yz/data/weilin_seeds/b9fc5216dfcd879fe7d16b80137bd3dff5808dea.pdf'
p257
aS'/home/yz/data/weilin_seeds/8ea6050683acbed0fbcbc06e7b1ee3e396e877fb.pdf'
p258
aS'/home/yz/data/weilin_seeds/885262f5f818eeb8133537d6d1209195f04c69b5.pdf'
p259
aS'/home/yz/data/weilin_seeds/5a16148b54f683bc9955919a2f55bb80393d614b.pdf'
p260
aS'/home/yz/data/weilin_seeds/06cff45f840afe9c76e1f6f311eee22e0ec466f0.pdf'
p261
aS'/home/yz/data/weilin_seeds/5eb89a6d891b5f6e199390264f187bc95f1349b5.pdf'
p262
aS'/home/yz/data/weilin_seeds/8bda3ae957499414002e5cb5b3fd05b2485f5bd8.pdf'
p263
aS'/home/yz/data/weilin_seeds/36ae7ac9ca7ad0654a09b4747d714aff9c08c660.pdf'
p264
aS'/home/yz/data/weilin_seeds/be83b18be31cf2ca2341d0d3a95b391dd6c26201.pdf'
p265
aS'/home/yz/data/weilin_seeds/d647ed5fdc06462bab12b09070446fc8288ef6b3.pdf'
p266
aS'/home/yz/data/weilin_seeds/982854724fe361ee360a5c7d0c760dd1f0075a12.pdf'
p267
aS'/home/yz/data/weilin_seeds/f827958368f3ca1dc6a45125413671b23d1f7f39.pdf'
p268
aS'/home/yz/data/weilin_seeds/687b60838f8b40e556d230aae5e0e22a92b6e1f9.pdf'
p269
aS'/home/yz/data/weilin_seeds/fe23824d69a5be287a8b79f80937cc312858d8a9.pdf'
p270
aS'/home/yz/data/weilin_seeds/d885d028dfcc8f2091d411228b7f2b02f474dddc.pdf'
p271
aS'/home/yz/data/weilin_seeds/00aaa01030cb7254a0ba30e9e62516f8690b9e3b.pdf'
p272
aS'/home/yz/data/weilin_seeds/7d46678a5adcec72372f41c8af2f4a9b8543e26b.pdf'
p273
aS'/home/yz/data/weilin_seeds/dc695481861b21d0ef49bb9075b7e7d98005c285.pdf'
p274
aS'/home/yz/data/weilin_seeds/d1f79918fd392bd531158b5679bdca0c56868117.pdf'
p275
aS'/home/yz/data/weilin_seeds/ac53178c4d9e4d488d4fec077039ab764cebb675.pdf'
p276
aS'/home/yz/data/weilin_seeds/512f0de13e8cc1edddfa431551f3ff2722ff0d26.pdf'
p277
aS'/home/yz/data/weilin_seeds/935b8d2442209a3434ca99c14fe32a5c0cb240aa.pdf'
p278
aS'/home/yz/data/weilin_seeds/8030f1671642da452aee6d53fc9f43eb7f9b81fe.pdf'
p279
aS'/home/yz/data/weilin_seeds/1a0fca179c1cd44ee281b6321422da22c3fbc56d.pdf'
p280
aS'/home/yz/data/weilin_seeds/1c1fb39c2cd9ba328c0cba8449d348dff8e66695.pdf'
p281
aS'/home/yz/data/weilin_seeds/cbd3004ccda5110adfcef202ed1107d6b1036afa.pdf'
p282
aS'/home/yz/data/weilin_seeds/fe0eea60d13fbab0727581082611b8a4659c9a9c.pdf'
p283
aS'/home/yz/data/weilin_seeds/bc6a2bba11b515f7f7a9de7f7d93dee725ae01c9.pdf'
p284
aS'/home/yz/data/weilin_seeds/3605fcba8b6f43e00314cba626636f37907189a5.pdf'
p285
aS'/home/yz/data/weilin_seeds/e1c90be5cfd743f349c568a337ced8e1e35780e0.pdf'
p286
aS'/home/yz/data/weilin_seeds/209c61e580d732cbf93f197525af6409930ee3bb.pdf'
p287
aS'/home/yz/data/weilin_seeds/e4bd2b5ee65052eeefdd8fb32e72f12e932436f0.pdf'
p288
aS'/home/yz/data/weilin_seeds/75e9e8c8624581da4eb5e946965450b1e562fe7e.pdf'
p289
aS'/home/yz/data/weilin_seeds/011566dea36212d4923d71f3ed5e76e9baeb992a.pdf'
p290
aS'/home/yz/data/weilin_seeds/c9cf57af6b594ba144f5cfcf1797b49f9165ae94.pdf'
p291
aS'/home/yz/data/weilin_seeds/70179156117fff4a230306a2eb7dc6f8750fe8b1.pdf'
p292
aS'/home/yz/data/weilin_seeds/f7aa25e131a0ec8cf9035c52cc5c6f0e4557a1a0.pdf'
p293
aS'/home/yz/data/weilin_seeds/03a405e176256144a60487eabfd66e0b3b42ffd0.pdf'
p294
aS'/home/yz/data/weilin_seeds/d9ca99538f51543cd5a1be10932d2a1def9198ed.pdf'
p295
aS'/home/yz/data/weilin_seeds/c4e7f6911b71a5730be4ff9fc309c4eb0696679d.pdf'
p296
aS'/home/yz/data/weilin_seeds/f5118c5d470031512aa75ffc2017dddb3313db94.pdf'
p297
aS'/home/yz/data/weilin_seeds/411ddcdd5276d2950593a1908229bd43c8dec8d7.pdf'
p298
aS'/home/yz/data/weilin_seeds/56706f969de93325a73da085a82cf482cd26cb07.pdf'
p299
aS'/home/yz/data/weilin_seeds/710e99c1a46a573b744b77451707a246211b1e19.pdf'
p300
aS'/home/yz/data/weilin_seeds/4a536180623a9ff4c95d9bec240154b3190135dc.pdf'
p301
aS'/home/yz/data/weilin_seeds/132d3c9c1f28d10f626fdedf089bd9ceff63d200.pdf'
p302
aS'/home/yz/data/weilin_seeds/7d4604b87ae5b97e8411bc7a3ca22a0a15a4458f.pdf'
p303
aS'/home/yz/data/weilin_seeds/cf48640eff9028f0ed8266b65f4d094266149ff7.pdf'
p304
aS'/home/yz/data/weilin_seeds/ae9d1275a58427ce3239cdf1e22391f23d31cf90.pdf'
p305
aS'/home/yz/data/weilin_seeds/a084e24fff2468d04baa003c82549af09ca5b3a9.pdf'
p306
aS'/home/yz/data/weilin_seeds/0aa27a04a6059bf3f36945843f5d6152f5a3bc00.pdf'
p307
aS'/home/yz/data/weilin_seeds/4972d44e851a41460d047bc242287a925715abcf.pdf'
p308
aS'/home/yz/data/weilin_seeds/9a8abfda73f37fc1dee32ed61f1cbbae0be66ef7.pdf'
p309
aS'/home/yz/data/weilin_seeds/4993219ca31c745e8424a264df3e0f3e0f37024b.pdf'
p310
aS'/home/yz/data/weilin_seeds/f54fb814b9946cf2238bf759c3c4f103246b0344.pdf'
p311
aS'/home/yz/data/weilin_seeds/bc60488c66012ea99891296e4dcc47c37e1de7da.pdf'
p312
aS'/home/yz/data/weilin_seeds/231a2591052f7b73ac9c153b2be11714b002cd2c.pdf'
p313
aS'/home/yz/data/weilin_seeds/b76eb54d22aebaf84b2f10e216abb67a0b039d12.pdf'
p314
aS'/home/yz/data/weilin_seeds/cb9b89b6de90a4c9d3af9458aa11b66deee273cc.pdf'
p315
aS'/home/yz/data/weilin_seeds/debe5f9e84264061d2d92b46cb0223fbeb454222.pdf'
p316
aS'/home/yz/data/weilin_seeds/1b368953508eda69dfe41ade038835ac7f484eba.pdf'
p317
aS'/home/yz/data/weilin_seeds/6d2c61b28cfe0cdd7fea6ab9d2e8e7157a3ac4c3.pdf'
p318
aS'/home/yz/data/weilin_seeds/d3bc877d62c3714ec542281ed8d7814341fa0314.pdf'
p319
aS'/home/yz/data/weilin_seeds/c12425b3b5838307dc2021be9c5ae3d3dfcbfee1.pdf'
p320
aS'/home/yz/data/weilin_seeds/56b9201d802491b15aadd2389d39560db58245bb.pdf'
p321
aS'/home/yz/data/weilin_seeds/afc06f906d2d69d7b055388e5074965ba981ad41.pdf'
p322
aS'/home/yz/data/weilin_seeds/2a800e84d109cdc89111ad531c36c4aaf4a35e7e.pdf'
p323
aS'/home/yz/data/weilin_seeds/49391699251d44377b4aa3037602cf5b5710098c.pdf'
p324
aS'/home/yz/data/weilin_seeds/a0d5611076b991f734129311ae84b0e717a49124.pdf'
p325
aS'/home/yz/data/weilin_seeds/86e871a8e2dd25309a749a2244a66a60e04b0bb4.pdf'
p326
aS'/home/yz/data/weilin_seeds/8479d5f05fb86a724e591790923a10c4312e528f.pdf'
p327
aS'/home/yz/data/weilin_seeds/c507a2e0a9a70b43a0382d0d0a7b9e92a969c984.pdf'
p328
aS'/home/yz/data/weilin_seeds/4719eb5e97debd25162f015b1e85a25ff8944c99.pdf'
p329
aS'/home/yz/data/weilin_seeds/ce274c10e09549bc70165a967b67f92d5ea5a375.pdf'
p330
aS'/home/yz/data/weilin_seeds/20a9c4aa608cd57323bad1eac697293d2eee72c1.pdf'
p331
aS'/home/yz/data/weilin_seeds/7e13f25ff4950568ed2df687c0218c41324db492.pdf'
p332
aS'/home/yz/data/weilin_seeds/22ff71b24c9af346c1961216bfdbdecc2fb4ae6b.pdf'
p333
aS'/home/yz/data/weilin_seeds/f3efb335a617ecb76e1e7519bc7c2c3df8fa47f6.pdf'
p334
aS'/home/yz/data/weilin_seeds/2360e249d0db774744ac70b23602bb9721845cfe.pdf'
p335
aS'/home/yz/data/weilin_seeds/dd64f160724dfd42335757858a825c28a07d42bd.pdf'
p336
aS'/home/yz/data/weilin_seeds/1f8a681b58f8b0bf373cfee8c082ba6a425957b6.pdf'
p337
aS'/home/yz/data/weilin_seeds/eeda25066179888469e9f183a73efdc034862947.pdf'
p338
aS'/home/yz/data/weilin_seeds/2cd16beb9541a5fd845331734147ceb0bf12d2d9.pdf'
p339
aS'/home/yz/data/weilin_seeds/c6c6379e3c529a4b8b219eac4e0ee420ad369aaa.pdf'
p340
aS'/home/yz/data/weilin_seeds/6b3f19b72cb93b6f00c6cf7123a3cf644a069906.pdf'
p341
aS'/home/yz/data/weilin_seeds/1e9a1e3688d29d377051c04ce258b4e77958fe6a.pdf'
p342
aS'/home/yz/data/weilin_seeds/7e402a430d4bd5b926df75acf1c8825d386048e3.pdf'
p343
aS'/home/yz/data/weilin_seeds/1d84d6e70ca13af1c2c41e239dc27d709a41382b.pdf'
p344
aS'/home/yz/data/weilin_seeds/69571503250bc01cd537efe1043dcff93c8d8183.pdf'
p345
aS'/home/yz/data/weilin_seeds/e2837b63746adb5ca8fef5f6bb20f5cbc6fcc801.pdf'
p346
aS'/home/yz/data/weilin_seeds/a414bcbffa46110f1483c1a31c1716de0c4303ef.pdf'
p347
aS'/home/yz/data/weilin_seeds/d7eed6ffacd104a10a3814849dc959d6cba25bb0.pdf'
p348
aS'/home/yz/data/weilin_seeds/e6d2727825ee8403538abdf8a97913af596ff08f.pdf'
p349
aS'/home/yz/data/weilin_seeds/defc8f422653b50019e381da32e58fff2751d943.pdf'
p350
aS'/home/yz/data/weilin_seeds/c5e51216361606878a44febd907a21424d38fba3.pdf'
p351
aS'/home/yz/data/weilin_seeds/68b5187a395c6e73d2b6fb75e6b10ff1ca7ce260.pdf'
p352
aS'/home/yz/data/weilin_seeds/7238265cb513cb8b8c5e01ca6fccb0a9008b50b9.pdf'
p353
aS'/home/yz/data/weilin_seeds/774e56a854906ba75d76448479b1e50a485f53e5.pdf'
p354
aS'/home/yz/data/weilin_seeds/f544513b97c2cd89136271fe4e376f215f56a7ca.pdf'
p355
aS'/home/yz/data/weilin_seeds/49629117d22650927b78bc1fa9f368acdfaa27ba.pdf'
p356
aS'/home/yz/data/weilin_seeds/f58733c5dc882f0ffd89ca35fcfba22e2f9ffc52.pdf'
p357
aS'/home/yz/data/weilin_seeds/b4496922753a9905d69639bce93917a2ee803153.pdf'
p358
aS'/home/yz/data/weilin_seeds/d8d2ff951e12f9f2eaae2cbb3dbfe0f84807f6de.pdf'
p359
aS'/home/yz/data/weilin_seeds/834675635e3d0c4f50c07374705a1cceced71a6f.pdf'
p360
aS'/home/yz/data/weilin_seeds/eb8c0874d3be37070ec7030ca1c5bc8a0934dafc.pdf'
p361
aS'/home/yz/data/weilin_seeds/55674a4955fc8601974b7f3249aff2f4f6cf3288.pdf'
p362
aS'/home/yz/data/weilin_seeds/26d2f07ed096dc5ca555d527f12d072234d4fa06.pdf'
p363
aS'/home/yz/data/weilin_seeds/b4f13bf5f4174fd7a7c2a52b21309da8da0b33ce.pdf'
p364
aS'/home/yz/data/weilin_seeds/414ba0072bd5102fcae7491b16cba447755d2772.pdf'
p365
aS'/home/yz/data/weilin_seeds/d45b794ac57c390cc3b50559d7836fc69a057f3b.pdf'
p366
aS'/home/yz/data/weilin_seeds/378c80c9851b6bb03c44567704954222fa780e21.pdf'
p367
aS'/home/yz/data/weilin_seeds/66f8014f702f9ce51a92f507dacc687c6e2092cb.pdf'
p368
aS'/home/yz/data/weilin_seeds/cdfd968e04bc3508047d9fefcc9e1bcedd847922.pdf'
p369
aS'/home/yz/data/weilin_seeds/92cc5a76177d1ed7859ec993378e0452546de7cd.pdf'
p370
aS'/home/yz/data/weilin_seeds/b89a672365a618beadb9e9be47da73050de99f36.pdf'
p371
aS'/home/yz/data/weilin_seeds/994f7552e4715688257141102931796246d15e86.pdf'
p372
aS'/home/yz/data/weilin_seeds/c8845a2006de73e35e4b0275bb2955b8ce885348.pdf'
p373
aS'/home/yz/data/weilin_seeds/f803da928f18eee9a4637fbc8101fc1029f675dc.pdf'
p374
aS'/home/yz/data/weilin_seeds/1eb304ae0068245c14e0077a24f77fda588fd5af.pdf'
p375
aS'/home/yz/data/weilin_seeds/7990d15181c4e153e0e035a5910e5ddba6114977.pdf'
p376
aS'/home/yz/data/weilin_seeds/01809300a862b690d6ce8186a9fe0cea80a0ac8b.pdf'
p377
aS'/home/yz/data/weilin_seeds/3ae19ffb5cae4621b0219081b83d1f8f018de7eb.pdf'
p378
aS'/home/yz/data/weilin_seeds/ea9096ee31fb7da22d63178600a42f12cda8669f.pdf'
p379
aS'/home/yz/data/weilin_seeds/b3e342eedfaec85c5818695def69255b7c827541.pdf'
p380
aS'/home/yz/data/weilin_seeds/b301a9852a10f4242d7cdc51f95d1ea4ad659ab5.pdf'
p381
aS'/home/yz/data/weilin_seeds/f1993b7f5ab3ef90ebd57b412fb4d8228b967b23.pdf'
p382
aS'/home/yz/data/weilin_seeds/86be5bb662d65936ffe293f487a763a69ce6bebf.pdf'
p383
aS'/home/yz/data/weilin_seeds/44dc4f4da31544ff45b71f8256561e425929b85b.pdf'
p384
aS'/home/yz/data/weilin_seeds/a5376977443ac632b10c21d0e2f02cce53a68aa4.pdf'
p385
aS'/home/yz/data/weilin_seeds/3d431fe7b85f370f7862791e855a284bad2391c3.pdf'
p386
aS'/home/yz/data/weilin_seeds/ed66564d4f2ade8d0e109d90b40b4a32fd0d1956.pdf'
p387
aS'/home/yz/data/weilin_seeds/848f73c0aea6b1a4a58b105f18f4241c98f2c58f.pdf'
p388
aS'/home/yz/data/weilin_seeds/1d0322306e9a0139582a06c1ad36ee79f140e793.pdf'
p389
aS'/home/yz/data/weilin_seeds/ed946944366e76f0da4707cc93a26edaf4ab954e.pdf'
p390
aS'/home/yz/data/weilin_seeds/7abb55433c54f05ad17f677d58eadbf1a26a3612.pdf'
p391
aS'/home/yz/data/weilin_seeds/8ff561727a33669cc062cb0227b3496359ad1846.pdf'
p392
aS'/home/yz/data/weilin_seeds/6b6cbddcd679a8435bac3bdbfeb32a0b7c6371cb.pdf'
p393
aS'/home/yz/data/weilin_seeds/ba8c50f18bc7eb7d1db81a0556e37aae1ffac868.pdf'
p394
aS'/home/yz/data/weilin_seeds/201cc537f5268558e8be08d6f41bf41effed9383.pdf'
p395
aS'/home/yz/data/weilin_seeds/674a02bcbe17eb91d2b63835e64ac5c108264729.pdf'
p396
aS'/home/yz/data/weilin_seeds/1e04b6ef89759a462dc71b037b0040b896aed2da.pdf'
p397
aS'/home/yz/data/weilin_seeds/fa59ba7ca89bee2329377c2cc5babe86c69cfcc3.pdf'
p398
aS'/home/yz/data/weilin_seeds/2022b4337561a816f9da1eb981a45fcbf68796ef.pdf'
p399
aS'/home/yz/data/weilin_seeds/5dda9c639b2b5517eb63fedb1f29e4db35f321ac.pdf'
p400
aS'/home/yz/data/weilin_seeds/7d69d5cabdfde12233d8a8f836cc58afebca4c1c.pdf'
p401
aS'/home/yz/data/weilin_seeds/b5d16249170dfa2eb24692d4c869169ddf24d268.pdf'
p402
aS'/home/yz/data/weilin_seeds/a1f93ba9078e32cc8b803362e460d164e6260efc.pdf'
p403
aS'/home/yz/data/weilin_seeds/82b4d664d2014e3244fa3b5180a0cc7172286b3a.pdf'
p404
aS'/home/yz/data/weilin_seeds/9d9c8c2396269e28500b58c37c5c94957adac834.pdf'
p405
aS'/home/yz/data/weilin_seeds/69e3596e3ca2c71cf605a09b345bc328e782f9ba.pdf'
p406
aS'/home/yz/data/weilin_seeds/d3bcc8acd811774764b7ab66260d2b96968d9f56.pdf'
p407
aS'/home/yz/data/weilin_seeds/09104bb72e65d01c3b1f71d0f7917c3f157b11f7.pdf'
p408
aS'/home/yz/data/weilin_seeds/c44bd9be3617be93d1b12e3fd0ec37e70419007e.pdf'
p409
aS'/home/yz/data/weilin_seeds/a1f2bade7753e598fcc0fea1a41f2edf8f7c217b.pdf'
p410
aS'/home/yz/data/weilin_seeds/17684a91855432bbc451f278747f15197ebdbdb8.pdf'
p411
aS'/home/yz/data/weilin_seeds/5bafdb6c140a67dd54564554ec1f950228b2a5c2.pdf'
p412
aS'/home/yz/data/weilin_seeds/ecb7ea97f29224ffa7b27927ae40cf6f207d0002.pdf'
p413
aS'/home/yz/data/weilin_seeds/f3f7db7f8889656407934f7ef03ea8bf319d0209.pdf'
p414
aS'/home/yz/data/weilin_seeds/3dadc65171375c3ad48a18a4dbc3ef438b5d9f75.pdf'
p415
aS'/home/yz/data/weilin_seeds/b85433d86bdcd8a400adfbfea0228900ad40de80.pdf'
p416
aS'/home/yz/data/weilin_seeds/2d085f81af69d91b8b038c78fd0fdcfbf5c8b6e8.pdf'
p417
aS'/home/yz/data/weilin_seeds/3bca0ac6979c86a8cb5e7e97ab4ab4dd715901e8.pdf'
p418
aS'/home/yz/data/weilin_seeds/4cb5d47deeb86ebf80d1eb22bfd021e5f8483208.pdf'
p419
aS'/home/yz/data/weilin_seeds/16d39d2fda1837d4d6ad33259052c60d189a0502.pdf'
p420
aS'/home/yz/data/weilin_seeds/cc1d28147b7193a551b255d479904ab387f12270.pdf'
p421
aS'/home/yz/data/weilin_seeds/a464bcf41935597d7a61dffd1d438a7df4d9e267.pdf'
p422
aS'/home/yz/data/weilin_seeds/d53e3ec03a0a671db6a0a9543dad71cc4acee5c2.pdf'
p423
aS'/home/yz/data/weilin_seeds/43881350436f8faaf8c3ac1a2a725cc80724fdcb.pdf'
p424
aS'/home/yz/data/weilin_seeds/18b5b307c2b631310bed877b55e7bc896bdfe512.pdf'
p425
aS'/home/yz/data/weilin_seeds/3c1e43fa068a9d8a8317ea2073f6e52c830f42d6.pdf'
p426
aS'/home/yz/data/weilin_seeds/ef202e3e123d1c31d38b527fc4b218c815af1ad1.pdf'
p427
aS'/home/yz/data/weilin_seeds/b162d4597ce062c9c70e7526c63e421bc740f72e.pdf'
p428
aS'/home/yz/data/weilin_seeds/2345393d7880a5e7d4901a490241bb17d52ecffa.pdf'
p429
aS'/home/yz/data/weilin_seeds/e3109a26991560c23035213a87190438cd9d3e8c.pdf'
p430
aS'/home/yz/data/weilin_seeds/69580c16c35aa2b36b53e81c8e3175166ad0627b.pdf'
p431
aS'/home/yz/data/weilin_seeds/dddfbcd44b280a3909b7d37202bc63ffd20795ad.pdf'
p432
aS'/home/yz/data/weilin_seeds/daaa45b1644a6361bedb869454130a9207740985.pdf'
p433
aS'/home/yz/data/weilin_seeds/b587f064c5564ca053911f88c7e8955bdfc3b198.pdf'
p434
aS'/home/yz/data/weilin_seeds/a89d758cc17ea523bdc0e49942b956586f37b43f.pdf'
p435
aS'/home/yz/data/weilin_seeds/573e07933c544d6c1cd582d22a31ee7f224f77d8.pdf'
p436
aS'/home/yz/data/weilin_seeds/4d39677e1cf3149dc91d49925172428d87bdb6d5.pdf'
p437
aS'/home/yz/data/weilin_seeds/daba6aee9202f5d1cb2537984c6d95b9d4204872.pdf'
p438
aS'/home/yz/data/weilin_seeds/091c91c186c72428614fe298ebcbc037e231641f.pdf'
p439
aS'/home/yz/data/weilin_seeds/5a01e99f345dfad1da127b8e68e660d3faea905e.pdf'
p440
aS'/home/yz/data/weilin_seeds/c167f944da0465f5801908d59edb42247410ed38.pdf'
p441
aS'/home/yz/data/weilin_seeds/3f41d4c209212ecc89529d2d319489ef6573a985.pdf'
p442
aS'/home/yz/data/weilin_seeds/c5bd5a2162f56be0a3a78c142e17ebc432f2ff09.pdf'
p443
aS'/home/yz/data/weilin_seeds/4a0a8057a4eb41a9d4cc05064517d54df1b3e7e7.pdf'
p444
aS'/home/yz/data/weilin_seeds/7de94ec4e797d3e558060bb7606c3f69262cec7c.pdf'
p445
aS'/home/yz/data/weilin_seeds/e16fb6ddfecffa58c37a7c3ee1a8eaf61cbd844b.pdf'
p446
aS'/home/yz/data/weilin_seeds/b394ced36b34acb0d02f5ccdd5dafb52d91c6219.pdf'
p447
aS'/home/yz/data/weilin_seeds/d069ab05fe6b0f81350e5fcf64c463a82d13a26b.pdf'
p448
aS'/home/yz/data/weilin_seeds/8aaf112fb2080dedd40525801d04fbc08ea115ac.pdf'
p449
aS'/home/yz/data/weilin_seeds/623bf1ab993134760e18eb071c6954a73f77c1e6.pdf'
p450
aS'/home/yz/data/weilin_seeds/1ec657f52bf1811af14d7da549cb6add70c778f0.pdf'
p451
aS'/home/yz/data/weilin_seeds/c6062d22a791a79f05d868d3ff3f41ad1e9fa1a7.pdf'
p452
aS'/home/yz/data/weilin_seeds/5d091c1075efb6c55935434ec649a0238113c678.pdf'
p453
aS'/home/yz/data/weilin_seeds/30c31e89ceaaa3c74ddcf09e9a33ebf234764dc8.pdf'
p454
aS'/home/yz/data/weilin_seeds/efb8cd39c0c9dc561e3fcf4252d89dc1c157ff48.pdf'
p455
aS'/home/yz/data/weilin_seeds/7fbb46c2fd02f702a60859fb2533ee403f86657a.pdf'
p456
aS'/home/yz/data/weilin_seeds/0941bd7bcbe57cc0c66e277050d3d78353773c49.pdf'
p457
aS'/home/yz/data/weilin_seeds/5e9fbded642f649d29dbb4167901c74ce63c6897.pdf'
p458
aS'/home/yz/data/weilin_seeds/5d68f377b84239d5dc0be48d819c8928ef578c94.pdf'
p459
aS'/home/yz/data/weilin_seeds/06de1964ed1bc0205856f7fff1bd0af91d7d63f6.pdf'
p460
aS'/home/yz/data/weilin_seeds/2127215418545b3c281769d4388e0df307f4731e.pdf'
p461
aS'/home/yz/data/weilin_seeds/f74296325dcd9679290d4113e37bb622f1366537.pdf'
p462
aS'/home/yz/data/weilin_seeds/227d4e5a477e7eb59c1845ba0b3b6d09a2a67173.pdf'
p463
aS'/home/yz/data/weilin_seeds/65adcf9cbb05107a53ee3ccaea2ec31c5ec3bfeb.pdf'
p464
aS'/home/yz/data/weilin_seeds/74f03105b9ab8a699d176b86cd97c0651f643cfd.pdf'
p465
aS'/home/yz/data/weilin_seeds/1ccabd2fa6ae8a04816432650bf5c79605a18663.pdf'
p466
aS'/home/yz/data/weilin_seeds/c820b44f7ce3aab7af33a00acc86139279c66df4.pdf'
p467
aS'/home/yz/data/weilin_seeds/69eb52822e1ae73967c94ef1c55c0427ee8df171.pdf'
p468
aS'/home/yz/data/weilin_seeds/c4aa168a3cdf67c0256fe1927984f9e84a833682.pdf'
p469
aS'/home/yz/data/weilin_seeds/5621832de7bd3aabb7d31c254f5c368ef6b7afc7.pdf'
p470
aS'/home/yz/data/weilin_seeds/fa6b3eda00ccc0bff755fa88a113cbb34fd23d57.pdf'
p471
aS'/home/yz/data/weilin_seeds/b573f527b8a0444aeae6d87007b46bbd79f8f3dc.pdf'
p472
aS'/home/yz/data/weilin_seeds/f863275bc4935b27b50a7d48a6bf8d4f3e4fcc4f.pdf'
p473
aS'/home/yz/data/weilin_seeds/033ce74489aceba7e9372d5cb9d73e7584a546c8.pdf'
p474
aS'/home/yz/data/weilin_seeds/b63c0610e6a1523df140d211e250b372395ef2eb.pdf'
p475
aS'/home/yz/data/weilin_seeds/26d6ac28dd95ce34a534f4588d31b2e2679f7325.pdf'
p476
aS'/home/yz/data/weilin_seeds/7aa7076550f19d291b81592db374203b3135ed1c.pdf'
p477
aS'/home/yz/data/weilin_seeds/fd6e997001728f312bc47adae64a01cbc17446f3.pdf'
p478
aS'/home/yz/data/weilin_seeds/1a01138adb4ab5040a5139ee70675a37c53e2334.pdf'
p479
aS'/home/yz/data/weilin_seeds/2f8b506680bda52a188e586b8dd946e1d40ac9cd.pdf'
p480
aS'/home/yz/data/weilin_seeds/56b278657cb9d6ccfb05b9f02a1940e323116b69.pdf'
p481
aS'/home/yz/data/weilin_seeds/152e787cb2abd181a1bdd9414544bcf9f5079e15.pdf'
p482
aS'/home/yz/data/weilin_seeds/b04b602a8efc7f22392ebc9aaf5ca540a868261c.pdf'
p483
aS'/home/yz/data/weilin_seeds/fc9b19f39e667d6369e2379a21fc6c54bac9bbc0.pdf'
p484
aS'/home/yz/data/weilin_seeds/f2a9170030b999834018203f468ea9bcf8e444c0.pdf'
p485
aS'/home/yz/data/weilin_seeds/b38072adaa4ca8cc6e916f575882b4227d065278.pdf'
p486
aS'/home/yz/data/weilin_seeds/6298615686fbe0ca4af0902fafed4541119f3e06.pdf'
p487
aS'/home/yz/data/weilin_seeds/c76aed589181c41c1420c178dcae38fdf7151b2a.pdf'
p488
aS'/home/yz/data/weilin_seeds/35d0026165a9ec9901030b2839c4730469ff4fd2.pdf'
p489
aS'/home/yz/data/weilin_seeds/60a623c22b7e4f31e1f67cc276f5396095a87075.pdf'
p490
aS'/home/yz/data/weilin_seeds/6a9d481051824b838555865df0dce6f736bb8df6.pdf'
p491
aS'/home/yz/data/weilin_seeds/a978080b9f702282673448d1a55ae97c0aa7b8cc.pdf'
p492
aS'/home/yz/data/weilin_seeds/247b7313519fb864b303864853ec7b06c64372cc.pdf'
p493
aS'/home/yz/data/weilin_seeds/710a854935eb921c2efb80e43f3128416e29802a.pdf'
p494
aS'/home/yz/data/weilin_seeds/326ee845a5ae4a617fcf39a20b7972f323801df5.pdf'
p495
aS'/home/yz/data/weilin_seeds/dafb6aaaa4d59fa432e619caa00447afb415082a.pdf'
p496
aS'/home/yz/data/weilin_seeds/ab75080d163a6aefb540f7646e5899bffdce7edc.pdf'
p497
aS'/home/yz/data/weilin_seeds/2be0e12523fa60cad4ae87471ac54834adc90bb4.pdf'
p498
aS'/home/yz/data/weilin_seeds/8f3fe5e6e8706bf53f186c66881464a510ca98c5.pdf'
p499
aS'/home/yz/data/weilin_seeds/feb936bc8d2e336218ee6b386f9b71cbe6d688fc.pdf'
p500
a.